
newSensecar.elf:     file format elf32-avr

Sections:
Idx Name          Size      VMA       LMA       File off  Algn
  0 .data         000000b8  00800100  00006ab8  00006b4c  2**0
                  CONTENTS, ALLOC, LOAD, DATA
  1 .text         00006ab8  00000000  00000000  00000094  2**1
                  CONTENTS, ALLOC, LOAD, READONLY, CODE
  2 .bss          00000341  008001b8  008001b8  00006c04  2**0
                  ALLOC
  3 .stab         00002958  00000000  00000000  00006c04  2**2
                  CONTENTS, READONLY, DEBUGGING
  4 .stabstr      00000d46  00000000  00000000  0000955c  2**0
                  CONTENTS, READONLY, DEBUGGING
  5 .comment      00000011  00000000  00000000  0000a2a2  2**0
                  CONTENTS, READONLY

Disassembly of section .text:

00000000 <__vectors>:
       0:	0c 94 6d 00 	jmp	0xda	; 0xda <__ctors_end>
       4:	0c 94 95 00 	jmp	0x12a	; 0x12a <__bad_interrupt>
       8:	0c 94 95 00 	jmp	0x12a	; 0x12a <__bad_interrupt>
       c:	0c 94 95 00 	jmp	0x12a	; 0x12a <__bad_interrupt>
      10:	0c 94 95 00 	jmp	0x12a	; 0x12a <__bad_interrupt>
      14:	0c 94 95 00 	jmp	0x12a	; 0x12a <__bad_interrupt>
      18:	0c 94 95 00 	jmp	0x12a	; 0x12a <__bad_interrupt>
      1c:	0c 94 95 00 	jmp	0x12a	; 0x12a <__bad_interrupt>
      20:	0c 94 95 00 	jmp	0x12a	; 0x12a <__bad_interrupt>
      24:	0c 94 95 00 	jmp	0x12a	; 0x12a <__bad_interrupt>
      28:	0c 94 95 00 	jmp	0x12a	; 0x12a <__bad_interrupt>
      2c:	0c 94 95 00 	jmp	0x12a	; 0x12a <__bad_interrupt>
      30:	0c 94 95 00 	jmp	0x12a	; 0x12a <__bad_interrupt>
      34:	0c 94 95 00 	jmp	0x12a	; 0x12a <__bad_interrupt>
      38:	0c 94 95 00 	jmp	0x12a	; 0x12a <__bad_interrupt>
      3c:	0c 94 95 00 	jmp	0x12a	; 0x12a <__bad_interrupt>
      40:	0c 94 d6 17 	jmp	0x2fac	; 0x2fac <__vector_16>
      44:	0c 94 95 00 	jmp	0x12a	; 0x12a <__bad_interrupt>
      48:	0c 94 a8 0a 	jmp	0x1550	; 0x1550 <__vector_18>
      4c:	0c 94 e4 0a 	jmp	0x15c8	; 0x15c8 <__vector_19>
      50:	0c 94 95 00 	jmp	0x12a	; 0x12a <__bad_interrupt>
      54:	0c 94 95 00 	jmp	0x12a	; 0x12a <__bad_interrupt>
      58:	0c 94 95 00 	jmp	0x12a	; 0x12a <__bad_interrupt>
      5c:	0c 94 95 00 	jmp	0x12a	; 0x12a <__bad_interrupt>
      60:	0c 94 95 00 	jmp	0x12a	; 0x12a <__bad_interrupt>
      64:	0c 94 95 00 	jmp	0x12a	; 0x12a <__bad_interrupt>

00000068 <digital_pin_to_timer_PGM>:
      68:	00 00 00 07 00 02 01 00 00 03 04 06 00 00 00 00     ................
      78:	00 00 00 00                                         ....

0000007c <digital_pin_to_bit_mask_PGM>:
      7c:	01 02 04 08 10 20 40 80 01 02 04 08 10 20 01 02     ..... @...... ..
      8c:	04 08 10 20                                         ... 

00000090 <digital_pin_to_port_PGM>:
      90:	04 04 04 04 04 04 04 04 02 02 02 02 02 02 03 03     ................
      a0:	03 03 03 03                                         ....

000000a4 <port_to_input_PGM>:
      a4:	00 00 00 00 23 00 26 00 29 00                       ....#.&.).

000000ae <port_to_output_PGM>:
      ae:	00 00 00 00 25 00 28 00 2b 00                       ....%.(.+.

000000b8 <port_to_mode_PGM>:
      b8:	00 00 00 00 24 00 27 00 2a 00                       ....$.'.*.

000000c2 <__ctors_start>:
      c2:	f0 2e       	mov	r15, r16
      c4:	fb 2e       	mov	r15, r27
      c6:	06 2f       	mov	r16, r22
      c8:	21 2f       	mov	r18, r17
      ca:	49 2f       	mov	r20, r25
      cc:	57 2f       	mov	r21, r23
      ce:	62 2f       	mov	r22, r18
      d0:	88 2f       	mov	r24, r24
      d2:	93 2f       	mov	r25, r19
      d4:	e3 2f       	mov	r30, r19
      d6:	8b 30       	cpi	r24, 0x0B	; 11
      d8:	96 30       	cpi	r25, 0x06	; 6

000000da <__ctors_end>:
      da:	11 24       	eor	r1, r1
      dc:	1f be       	out	0x3f, r1	; 63
      de:	cf ef       	ldi	r28, 0xFF	; 255
      e0:	d8 e0       	ldi	r29, 0x08	; 8
      e2:	de bf       	out	0x3e, r29	; 62
      e4:	cd bf       	out	0x3d, r28	; 61

000000e6 <__do_copy_data>:
      e6:	11 e0       	ldi	r17, 0x01	; 1
      e8:	a0 e0       	ldi	r26, 0x00	; 0
      ea:	b1 e0       	ldi	r27, 0x01	; 1
      ec:	e8 eb       	ldi	r30, 0xB8	; 184
      ee:	fa e6       	ldi	r31, 0x6A	; 106
      f0:	02 c0       	rjmp	.+4      	; 0xf6 <__do_copy_data+0x10>
      f2:	05 90       	lpm	r0, Z+
      f4:	0d 92       	st	X+, r0
      f6:	a8 3b       	cpi	r26, 0xB8	; 184
      f8:	b1 07       	cpc	r27, r17
      fa:	d9 f7       	brne	.-10     	; 0xf2 <__do_copy_data+0xc>

000000fc <__do_clear_bss>:
      fc:	14 e0       	ldi	r17, 0x04	; 4
      fe:	a8 eb       	ldi	r26, 0xB8	; 184
     100:	b1 e0       	ldi	r27, 0x01	; 1
     102:	01 c0       	rjmp	.+2      	; 0x106 <.do_clear_bss_start>

00000104 <.do_clear_bss_loop>:
     104:	1d 92       	st	X+, r1

00000106 <.do_clear_bss_start>:
     106:	a9 3f       	cpi	r26, 0xF9	; 249
     108:	b1 07       	cpc	r27, r17
     10a:	e1 f7       	brne	.-8      	; 0x104 <.do_clear_bss_loop>

0000010c <__do_global_ctors>:
     10c:	10 e0       	ldi	r17, 0x00	; 0
     10e:	ca ed       	ldi	r28, 0xDA	; 218
     110:	d0 e0       	ldi	r29, 0x00	; 0
     112:	04 c0       	rjmp	.+8      	; 0x11c <__do_global_ctors+0x10>
     114:	22 97       	sbiw	r28, 0x02	; 2
     116:	fe 01       	movw	r30, r28
     118:	0e 94 3a 31 	call	0x6274	; 0x6274 <__tablejump__>
     11c:	c2 3c       	cpi	r28, 0xC2	; 194
     11e:	d1 07       	cpc	r29, r17
     120:	c9 f7       	brne	.-14     	; 0x114 <__do_global_ctors+0x8>
     122:	0e 94 14 2f 	call	0x5e28	; 0x5e28 <main>
     126:	0c 94 5a 35 	jmp	0x6ab4	; 0x6ab4 <_exit>

0000012a <__bad_interrupt>:
     12a:	0c 94 00 00 	jmp	0	; 0x0 <__vectors>

0000012e <_Z11initSensorsPii>:
     12e:	fc 01       	movw	r30, r24
     130:	80 e0       	ldi	r24, 0x00	; 0
     132:	90 e0       	ldi	r25, 0x00	; 0
     134:	03 c0       	rjmp	.+6      	; 0x13c <_Z11initSensorsPii+0xe>
     136:	11 92       	st	Z+, r1
     138:	11 92       	st	Z+, r1
     13a:	01 96       	adiw	r24, 0x01	; 1
     13c:	86 17       	cp	r24, r22
     13e:	97 07       	cpc	r25, r23
     140:	d4 f3       	brlt	.-12     	; 0x136 <_Z11initSensorsPii+0x8>
     142:	08 95       	ret

00000144 <_Z12checkSensorsPiiS_>:
     144:	af 92       	push	r10
     146:	bf 92       	push	r11
     148:	cf 92       	push	r12
     14a:	df 92       	push	r13
     14c:	ef 92       	push	r14
     14e:	ff 92       	push	r15
     150:	0f 93       	push	r16
     152:	1f 93       	push	r17
     154:	cf 93       	push	r28
     156:	df 93       	push	r29
     158:	6b 01       	movw	r12, r22
     15a:	ea 01       	movw	r28, r20
     15c:	8c 01       	movw	r16, r24
     15e:	e1 2c       	mov	r14, r1
     160:	f1 2c       	mov	r15, r1
     162:	a1 2c       	mov	r10, r1
     164:	26 c0       	rjmp	.+76     	; 0x1b2 <_Z12checkSensorsPiiS_+0x6e>
     166:	f8 01       	movw	r30, r16
     168:	80 81       	ld	r24, Z
     16a:	0e 5f       	subi	r16, 0xFE	; 254
     16c:	1f 4f       	sbci	r17, 0xFF	; 255
     16e:	0e 94 60 19 	call	0x32c0	; 0x32c0 <digitalRead>
     172:	bb 24       	eor	r11, r11
     174:	b3 94       	inc	r11
     176:	89 2b       	or	r24, r25
     178:	09 f4       	brne	.+2      	; 0x17c <_Z12checkSensorsPiiS_+0x38>
     17a:	b1 2c       	mov	r11, r1
     17c:	28 81       	ld	r18, Y
     17e:	39 81       	ldd	r19, Y+1	; 0x01
     180:	22 30       	cpi	r18, 0x02	; 2
     182:	31 05       	cpc	r19, r1
     184:	81 f0       	breq	.+32     	; 0x1a6 <_Z12checkSensorsPiiS_+0x62>
     186:	bb 20       	and	r11, r11
     188:	19 f0       	breq	.+6      	; 0x190 <_Z12checkSensorsPiiS_+0x4c>
     18a:	23 2b       	or	r18, r19
     18c:	21 f0       	breq	.+8      	; 0x196 <_Z12checkSensorsPiiS_+0x52>
     18e:	0b c0       	rjmp	.+22     	; 0x1a6 <_Z12checkSensorsPiiS_+0x62>
     190:	21 30       	cpi	r18, 0x01	; 1
     192:	31 05       	cpc	r19, r1
     194:	41 f4       	brne	.+16     	; 0x1a6 <_Z12checkSensorsPiiS_+0x62>
     196:	60 e2       	ldi	r22, 0x20	; 32
     198:	71 e0       	ldi	r23, 0x01	; 1
     19a:	80 e2       	ldi	r24, 0x20	; 32
     19c:	94 e0       	ldi	r25, 0x04	; 4
     19e:	0e 94 9c 0d 	call	0x1b38	; 0x1b38 <_ZN5Print7printlnEPKc>
     1a2:	aa 24       	eor	r10, r10
     1a4:	a3 94       	inc	r10
     1a6:	b8 82       	st	Y, r11
     1a8:	19 82       	std	Y+1, r1	; 0x01
     1aa:	22 96       	adiw	r28, 0x02	; 2
     1ac:	ff ef       	ldi	r31, 0xFF	; 255
     1ae:	ef 1a       	sub	r14, r31
     1b0:	ff 0a       	sbc	r15, r31
     1b2:	ec 14       	cp	r14, r12
     1b4:	fd 04       	cpc	r15, r13
     1b6:	bc f2       	brlt	.-82     	; 0x166 <_Z12checkSensorsPiiS_+0x22>
     1b8:	8a 2d       	mov	r24, r10
     1ba:	df 91       	pop	r29
     1bc:	cf 91       	pop	r28
     1be:	1f 91       	pop	r17
     1c0:	0f 91       	pop	r16
     1c2:	ff 90       	pop	r15
     1c4:	ef 90       	pop	r14
     1c6:	df 90       	pop	r13
     1c8:	cf 90       	pop	r12
     1ca:	bf 90       	pop	r11
     1cc:	af 90       	pop	r10
     1ce:	08 95       	ret

000001d0 <_Z8beginTCPi>:
     1d0:	0f 93       	push	r16
     1d2:	1f 93       	push	r17
     1d4:	cf 93       	push	r28
     1d6:	df 93       	push	r29
     1d8:	8c 01       	movw	r16, r24
     1da:	86 e0       	ldi	r24, 0x06	; 6
     1dc:	90 e0       	ldi	r25, 0x00	; 0
     1de:	0e 94 c2 17 	call	0x2f84	; 0x2f84 <_Znwj>
     1e2:	ec 01       	movw	r28, r24
     1e4:	b8 01       	movw	r22, r16
     1e6:	0e 94 11 07 	call	0xe22	; 0xe22 <_ZN14EthernetServerC1Ej>
     1ea:	d0 93 bf 01 	sts	0x01BF, r29
     1ee:	c0 93 be 01 	sts	0x01BE, r28
     1f2:	df 91       	pop	r29
     1f4:	cf 91       	pop	r28
     1f6:	1f 91       	pop	r17
     1f8:	0f 91       	pop	r16
     1fa:	08 95       	ret

000001fc <_Z21verifyIncomingCommandv>:
     1fc:	cf 93       	push	r28
     1fe:	df 93       	push	r29
     200:	cd b7       	in	r28, 0x3d	; 61
     202:	de b7       	in	r29, 0x3e	; 62
     204:	2d 97       	sbiw	r28, 0x0d	; 13
     206:	0f b6       	in	r0, 0x3f	; 63
     208:	f8 94       	cli
     20a:	de bf       	out	0x3e, r29	; 62
     20c:	0f be       	out	0x3f, r0	; 63
     20e:	cd bf       	out	0x3d, r28	; 61
     210:	60 91 be 01 	lds	r22, 0x01BE
     214:	70 91 bf 01 	lds	r23, 0x01BF
     218:	ce 01       	movw	r24, r28
     21a:	01 96       	adiw	r24, 0x01	; 1
     21c:	0e 94 d6 07 	call	0xfac	; 0xfac <_ZN14EthernetServer9availableEv>
     220:	ce 01       	movw	r24, r28
     222:	01 96       	adiw	r24, 0x01	; 1
     224:	0e 94 dd 04 	call	0x9ba	; 0x9ba <_ZN14EthernetClientcvbEv>
     228:	88 23       	and	r24, r24
     22a:	81 f0       	breq	.+32     	; 0x24c <_Z21verifyIncomingCommandv+0x50>
     22c:	64 e3       	ldi	r22, 0x34	; 52
     22e:	71 e0       	ldi	r23, 0x01	; 1
     230:	80 e2       	ldi	r24, 0x20	; 32
     232:	94 e0       	ldi	r25, 0x04	; 4
     234:	0e 94 9c 0d 	call	0x1b38	; 0x1b38 <_ZN5Print7printlnEPKc>
     238:	61 e0       	ldi	r22, 0x01	; 1
     23a:	70 e0       	ldi	r23, 0x00	; 0
     23c:	80 e0       	ldi	r24, 0x00	; 0
     23e:	90 e0       	ldi	r25, 0x00	; 0
     240:	0e 94 5c 18 	call	0x30b8	; 0x30b8 <delay>
     244:	ce 01       	movw	r24, r28
     246:	01 96       	adiw	r24, 0x01	; 1
     248:	0e 94 07 06 	call	0xc0e	; 0xc0e <_ZN14EthernetClient4stopEv>
     24c:	2d 96       	adiw	r28, 0x0d	; 13
     24e:	0f b6       	in	r0, 0x3f	; 63
     250:	f8 94       	cli
     252:	de bf       	out	0x3e, r29	; 62
     254:	0f be       	out	0x3f, r0	; 63
     256:	cd bf       	out	0x3d, r28	; 61
     258:	df 91       	pop	r29
     25a:	cf 91       	pop	r28
     25c:	08 95       	ret

0000025e <_Z8beginUDPi>:
     25e:	bc 01       	movw	r22, r24
     260:	86 ec       	ldi	r24, 0xC6	; 198
     262:	91 e0       	ldi	r25, 0x01	; 1
     264:	0c 94 5f 09 	jmp	0x12be	; 0x12be <_ZN11EthernetUDP5beginEj>

00000268 <_Z10sendPacket9IPAddressiPc>:
     268:	0f 93       	push	r16
     26a:	1f 93       	push	r17
     26c:	cf 93       	push	r28
     26e:	df 93       	push	r29
     270:	00 d0       	rcall	.+0      	; 0x272 <_Z10sendPacket9IPAddressiPc+0xa>
     272:	00 d0       	rcall	.+0      	; 0x274 <_Z10sendPacket9IPAddressiPc+0xc>
     274:	00 d0       	rcall	.+0      	; 0x276 <_Z10sendPacket9IPAddressiPc+0xe>
     276:	cd b7       	in	r28, 0x3d	; 61
     278:	de b7       	in	r29, 0x3e	; 62
     27a:	8a 01       	movw	r16, r20
     27c:	ec ea       	ldi	r30, 0xAC	; 172
     27e:	f1 e0       	ldi	r31, 0x01	; 1
     280:	fa 83       	std	Y+2, r31	; 0x02
     282:	e9 83       	std	Y+1, r30	; 0x01
     284:	fc 01       	movw	r30, r24
     286:	82 81       	ldd	r24, Z+2	; 0x02
     288:	93 81       	ldd	r25, Z+3	; 0x03
     28a:	a4 81       	ldd	r26, Z+4	; 0x04
     28c:	b5 81       	ldd	r27, Z+5	; 0x05
     28e:	8b 83       	std	Y+3, r24	; 0x03
     290:	9c 83       	std	Y+4, r25	; 0x04
     292:	ad 83       	std	Y+5, r26	; 0x05
     294:	be 83       	std	Y+6, r27	; 0x06
     296:	ab 01       	movw	r20, r22
     298:	be 01       	movw	r22, r28
     29a:	6f 5f       	subi	r22, 0xFF	; 255
     29c:	7f 4f       	sbci	r23, 0xFF	; 255
     29e:	86 ec       	ldi	r24, 0xC6	; 198
     2a0:	91 e0       	ldi	r25, 0x01	; 1
     2a2:	0e 94 f3 08 	call	0x11e6	; 0x11e6 <_ZN11EthernetUDP11beginPacketE9IPAddressj>
     2a6:	d8 01       	movw	r26, r16
     2a8:	0d 90       	ld	r0, X+
     2aa:	00 20       	and	r0, r0
     2ac:	e9 f7       	brne	.-6      	; 0x2a8 <_Z10sendPacket9IPAddressiPc+0x40>
     2ae:	ad 01       	movw	r20, r26
     2b0:	41 50       	subi	r20, 0x01	; 1
     2b2:	51 09       	sbc	r21, r1
     2b4:	40 1b       	sub	r20, r16
     2b6:	51 0b       	sbc	r21, r17
     2b8:	e0 91 c6 01 	lds	r30, 0x01C6
     2bc:	f0 91 c7 01 	lds	r31, 0x01C7
     2c0:	02 80       	ldd	r0, Z+2	; 0x02
     2c2:	f3 81       	ldd	r31, Z+3	; 0x03
     2c4:	e0 2d       	mov	r30, r0
     2c6:	b8 01       	movw	r22, r16
     2c8:	86 ec       	ldi	r24, 0xC6	; 198
     2ca:	91 e0       	ldi	r25, 0x01	; 1
     2cc:	09 95       	icall
     2ce:	86 ec       	ldi	r24, 0xC6	; 198
     2d0:	91 e0       	ldi	r25, 0x01	; 1
     2d2:	0e 94 ef 08 	call	0x11de	; 0x11de <_ZN11EthernetUDP9endPacketEv>
     2d6:	26 96       	adiw	r28, 0x06	; 6
     2d8:	0f b6       	in	r0, 0x3f	; 63
     2da:	f8 94       	cli
     2dc:	de bf       	out	0x3e, r29	; 62
     2de:	0f be       	out	0x3f, r0	; 63
     2e0:	cd bf       	out	0x3d, r28	; 61
     2e2:	df 91       	pop	r29
     2e4:	cf 91       	pop	r28
     2e6:	1f 91       	pop	r17
     2e8:	0f 91       	pop	r16
     2ea:	08 95       	ret

000002ec <_Z19preparePacketToSendPcPii>:
     2ec:	24 2f       	mov	r18, r20
     2ee:	20 5d       	subi	r18, 0xD0	; 208
     2f0:	dc 01       	movw	r26, r24
     2f2:	2d 93       	st	X+, r18
     2f4:	fb 01       	movw	r30, r22
     2f6:	80 e0       	ldi	r24, 0x00	; 0
     2f8:	90 e0       	ldi	r25, 0x00	; 0
     2fa:	05 c0       	rjmp	.+10     	; 0x306 <_Z19preparePacketToSendPcPii+0x1a>
     2fc:	20 81       	ld	r18, Z
     2fe:	32 96       	adiw	r30, 0x02	; 2
     300:	20 5d       	subi	r18, 0xD0	; 208
     302:	2d 93       	st	X+, r18
     304:	01 96       	adiw	r24, 0x01	; 1
     306:	84 17       	cp	r24, r20
     308:	95 07       	cpc	r25, r21
     30a:	c4 f3       	brlt	.-16     	; 0x2fc <_Z19preparePacketToSendPcPii+0x10>
     30c:	08 95       	ret

0000030e <setup>:
     30e:	cf 93       	push	r28
     310:	df 93       	push	r29
     312:	00 d0       	rcall	.+0      	; 0x314 <setup+0x6>
     314:	00 d0       	rcall	.+0      	; 0x316 <setup+0x8>
     316:	00 d0       	rcall	.+0      	; 0x318 <setup+0xa>
     318:	cd b7       	in	r28, 0x3d	; 61
     31a:	de b7       	in	r29, 0x3e	; 62
     31c:	40 e8       	ldi	r20, 0x80	; 128
     31e:	55 e2       	ldi	r21, 0x25	; 37
     320:	60 e0       	ldi	r22, 0x00	; 0
     322:	70 e0       	ldi	r23, 0x00	; 0
     324:	80 e2       	ldi	r24, 0x20	; 32
     326:	94 e0       	ldi	r25, 0x04	; 4
     328:	0e 94 68 0b 	call	0x16d0	; 0x16d0 <_ZN14HardwareSerial5beginEm>
     32c:	6f e3       	ldi	r22, 0x3F	; 63
     32e:	71 e0       	ldi	r23, 0x01	; 1
     330:	80 e2       	ldi	r24, 0x20	; 32
     332:	94 e0       	ldi	r25, 0x04	; 4
     334:	0e 94 9c 0d 	call	0x1b38	; 0x1b38 <_ZN5Print7printlnEPKc>
     338:	60 e0       	ldi	r22, 0x00	; 0
     33a:	80 91 00 01 	lds	r24, 0x0100
     33e:	0e 94 f1 18 	call	0x31e2	; 0x31e2 <pinMode>
     342:	60 e0       	ldi	r22, 0x00	; 0
     344:	80 91 02 01 	lds	r24, 0x0102
     348:	0e 94 f1 18 	call	0x31e2	; 0x31e2 <pinMode>
     34c:	60 e0       	ldi	r22, 0x00	; 0
     34e:	80 91 04 01 	lds	r24, 0x0104
     352:	0e 94 f1 18 	call	0x31e2	; 0x31e2 <pinMode>
     356:	8c ea       	ldi	r24, 0xAC	; 172
     358:	91 e0       	ldi	r25, 0x01	; 1
     35a:	9a 83       	std	Y+2, r25	; 0x02
     35c:	89 83       	std	Y+1, r24	; 0x01
     35e:	80 91 ea 03 	lds	r24, 0x03EA
     362:	90 91 eb 03 	lds	r25, 0x03EB
     366:	a0 91 ec 03 	lds	r26, 0x03EC
     36a:	b0 91 ed 03 	lds	r27, 0x03ED
     36e:	8b 83       	std	Y+3, r24	; 0x03
     370:	9c 83       	std	Y+4, r25	; 0x04
     372:	ad 83       	std	Y+5, r26	; 0x05
     374:	be 83       	std	Y+6, r27	; 0x06
     376:	ae 01       	movw	r20, r28
     378:	4f 5f       	subi	r20, 0xFF	; 255
     37a:	5f 4f       	sbci	r21, 0xFF	; 255
     37c:	66 e0       	ldi	r22, 0x06	; 6
     37e:	71 e0       	ldi	r23, 0x01	; 1
     380:	84 ef       	ldi	r24, 0xF4	; 244
     382:	93 e0       	ldi	r25, 0x03	; 3
     384:	0e 94 cc 03 	call	0x798	; 0x798 <_ZN13EthernetClass5beginEPh9IPAddress>
     388:	68 ee       	ldi	r22, 0xE8	; 232
     38a:	73 e0       	ldi	r23, 0x03	; 3
     38c:	80 e0       	ldi	r24, 0x00	; 0
     38e:	90 e0       	ldi	r25, 0x00	; 0
     390:	0e 94 5c 18 	call	0x30b8	; 0x30b8 <delay>
     394:	82 ed       	ldi	r24, 0xD2	; 210
     396:	97 e0       	ldi	r25, 0x07	; 7
     398:	0e 94 2f 01 	call	0x25e	; 0x25e <_Z8beginUDPi>
     39c:	81 ed       	ldi	r24, 0xD1	; 209
     39e:	97 e0       	ldi	r25, 0x07	; 7
     3a0:	0e 94 e8 00 	call	0x1d0	; 0x1d0 <_Z8beginTCPi>
     3a4:	26 96       	adiw	r28, 0x06	; 6
     3a6:	0f b6       	in	r0, 0x3f	; 63
     3a8:	f8 94       	cli
     3aa:	de bf       	out	0x3e, r29	; 62
     3ac:	0f be       	out	0x3f, r0	; 63
     3ae:	cd bf       	out	0x3d, r28	; 61
     3b0:	df 91       	pop	r29
     3b2:	cf 91       	pop	r28
     3b4:	08 95       	ret

000003b6 <loop>:
     3b6:	0f 93       	push	r16
     3b8:	cf 93       	push	r28
     3ba:	df 93       	push	r29
     3bc:	cd b7       	in	r28, 0x3d	; 61
     3be:	de b7       	in	r29, 0x3e	; 62
     3c0:	c6 50       	subi	r28, 0x06	; 6
     3c2:	d1 40       	sbci	r29, 0x01	; 1
     3c4:	0f b6       	in	r0, 0x3f	; 63
     3c6:	f8 94       	cli
     3c8:	de bf       	out	0x3e, r29	; 62
     3ca:	0f be       	out	0x3f, r0	; 63
     3cc:	cd bf       	out	0x3d, r28	; 61
     3ce:	0e 94 fe 00 	call	0x1fc	; 0x1fc <_Z21verifyIncomingCommandv>
     3d2:	47 ee       	ldi	r20, 0xE7	; 231
     3d4:	51 e0       	ldi	r21, 0x01	; 1
     3d6:	63 e0       	ldi	r22, 0x03	; 3
     3d8:	70 e0       	ldi	r23, 0x00	; 0
     3da:	80 e0       	ldi	r24, 0x00	; 0
     3dc:	91 e0       	ldi	r25, 0x01	; 1
     3de:	0e 94 a2 00 	call	0x144	; 0x144 <_Z12checkSensorsPiiS_>
     3e2:	80 93 e7 03 	sts	0x03E7, r24
     3e6:	88 23       	and	r24, r24
     3e8:	e9 f0       	breq	.+58     	; 0x424 <loop+0x6e>
     3ea:	43 e0       	ldi	r20, 0x03	; 3
     3ec:	50 e0       	ldi	r21, 0x00	; 0
     3ee:	67 ee       	ldi	r22, 0xE7	; 231
     3f0:	71 e0       	ldi	r23, 0x01	; 1
     3f2:	ce 01       	movw	r24, r28
     3f4:	01 96       	adiw	r24, 0x01	; 1
     3f6:	0e 94 76 01 	call	0x2ec	; 0x2ec <_Z19preparePacketToSendPcPii>
     3fa:	0a e0       	ldi	r16, 0x0A	; 10
     3fc:	21 e0       	ldi	r18, 0x01	; 1
     3fe:	48 ea       	ldi	r20, 0xA8	; 168
     400:	60 ec       	ldi	r22, 0xC0	; 192
     402:	ce 01       	movw	r24, r28
     404:	8f 5f       	subi	r24, 0xFF	; 255
     406:	9e 4f       	sbci	r25, 0xFE	; 254
     408:	0e 94 86 0c 	call	0x190c	; 0x190c <_ZN9IPAddressC1Ehhhh>
     40c:	ae 01       	movw	r20, r28
     40e:	4f 5f       	subi	r20, 0xFF	; 255
     410:	5f 4f       	sbci	r21, 0xFF	; 255
     412:	62 ed       	ldi	r22, 0xD2	; 210
     414:	77 e0       	ldi	r23, 0x07	; 7
     416:	ce 01       	movw	r24, r28
     418:	8f 5f       	subi	r24, 0xFF	; 255
     41a:	9e 4f       	sbci	r25, 0xFE	; 254
     41c:	0e 94 34 01 	call	0x268	; 0x268 <_Z10sendPacket9IPAddressiPc>
     420:	10 92 e7 03 	sts	0x03E7, r1
     424:	ca 5f       	subi	r28, 0xFA	; 250
     426:	de 4f       	sbci	r29, 0xFE	; 254
     428:	0f b6       	in	r0, 0x3f	; 63
     42a:	f8 94       	cli
     42c:	de bf       	out	0x3e, r29	; 62
     42e:	0f be       	out	0x3f, r0	; 63
     430:	cd bf       	out	0x3d, r28	; 61
     432:	df 91       	pop	r29
     434:	cf 91       	pop	r28
     436:	0f 91       	pop	r16
     438:	08 95       	ret

0000043a <_ZN13EthernetClass5beginEPh>:
     43a:	af 92       	push	r10
     43c:	bf 92       	push	r11
     43e:	cf 92       	push	r12
     440:	df 92       	push	r13
     442:	ef 92       	push	r14
     444:	ff 92       	push	r15
     446:	0f 93       	push	r16
     448:	1f 93       	push	r17
     44a:	cf 93       	push	r28
     44c:	df 93       	push	r29
     44e:	cd b7       	in	r28, 0x3d	; 61
     450:	de b7       	in	r29, 0x3e	; 62
     452:	6e 97       	sbiw	r28, 0x1e	; 30
     454:	0f b6       	in	r0, 0x3f	; 63
     456:	f8 94       	cli
     458:	de bf       	out	0x3e, r29	; 62
     45a:	0f be       	out	0x3f, r0	; 63
     45c:	cd bf       	out	0x3d, r28	; 61
     45e:	6c 01       	movw	r12, r24
     460:	5b 01       	movw	r10, r22
     462:	82 e6       	ldi	r24, 0x62	; 98
     464:	90 e0       	ldi	r25, 0x00	; 0
     466:	0e 94 c2 17 	call	0x2f84	; 0x2f84 <_Znwj>
     46a:	8c 01       	movw	r16, r24
     46c:	82 e6       	ldi	r24, 0x62	; 98
     46e:	f8 01       	movw	r30, r16
     470:	11 92       	st	Z+, r1
     472:	8a 95       	dec	r24
     474:	e9 f7       	brne	.-6      	; 0x470 <_ZN13EthernetClass5beginEPh+0x36>
     476:	c8 01       	movw	r24, r16
     478:	89 5b       	subi	r24, 0xB9	; 185
     47a:	9f 4f       	sbci	r25, 0xFF	; 255
     47c:	0e 94 99 09 	call	0x1332	; 0x1332 <_ZN11EthernetUDPC1Ev>
     480:	f6 01       	movw	r30, r12
     482:	17 83       	std	Z+7, r17	; 0x07
     484:	06 83       	std	Z+6, r16	; 0x06
     486:	89 ed       	ldi	r24, 0xD9	; 217
     488:	94 e0       	ldi	r25, 0x04	; 4
     48a:	0e 94 b3 1c 	call	0x3966	; 0x3966 <_ZN10W5100Class4initEv>
     48e:	46 e0       	ldi	r20, 0x06	; 6
     490:	50 e0       	ldi	r21, 0x00	; 0
     492:	b5 01       	movw	r22, r10
     494:	89 e0       	ldi	r24, 0x09	; 9
     496:	90 e0       	ldi	r25, 0x00	; 0
     498:	0e 94 f1 1c 	call	0x39e2	; 0x39e2 <_ZN10W5100Class5writeEjPKhj>
     49c:	00 e0       	ldi	r16, 0x00	; 0
     49e:	20 e0       	ldi	r18, 0x00	; 0
     4a0:	40 e0       	ldi	r20, 0x00	; 0
     4a2:	60 e0       	ldi	r22, 0x00	; 0
     4a4:	ce 01       	movw	r24, r28
     4a6:	49 96       	adiw	r24, 0x19	; 25
     4a8:	0e 94 86 0c 	call	0x190c	; 0x190c <_ZN9IPAddressC1Ehhhh>
     4ac:	ce 01       	movw	r24, r28
     4ae:	4b 96       	adiw	r24, 0x1b	; 27
     4b0:	0e 94 42 2f 	call	0x5e84	; 0x5e84 <_ZN10W5100Class9writeSIPREPh>
     4b4:	10 ea       	ldi	r17, 0xA0	; 160
     4b6:	e1 2e       	mov	r14, r17
     4b8:	1f e0       	ldi	r17, 0x0F	; 15
     4ba:	f1 2e       	mov	r15, r17
     4bc:	00 e0       	ldi	r16, 0x00	; 0
     4be:	10 e0       	ldi	r17, 0x00	; 0
     4c0:	20 e6       	ldi	r18, 0x60	; 96
     4c2:	3a ee       	ldi	r19, 0xEA	; 234
     4c4:	40 e0       	ldi	r20, 0x00	; 0
     4c6:	50 e0       	ldi	r21, 0x00	; 0
     4c8:	b5 01       	movw	r22, r10
     4ca:	f6 01       	movw	r30, r12
     4cc:	86 81       	ldd	r24, Z+6	; 0x06
     4ce:	97 81       	ldd	r25, Z+7	; 0x07
     4d0:	0e 94 5c 24 	call	0x48b8	; 0x48b8 <_ZN9DhcpClass13beginWithDHCPEPhmm>
     4d4:	8c 01       	movw	r16, r24
     4d6:	81 30       	cpi	r24, 0x01	; 1
     4d8:	91 05       	cpc	r25, r1
     4da:	89 f5       	brne	.+98     	; 0x53e <_ZN13EthernetClass5beginEPh+0x104>
     4dc:	f6 01       	movw	r30, r12
     4de:	66 81       	ldd	r22, Z+6	; 0x06
     4e0:	77 81       	ldd	r23, Z+7	; 0x07
     4e2:	ce 01       	movw	r24, r28
     4e4:	43 96       	adiw	r24, 0x13	; 19
     4e6:	0e 94 9c 20 	call	0x4138	; 0x4138 <_ZN9DhcpClass10getLocalIpEv>
     4ea:	ce 01       	movw	r24, r28
     4ec:	45 96       	adiw	r24, 0x15	; 21
     4ee:	0e 94 42 2f 	call	0x5e84	; 0x5e84 <_ZN10W5100Class9writeSIPREPh>
     4f2:	f6 01       	movw	r30, r12
     4f4:	66 81       	ldd	r22, Z+6	; 0x06
     4f6:	77 81       	ldd	r23, Z+7	; 0x07
     4f8:	ce 01       	movw	r24, r28
     4fa:	0d 96       	adiw	r24, 0x0d	; 13
     4fc:	0e 94 b2 20 	call	0x4164	; 0x4164 <_ZN9DhcpClass12getGatewayIpEv>
     500:	ce 01       	movw	r24, r28
     502:	0f 96       	adiw	r24, 0x0f	; 15
     504:	0e 94 34 2f 	call	0x5e68	; 0x5e68 <_ZN10W5100Class8writeGAREPh>
     508:	f6 01       	movw	r30, r12
     50a:	66 81       	ldd	r22, Z+6	; 0x06
     50c:	77 81       	ldd	r23, Z+7	; 0x07
     50e:	ce 01       	movw	r24, r28
     510:	07 96       	adiw	r24, 0x07	; 7
     512:	0e 94 a7 20 	call	0x414e	; 0x414e <_ZN9DhcpClass13getSubnetMaskEv>
     516:	ce 01       	movw	r24, r28
     518:	09 96       	adiw	r24, 0x09	; 9
     51a:	0e 94 3b 2f 	call	0x5e76	; 0x5e76 <_ZN10W5100Class9writeSUBREPh>
     51e:	f6 01       	movw	r30, r12
     520:	66 81       	ldd	r22, Z+6	; 0x06
     522:	77 81       	ldd	r23, Z+7	; 0x07
     524:	ce 01       	movw	r24, r28
     526:	01 96       	adiw	r24, 0x01	; 1
     528:	0e 94 c8 20 	call	0x4190	; 0x4190 <_ZN9DhcpClass14getDnsServerIpEv>
     52c:	4b 81       	ldd	r20, Y+3	; 0x03
     52e:	5c 81       	ldd	r21, Y+4	; 0x04
     530:	6d 81       	ldd	r22, Y+5	; 0x05
     532:	7e 81       	ldd	r23, Y+6	; 0x06
     534:	f6 01       	movw	r30, r12
     536:	42 83       	std	Z+2, r20	; 0x02
     538:	53 83       	std	Z+3, r21	; 0x03
     53a:	64 83       	std	Z+4, r22	; 0x04
     53c:	75 83       	std	Z+5, r23	; 0x05
     53e:	c8 01       	movw	r24, r16
     540:	6e 96       	adiw	r28, 0x1e	; 30
     542:	0f b6       	in	r0, 0x3f	; 63
     544:	f8 94       	cli
     546:	de bf       	out	0x3e, r29	; 62
     548:	0f be       	out	0x3f, r0	; 63
     54a:	cd bf       	out	0x3d, r28	; 61
     54c:	df 91       	pop	r29
     54e:	cf 91       	pop	r28
     550:	1f 91       	pop	r17
     552:	0f 91       	pop	r16
     554:	ff 90       	pop	r15
     556:	ef 90       	pop	r14
     558:	df 90       	pop	r13
     55a:	cf 90       	pop	r12
     55c:	bf 90       	pop	r11
     55e:	af 90       	pop	r10
     560:	08 95       	ret

00000562 <_ZN13EthernetClass5beginEPh9IPAddressS1_S1_S1_>:
     562:	8f 92       	push	r8
     564:	9f 92       	push	r9
     566:	af 92       	push	r10
     568:	bf 92       	push	r11
     56a:	cf 92       	push	r12
     56c:	df 92       	push	r13
     56e:	ef 92       	push	r14
     570:	ff 92       	push	r15
     572:	0f 93       	push	r16
     574:	1f 93       	push	r17
     576:	cf 93       	push	r28
     578:	df 93       	push	r29
     57a:	00 d0       	rcall	.+0      	; 0x57c <_ZN13EthernetClass5beginEPh9IPAddressS1_S1_S1_+0x1a>
     57c:	cd b7       	in	r28, 0x3d	; 61
     57e:	de b7       	in	r29, 0x3e	; 62
     580:	4c 01       	movw	r8, r24
     582:	6a 01       	movw	r12, r20
     584:	59 01       	movw	r10, r18
     586:	89 ed       	ldi	r24, 0xD9	; 217
     588:	94 e0       	ldi	r25, 0x04	; 4
     58a:	69 83       	std	Y+1, r22	; 0x01
     58c:	7a 83       	std	Y+2, r23	; 0x02
     58e:	0e 94 b3 1c 	call	0x3966	; 0x3966 <_ZN10W5100Class4initEv>
     592:	46 e0       	ldi	r20, 0x06	; 6
     594:	50 e0       	ldi	r21, 0x00	; 0
     596:	69 81       	ldd	r22, Y+1	; 0x01
     598:	7a 81       	ldd	r23, Y+2	; 0x02
     59a:	89 e0       	ldi	r24, 0x09	; 9
     59c:	90 e0       	ldi	r25, 0x00	; 0
     59e:	0e 94 f1 1c 	call	0x39e2	; 0x39e2 <_ZN10W5100Class5writeEjPKhj>
     5a2:	c6 01       	movw	r24, r12
     5a4:	02 96       	adiw	r24, 0x02	; 2
     5a6:	0e 94 42 2f 	call	0x5e84	; 0x5e84 <_ZN10W5100Class9writeSIPREPh>
     5aa:	c8 01       	movw	r24, r16
     5ac:	02 96       	adiw	r24, 0x02	; 2
     5ae:	0e 94 34 2f 	call	0x5e68	; 0x5e68 <_ZN10W5100Class8writeGAREPh>
     5b2:	c7 01       	movw	r24, r14
     5b4:	02 96       	adiw	r24, 0x02	; 2
     5b6:	0e 94 3b 2f 	call	0x5e76	; 0x5e76 <_ZN10W5100Class9writeSUBREPh>
     5ba:	f5 01       	movw	r30, r10
     5bc:	42 81       	ldd	r20, Z+2	; 0x02
     5be:	53 81       	ldd	r21, Z+3	; 0x03
     5c0:	64 81       	ldd	r22, Z+4	; 0x04
     5c2:	75 81       	ldd	r23, Z+5	; 0x05
     5c4:	f4 01       	movw	r30, r8
     5c6:	42 83       	std	Z+2, r20	; 0x02
     5c8:	53 83       	std	Z+3, r21	; 0x03
     5ca:	64 83       	std	Z+4, r22	; 0x04
     5cc:	75 83       	std	Z+5, r23	; 0x05
     5ce:	0f 90       	pop	r0
     5d0:	0f 90       	pop	r0
     5d2:	df 91       	pop	r29
     5d4:	cf 91       	pop	r28
     5d6:	1f 91       	pop	r17
     5d8:	0f 91       	pop	r16
     5da:	ff 90       	pop	r15
     5dc:	ef 90       	pop	r14
     5de:	df 90       	pop	r13
     5e0:	cf 90       	pop	r12
     5e2:	bf 90       	pop	r11
     5e4:	af 90       	pop	r10
     5e6:	9f 90       	pop	r9
     5e8:	8f 90       	pop	r8
     5ea:	08 95       	ret

000005ec <_ZN13EthernetClass5beginEPh9IPAddressS1_S1_>:
     5ec:	2f 92       	push	r2
     5ee:	3f 92       	push	r3
     5f0:	4f 92       	push	r4
     5f2:	5f 92       	push	r5
     5f4:	6f 92       	push	r6
     5f6:	7f 92       	push	r7
     5f8:	8f 92       	push	r8
     5fa:	9f 92       	push	r9
     5fc:	af 92       	push	r10
     5fe:	bf 92       	push	r11
     600:	cf 92       	push	r12
     602:	df 92       	push	r13
     604:	ef 92       	push	r14
     606:	ff 92       	push	r15
     608:	0f 93       	push	r16
     60a:	1f 93       	push	r17
     60c:	cf 93       	push	r28
     60e:	df 93       	push	r29
     610:	cd b7       	in	r28, 0x3d	; 61
     612:	de b7       	in	r29, 0x3e	; 62
     614:	6e 97       	sbiw	r28, 0x1e	; 30
     616:	0f b6       	in	r0, 0x3f	; 63
     618:	f8 94       	cli
     61a:	de bf       	out	0x3e, r29	; 62
     61c:	0f be       	out	0x3f, r0	; 63
     61e:	cd bf       	out	0x3d, r28	; 61
     620:	5c 01       	movw	r10, r24
     622:	4b 01       	movw	r8, r22
     624:	3a 01       	movw	r6, r20
     626:	29 01       	movw	r4, r18
     628:	18 01       	movw	r2, r16
     62a:	00 e0       	ldi	r16, 0x00	; 0
     62c:	2f ef       	ldi	r18, 0xFF	; 255
     62e:	4f ef       	ldi	r20, 0xFF	; 255
     630:	6f ef       	ldi	r22, 0xFF	; 255
     632:	ce 01       	movw	r24, r28
     634:	49 96       	adiw	r24, 0x19	; 25
     636:	0e 94 86 0c 	call	0x190c	; 0x190c <_ZN9IPAddressC1Ehhhh>
     63a:	8c ea       	ldi	r24, 0xAC	; 172
     63c:	91 e0       	ldi	r25, 0x01	; 1
     63e:	9a 83       	std	Y+2, r25	; 0x02
     640:	89 83       	std	Y+1, r24	; 0x01
     642:	cb 8c       	ldd	r12, Y+27	; 0x1b
     644:	dc 8c       	ldd	r13, Y+28	; 0x1c
     646:	ed 8c       	ldd	r14, Y+29	; 0x1d
     648:	fe 8c       	ldd	r15, Y+30	; 0x1e
     64a:	cb 82       	std	Y+3, r12	; 0x03
     64c:	dc 82       	std	Y+4, r13	; 0x04
     64e:	ed 82       	std	Y+5, r14	; 0x05
     650:	fe 82       	std	Y+6, r15	; 0x06
     652:	98 87       	std	Y+8, r25	; 0x08
     654:	8f 83       	std	Y+7, r24	; 0x07
     656:	f1 01       	movw	r30, r2
     658:	02 81       	ldd	r16, Z+2	; 0x02
     65a:	13 81       	ldd	r17, Z+3	; 0x03
     65c:	24 81       	ldd	r18, Z+4	; 0x04
     65e:	35 81       	ldd	r19, Z+5	; 0x05
     660:	09 87       	std	Y+9, r16	; 0x09
     662:	1a 87       	std	Y+10, r17	; 0x0a
     664:	2b 87       	std	Y+11, r18	; 0x0b
     666:	3c 87       	std	Y+12, r19	; 0x0c
     668:	9e 87       	std	Y+14, r25	; 0x0e
     66a:	8d 87       	std	Y+13, r24	; 0x0d
     66c:	f2 01       	movw	r30, r4
     66e:	02 81       	ldd	r16, Z+2	; 0x02
     670:	13 81       	ldd	r17, Z+3	; 0x03
     672:	24 81       	ldd	r18, Z+4	; 0x04
     674:	35 81       	ldd	r19, Z+5	; 0x05
     676:	0f 87       	std	Y+15, r16	; 0x0f
     678:	18 8b       	std	Y+16, r17	; 0x10
     67a:	29 8b       	std	Y+17, r18	; 0x11
     67c:	3a 8b       	std	Y+18, r19	; 0x12
     67e:	9c 8b       	std	Y+20, r25	; 0x14
     680:	8b 8b       	std	Y+19, r24	; 0x13
     682:	f3 01       	movw	r30, r6
     684:	42 81       	ldd	r20, Z+2	; 0x02
     686:	53 81       	ldd	r21, Z+3	; 0x03
     688:	64 81       	ldd	r22, Z+4	; 0x04
     68a:	75 81       	ldd	r23, Z+5	; 0x05
     68c:	4d 8b       	std	Y+21, r20	; 0x15
     68e:	5e 8b       	std	Y+22, r21	; 0x16
     690:	6f 8b       	std	Y+23, r22	; 0x17
     692:	78 8f       	std	Y+24, r23	; 0x18
     694:	ee 24       	eor	r14, r14
     696:	e3 94       	inc	r14
     698:	f1 2c       	mov	r15, r1
     69a:	ec 0e       	add	r14, r28
     69c:	fd 1e       	adc	r15, r29
     69e:	8e 01       	movw	r16, r28
     6a0:	09 5f       	subi	r16, 0xF9	; 249
     6a2:	1f 4f       	sbci	r17, 0xFF	; 255
     6a4:	9e 01       	movw	r18, r28
     6a6:	23 5f       	subi	r18, 0xF3	; 243
     6a8:	3f 4f       	sbci	r19, 0xFF	; 255
     6aa:	ae 01       	movw	r20, r28
     6ac:	4d 5e       	subi	r20, 0xED	; 237
     6ae:	5f 4f       	sbci	r21, 0xFF	; 255
     6b0:	b4 01       	movw	r22, r8
     6b2:	c5 01       	movw	r24, r10
     6b4:	0e 94 b1 02 	call	0x562	; 0x562 <_ZN13EthernetClass5beginEPh9IPAddressS1_S1_S1_>
     6b8:	6e 96       	adiw	r28, 0x1e	; 30
     6ba:	0f b6       	in	r0, 0x3f	; 63
     6bc:	f8 94       	cli
     6be:	de bf       	out	0x3e, r29	; 62
     6c0:	0f be       	out	0x3f, r0	; 63
     6c2:	cd bf       	out	0x3d, r28	; 61
     6c4:	df 91       	pop	r29
     6c6:	cf 91       	pop	r28
     6c8:	1f 91       	pop	r17
     6ca:	0f 91       	pop	r16
     6cc:	ff 90       	pop	r15
     6ce:	ef 90       	pop	r14
     6d0:	df 90       	pop	r13
     6d2:	cf 90       	pop	r12
     6d4:	bf 90       	pop	r11
     6d6:	af 90       	pop	r10
     6d8:	9f 90       	pop	r9
     6da:	8f 90       	pop	r8
     6dc:	7f 90       	pop	r7
     6de:	6f 90       	pop	r6
     6e0:	5f 90       	pop	r5
     6e2:	4f 90       	pop	r4
     6e4:	3f 90       	pop	r3
     6e6:	2f 90       	pop	r2
     6e8:	08 95       	ret

000006ea <_ZN13EthernetClass5beginEPh9IPAddressS1_>:
     6ea:	cf 92       	push	r12
     6ec:	df 92       	push	r13
     6ee:	ef 92       	push	r14
     6f0:	ff 92       	push	r15
     6f2:	0f 93       	push	r16
     6f4:	1f 93       	push	r17
     6f6:	cf 93       	push	r28
     6f8:	df 93       	push	r29
     6fa:	cd b7       	in	r28, 0x3d	; 61
     6fc:	de b7       	in	r29, 0x3e	; 62
     6fe:	68 97       	sbiw	r28, 0x18	; 24
     700:	0f b6       	in	r0, 0x3f	; 63
     702:	f8 94       	cli
     704:	de bf       	out	0x3e, r29	; 62
     706:	0f be       	out	0x3f, r0	; 63
     708:	cd bf       	out	0x3d, r28	; 61
     70a:	db 01       	movw	r26, r22
     70c:	79 01       	movw	r14, r18
     70e:	fa 01       	movw	r30, r20
     710:	42 81       	ldd	r20, Z+2	; 0x02
     712:	53 81       	ldd	r21, Z+3	; 0x03
     714:	64 81       	ldd	r22, Z+4	; 0x04
     716:	75 81       	ldd	r23, Z+5	; 0x05
     718:	4d 8b       	std	Y+21, r20	; 0x15
     71a:	5e 8b       	std	Y+22, r21	; 0x16
     71c:	6f 8b       	std	Y+23, r22	; 0x17
     71e:	78 8f       	std	Y+24, r23	; 0x18
     720:	2c ea       	ldi	r18, 0xAC	; 172
     722:	c2 2e       	mov	r12, r18
     724:	21 e0       	ldi	r18, 0x01	; 1
     726:	d2 2e       	mov	r13, r18
     728:	da 82       	std	Y+2, r13	; 0x02
     72a:	c9 82       	std	Y+1, r12	; 0x01
     72c:	21 e0       	ldi	r18, 0x01	; 1
     72e:	28 8f       	std	Y+24, r18	; 0x18
     730:	0d 89       	ldd	r16, Y+21	; 0x15
     732:	1e 89       	ldd	r17, Y+22	; 0x16
     734:	2f 89       	ldd	r18, Y+23	; 0x17
     736:	38 8d       	ldd	r19, Y+24	; 0x18
     738:	0b 83       	std	Y+3, r16	; 0x03
     73a:	1c 83       	std	Y+4, r17	; 0x04
     73c:	2d 83       	std	Y+5, r18	; 0x05
     73e:	3e 83       	std	Y+6, r19	; 0x06
     740:	d8 86       	std	Y+8, r13	; 0x08
     742:	cf 82       	std	Y+7, r12	; 0x07
     744:	f7 01       	movw	r30, r14
     746:	02 81       	ldd	r16, Z+2	; 0x02
     748:	13 81       	ldd	r17, Z+3	; 0x03
     74a:	24 81       	ldd	r18, Z+4	; 0x04
     74c:	35 81       	ldd	r19, Z+5	; 0x05
     74e:	09 87       	std	Y+9, r16	; 0x09
     750:	1a 87       	std	Y+10, r17	; 0x0a
     752:	2b 87       	std	Y+11, r18	; 0x0b
     754:	3c 87       	std	Y+12, r19	; 0x0c
     756:	de 86       	std	Y+14, r13	; 0x0e
     758:	cd 86       	std	Y+13, r12	; 0x0d
     75a:	4f 87       	std	Y+15, r20	; 0x0f
     75c:	58 8b       	std	Y+16, r21	; 0x10
     75e:	69 8b       	std	Y+17, r22	; 0x11
     760:	7a 8b       	std	Y+18, r23	; 0x12
     762:	8e 01       	movw	r16, r28
     764:	0f 5f       	subi	r16, 0xFF	; 255
     766:	1f 4f       	sbci	r17, 0xFF	; 255
     768:	9e 01       	movw	r18, r28
     76a:	29 5f       	subi	r18, 0xF9	; 249
     76c:	3f 4f       	sbci	r19, 0xFF	; 255
     76e:	ae 01       	movw	r20, r28
     770:	43 5f       	subi	r20, 0xF3	; 243
     772:	5f 4f       	sbci	r21, 0xFF	; 255
     774:	bd 01       	movw	r22, r26
     776:	0e 94 f6 02 	call	0x5ec	; 0x5ec <_ZN13EthernetClass5beginEPh9IPAddressS1_S1_>
     77a:	68 96       	adiw	r28, 0x18	; 24
     77c:	0f b6       	in	r0, 0x3f	; 63
     77e:	f8 94       	cli
     780:	de bf       	out	0x3e, r29	; 62
     782:	0f be       	out	0x3f, r0	; 63
     784:	cd bf       	out	0x3d, r28	; 61
     786:	df 91       	pop	r29
     788:	cf 91       	pop	r28
     78a:	1f 91       	pop	r17
     78c:	0f 91       	pop	r16
     78e:	ff 90       	pop	r15
     790:	ef 90       	pop	r14
     792:	df 90       	pop	r13
     794:	cf 90       	pop	r12
     796:	08 95       	ret

00000798 <_ZN13EthernetClass5beginEPh9IPAddress>:
     798:	0f 93       	push	r16
     79a:	1f 93       	push	r17
     79c:	cf 93       	push	r28
     79e:	df 93       	push	r29
     7a0:	cd b7       	in	r28, 0x3d	; 61
     7a2:	de b7       	in	r29, 0x3e	; 62
     7a4:	62 97       	sbiw	r28, 0x12	; 18
     7a6:	0f b6       	in	r0, 0x3f	; 63
     7a8:	f8 94       	cli
     7aa:	de bf       	out	0x3e, r29	; 62
     7ac:	0f be       	out	0x3f, r0	; 63
     7ae:	cd bf       	out	0x3d, r28	; 61
     7b0:	db 01       	movw	r26, r22
     7b2:	fa 01       	movw	r30, r20
     7b4:	42 81       	ldd	r20, Z+2	; 0x02
     7b6:	53 81       	ldd	r21, Z+3	; 0x03
     7b8:	64 81       	ldd	r22, Z+4	; 0x04
     7ba:	75 81       	ldd	r23, Z+5	; 0x05
     7bc:	4f 87       	std	Y+15, r20	; 0x0f
     7be:	58 8b       	std	Y+16, r21	; 0x10
     7c0:	69 8b       	std	Y+17, r22	; 0x11
     7c2:	7a 8b       	std	Y+18, r23	; 0x12
     7c4:	ec ea       	ldi	r30, 0xAC	; 172
     7c6:	f1 e0       	ldi	r31, 0x01	; 1
     7c8:	fa 83       	std	Y+2, r31	; 0x02
     7ca:	e9 83       	std	Y+1, r30	; 0x01
     7cc:	21 e0       	ldi	r18, 0x01	; 1
     7ce:	2a 8b       	std	Y+18, r18	; 0x12
     7d0:	0f 85       	ldd	r16, Y+15	; 0x0f
     7d2:	18 89       	ldd	r17, Y+16	; 0x10
     7d4:	29 89       	ldd	r18, Y+17	; 0x11
     7d6:	3a 89       	ldd	r19, Y+18	; 0x12
     7d8:	0b 83       	std	Y+3, r16	; 0x03
     7da:	1c 83       	std	Y+4, r17	; 0x04
     7dc:	2d 83       	std	Y+5, r18	; 0x05
     7de:	3e 83       	std	Y+6, r19	; 0x06
     7e0:	f8 87       	std	Y+8, r31	; 0x08
     7e2:	ef 83       	std	Y+7, r30	; 0x07
     7e4:	49 87       	std	Y+9, r20	; 0x09
     7e6:	5a 87       	std	Y+10, r21	; 0x0a
     7e8:	6b 87       	std	Y+11, r22	; 0x0b
     7ea:	7c 87       	std	Y+12, r23	; 0x0c
     7ec:	9e 01       	movw	r18, r28
     7ee:	2f 5f       	subi	r18, 0xFF	; 255
     7f0:	3f 4f       	sbci	r19, 0xFF	; 255
     7f2:	ae 01       	movw	r20, r28
     7f4:	49 5f       	subi	r20, 0xF9	; 249
     7f6:	5f 4f       	sbci	r21, 0xFF	; 255
     7f8:	bd 01       	movw	r22, r26
     7fa:	0e 94 75 03 	call	0x6ea	; 0x6ea <_ZN13EthernetClass5beginEPh9IPAddressS1_>
     7fe:	62 96       	adiw	r28, 0x12	; 18
     800:	0f b6       	in	r0, 0x3f	; 63
     802:	f8 94       	cli
     804:	de bf       	out	0x3e, r29	; 62
     806:	0f be       	out	0x3f, r0	; 63
     808:	cd bf       	out	0x3d, r28	; 61
     80a:	df 91       	pop	r29
     80c:	cf 91       	pop	r28
     80e:	1f 91       	pop	r17
     810:	0f 91       	pop	r16
     812:	08 95       	ret

00000814 <_ZN13EthernetClass8maintainEv>:
     814:	ef 92       	push	r14
     816:	ff 92       	push	r15
     818:	0f 93       	push	r16
     81a:	1f 93       	push	r17
     81c:	cf 93       	push	r28
     81e:	df 93       	push	r29
     820:	cd b7       	in	r28, 0x3d	; 61
     822:	de b7       	in	r29, 0x3e	; 62
     824:	68 97       	sbiw	r28, 0x18	; 24
     826:	0f b6       	in	r0, 0x3f	; 63
     828:	f8 94       	cli
     82a:	de bf       	out	0x3e, r29	; 62
     82c:	0f be       	out	0x3f, r0	; 63
     82e:	cd bf       	out	0x3d, r28	; 61
     830:	8c 01       	movw	r16, r24
     832:	fc 01       	movw	r30, r24
     834:	86 81       	ldd	r24, Z+6	; 0x06
     836:	97 81       	ldd	r25, Z+7	; 0x07
     838:	00 97       	sbiw	r24, 0x00	; 0
     83a:	e1 f1       	breq	.+120    	; 0x8b4 <_ZN13EthernetClass8maintainEv+0xa0>
     83c:	0e 94 88 23 	call	0x4710	; 0x4710 <_ZN9DhcpClass10checkLeaseEv>
     840:	7c 01       	movw	r14, r24
     842:	82 30       	cpi	r24, 0x02	; 2
     844:	91 05       	cpc	r25, r1
     846:	21 f0       	breq	.+8      	; 0x850 <_ZN13EthernetClass8maintainEv+0x3c>
     848:	84 e0       	ldi	r24, 0x04	; 4
     84a:	e8 16       	cp	r14, r24
     84c:	f1 04       	cpc	r15, r1
     84e:	a1 f5       	brne	.+104    	; 0x8b8 <_ZN13EthernetClass8maintainEv+0xa4>
     850:	f8 01       	movw	r30, r16
     852:	66 81       	ldd	r22, Z+6	; 0x06
     854:	77 81       	ldd	r23, Z+7	; 0x07
     856:	ce 01       	movw	r24, r28
     858:	43 96       	adiw	r24, 0x13	; 19
     85a:	0e 94 9c 20 	call	0x4138	; 0x4138 <_ZN9DhcpClass10getLocalIpEv>
     85e:	ce 01       	movw	r24, r28
     860:	45 96       	adiw	r24, 0x15	; 21
     862:	0e 94 42 2f 	call	0x5e84	; 0x5e84 <_ZN10W5100Class9writeSIPREPh>
     866:	f8 01       	movw	r30, r16
     868:	66 81       	ldd	r22, Z+6	; 0x06
     86a:	77 81       	ldd	r23, Z+7	; 0x07
     86c:	ce 01       	movw	r24, r28
     86e:	0d 96       	adiw	r24, 0x0d	; 13
     870:	0e 94 b2 20 	call	0x4164	; 0x4164 <_ZN9DhcpClass12getGatewayIpEv>
     874:	ce 01       	movw	r24, r28
     876:	0f 96       	adiw	r24, 0x0f	; 15
     878:	0e 94 34 2f 	call	0x5e68	; 0x5e68 <_ZN10W5100Class8writeGAREPh>
     87c:	f8 01       	movw	r30, r16
     87e:	66 81       	ldd	r22, Z+6	; 0x06
     880:	77 81       	ldd	r23, Z+7	; 0x07
     882:	ce 01       	movw	r24, r28
     884:	07 96       	adiw	r24, 0x07	; 7
     886:	0e 94 a7 20 	call	0x414e	; 0x414e <_ZN9DhcpClass13getSubnetMaskEv>
     88a:	ce 01       	movw	r24, r28
     88c:	09 96       	adiw	r24, 0x09	; 9
     88e:	0e 94 3b 2f 	call	0x5e76	; 0x5e76 <_ZN10W5100Class9writeSUBREPh>
     892:	f8 01       	movw	r30, r16
     894:	66 81       	ldd	r22, Z+6	; 0x06
     896:	77 81       	ldd	r23, Z+7	; 0x07
     898:	ce 01       	movw	r24, r28
     89a:	01 96       	adiw	r24, 0x01	; 1
     89c:	0e 94 c8 20 	call	0x4190	; 0x4190 <_ZN9DhcpClass14getDnsServerIpEv>
     8a0:	4b 81       	ldd	r20, Y+3	; 0x03
     8a2:	5c 81       	ldd	r21, Y+4	; 0x04
     8a4:	6d 81       	ldd	r22, Y+5	; 0x05
     8a6:	7e 81       	ldd	r23, Y+6	; 0x06
     8a8:	f8 01       	movw	r30, r16
     8aa:	42 83       	std	Z+2, r20	; 0x02
     8ac:	53 83       	std	Z+3, r21	; 0x03
     8ae:	64 83       	std	Z+4, r22	; 0x04
     8b0:	75 83       	std	Z+5, r23	; 0x05
     8b2:	02 c0       	rjmp	.+4      	; 0x8b8 <_ZN13EthernetClass8maintainEv+0xa4>
     8b4:	e1 2c       	mov	r14, r1
     8b6:	f1 2c       	mov	r15, r1
     8b8:	c7 01       	movw	r24, r14
     8ba:	68 96       	adiw	r28, 0x18	; 24
     8bc:	0f b6       	in	r0, 0x3f	; 63
     8be:	f8 94       	cli
     8c0:	de bf       	out	0x3e, r29	; 62
     8c2:	0f be       	out	0x3f, r0	; 63
     8c4:	cd bf       	out	0x3d, r28	; 61
     8c6:	df 91       	pop	r29
     8c8:	cf 91       	pop	r28
     8ca:	1f 91       	pop	r17
     8cc:	0f 91       	pop	r16
     8ce:	ff 90       	pop	r15
     8d0:	ef 90       	pop	r14
     8d2:	08 95       	ret

000008d4 <_ZN13EthernetClass7localIPEv>:
     8d4:	cf 93       	push	r28
     8d6:	df 93       	push	r29
     8d8:	ec 01       	movw	r28, r24
     8da:	0e 94 7c 0c 	call	0x18f8	; 0x18f8 <_ZN9IPAddressC1Ev>
     8de:	be 01       	movw	r22, r28
     8e0:	6e 5f       	subi	r22, 0xFE	; 254
     8e2:	7f 4f       	sbci	r23, 0xFF	; 255
     8e4:	44 e0       	ldi	r20, 0x04	; 4
     8e6:	50 e0       	ldi	r21, 0x00	; 0
     8e8:	8f e0       	ldi	r24, 0x0F	; 15
     8ea:	90 e0       	ldi	r25, 0x00	; 0
     8ec:	0e 94 e5 1d 	call	0x3bca	; 0x3bca <_ZN10W5100Class4readEjPhj>
     8f0:	ce 01       	movw	r24, r28
     8f2:	df 91       	pop	r29
     8f4:	cf 91       	pop	r28
     8f6:	08 95       	ret

000008f8 <_ZN13EthernetClass10subnetMaskEv>:
     8f8:	cf 93       	push	r28
     8fa:	df 93       	push	r29
     8fc:	ec 01       	movw	r28, r24
     8fe:	0e 94 7c 0c 	call	0x18f8	; 0x18f8 <_ZN9IPAddressC1Ev>
     902:	be 01       	movw	r22, r28
     904:	6e 5f       	subi	r22, 0xFE	; 254
     906:	7f 4f       	sbci	r23, 0xFF	; 255
     908:	44 e0       	ldi	r20, 0x04	; 4
     90a:	50 e0       	ldi	r21, 0x00	; 0
     90c:	85 e0       	ldi	r24, 0x05	; 5
     90e:	90 e0       	ldi	r25, 0x00	; 0
     910:	0e 94 e5 1d 	call	0x3bca	; 0x3bca <_ZN10W5100Class4readEjPhj>
     914:	ce 01       	movw	r24, r28
     916:	df 91       	pop	r29
     918:	cf 91       	pop	r28
     91a:	08 95       	ret

0000091c <_ZN13EthernetClass9gatewayIPEv>:
     91c:	cf 93       	push	r28
     91e:	df 93       	push	r29
     920:	ec 01       	movw	r28, r24
     922:	0e 94 7c 0c 	call	0x18f8	; 0x18f8 <_ZN9IPAddressC1Ev>
     926:	be 01       	movw	r22, r28
     928:	6e 5f       	subi	r22, 0xFE	; 254
     92a:	7f 4f       	sbci	r23, 0xFF	; 255
     92c:	44 e0       	ldi	r20, 0x04	; 4
     92e:	50 e0       	ldi	r21, 0x00	; 0
     930:	81 e0       	ldi	r24, 0x01	; 1
     932:	90 e0       	ldi	r25, 0x00	; 0
     934:	0e 94 e5 1d 	call	0x3bca	; 0x3bca <_ZN10W5100Class4readEjPhj>
     938:	ce 01       	movw	r24, r28
     93a:	df 91       	pop	r29
     93c:	cf 91       	pop	r28
     93e:	08 95       	ret

00000940 <_ZN13EthernetClass11dnsServerIPEv>:
     940:	2c ea       	ldi	r18, 0xAC	; 172
     942:	31 e0       	ldi	r19, 0x01	; 1
     944:	fc 01       	movw	r30, r24
     946:	31 83       	std	Z+1, r19	; 0x01
     948:	20 83       	st	Z, r18
     94a:	fb 01       	movw	r30, r22
     94c:	42 81       	ldd	r20, Z+2	; 0x02
     94e:	53 81       	ldd	r21, Z+3	; 0x03
     950:	64 81       	ldd	r22, Z+4	; 0x04
     952:	75 81       	ldd	r23, Z+5	; 0x05
     954:	fc 01       	movw	r30, r24
     956:	42 83       	std	Z+2, r20	; 0x02
     958:	53 83       	std	Z+3, r21	; 0x03
     95a:	64 83       	std	Z+4, r22	; 0x04
     95c:	75 83       	std	Z+5, r23	; 0x05
     95e:	08 95       	ret

00000960 <_ZN14EthernetClient5writeEh>:
     960:	cf 93       	push	r28
     962:	df 93       	push	r29
     964:	1f 92       	push	r1
     966:	cd b7       	in	r28, 0x3d	; 61
     968:	de b7       	in	r29, 0x3e	; 62
     96a:	69 83       	std	Y+1, r22	; 0x01
     96c:	dc 01       	movw	r26, r24
     96e:	ed 91       	ld	r30, X+
     970:	fc 91       	ld	r31, X
     972:	02 80       	ldd	r0, Z+2	; 0x02
     974:	f3 81       	ldd	r31, Z+3	; 0x03
     976:	e0 2d       	mov	r30, r0
     978:	41 e0       	ldi	r20, 0x01	; 1
     97a:	50 e0       	ldi	r21, 0x00	; 0
     97c:	be 01       	movw	r22, r28
     97e:	6f 5f       	subi	r22, 0xFF	; 255
     980:	7f 4f       	sbci	r23, 0xFF	; 255
     982:	09 95       	icall
     984:	0f 90       	pop	r0
     986:	df 91       	pop	r29
     988:	cf 91       	pop	r28
     98a:	08 95       	ret

0000098c <_ZN14EthernetClient5flushEv>:
     98c:	cf 93       	push	r28
     98e:	df 93       	push	r29
     990:	ec 01       	movw	r28, r24
     992:	07 c0       	rjmp	.+14     	; 0x9a2 <_ZN14EthernetClient5flushEv+0x16>
     994:	e8 81       	ld	r30, Y
     996:	f9 81       	ldd	r31, Y+1	; 0x01
     998:	06 80       	ldd	r0, Z+6	; 0x06
     99a:	f7 81       	ldd	r31, Z+7	; 0x07
     99c:	e0 2d       	mov	r30, r0
     99e:	ce 01       	movw	r24, r28
     9a0:	09 95       	icall
     9a2:	e8 81       	ld	r30, Y
     9a4:	f9 81       	ldd	r31, Y+1	; 0x01
     9a6:	04 80       	ldd	r0, Z+4	; 0x04
     9a8:	f5 81       	ldd	r31, Z+5	; 0x05
     9aa:	e0 2d       	mov	r30, r0
     9ac:	ce 01       	movw	r24, r28
     9ae:	09 95       	icall
     9b0:	89 2b       	or	r24, r25
     9b2:	81 f7       	brne	.-32     	; 0x994 <_ZN14EthernetClient5flushEv+0x8>
     9b4:	df 91       	pop	r29
     9b6:	cf 91       	pop	r28
     9b8:	08 95       	ret

000009ba <_ZN14EthernetClientcvbEv>:
     9ba:	21 e0       	ldi	r18, 0x01	; 1
     9bc:	fc 01       	movw	r30, r24
     9be:	84 85       	ldd	r24, Z+12	; 0x0c
     9c0:	84 30       	cpi	r24, 0x04	; 4
     9c2:	09 f4       	brne	.+2      	; 0x9c6 <_ZN14EthernetClientcvbEv+0xc>
     9c4:	20 e0       	ldi	r18, 0x00	; 0
     9c6:	82 2f       	mov	r24, r18
     9c8:	08 95       	ret

000009ca <_ZN14EthernetClient4peekEv>:
     9ca:	0f 93       	push	r16
     9cc:	1f 93       	push	r17
     9ce:	cf 93       	push	r28
     9d0:	df 93       	push	r29
     9d2:	1f 92       	push	r1
     9d4:	cd b7       	in	r28, 0x3d	; 61
     9d6:	de b7       	in	r29, 0x3e	; 62
     9d8:	8c 01       	movw	r16, r24
     9da:	dc 01       	movw	r26, r24
     9dc:	ed 91       	ld	r30, X+
     9de:	fc 91       	ld	r31, X
     9e0:	04 80       	ldd	r0, Z+4	; 0x04
     9e2:	f5 81       	ldd	r31, Z+5	; 0x05
     9e4:	e0 2d       	mov	r30, r0
     9e6:	09 95       	icall
     9e8:	89 2b       	or	r24, r25
     9ea:	51 f0       	breq	.+20     	; 0xa00 <_ZN14EthernetClient4peekEv+0x36>
     9ec:	be 01       	movw	r22, r28
     9ee:	6f 5f       	subi	r22, 0xFF	; 255
     9f0:	7f 4f       	sbci	r23, 0xFF	; 255
     9f2:	f8 01       	movw	r30, r16
     9f4:	84 85       	ldd	r24, Z+12	; 0x0c
     9f6:	0e 94 b4 1a 	call	0x3568	; 0x3568 <_Z4peekhPh>
     9fa:	29 81       	ldd	r18, Y+1	; 0x01
     9fc:	30 e0       	ldi	r19, 0x00	; 0
     9fe:	02 c0       	rjmp	.+4      	; 0xa04 <_ZN14EthernetClient4peekEv+0x3a>
     a00:	2f ef       	ldi	r18, 0xFF	; 255
     a02:	3f ef       	ldi	r19, 0xFF	; 255
     a04:	c9 01       	movw	r24, r18
     a06:	0f 90       	pop	r0
     a08:	df 91       	pop	r29
     a0a:	cf 91       	pop	r28
     a0c:	1f 91       	pop	r17
     a0e:	0f 91       	pop	r16
     a10:	08 95       	ret

00000a12 <_ZN14EthernetClient4readEPhj>:
     a12:	fc 01       	movw	r30, r24
     a14:	84 85       	ldd	r24, Z+12	; 0x0c
     a16:	0c 94 76 1a 	jmp	0x34ec	; 0x34ec <_Z4recvhPhi>

00000a1a <_ZN14EthernetClient4readEv>:
     a1a:	cf 93       	push	r28
     a1c:	df 93       	push	r29
     a1e:	1f 92       	push	r1
     a20:	cd b7       	in	r28, 0x3d	; 61
     a22:	de b7       	in	r29, 0x3e	; 62
     a24:	41 e0       	ldi	r20, 0x01	; 1
     a26:	50 e0       	ldi	r21, 0x00	; 0
     a28:	be 01       	movw	r22, r28
     a2a:	6f 5f       	subi	r22, 0xFF	; 255
     a2c:	7f 4f       	sbci	r23, 0xFF	; 255
     a2e:	fc 01       	movw	r30, r24
     a30:	84 85       	ldd	r24, Z+12	; 0x0c
     a32:	0e 94 76 1a 	call	0x34ec	; 0x34ec <_Z4recvhPhi>
     a36:	18 16       	cp	r1, r24
     a38:	19 06       	cpc	r1, r25
     a3a:	1c f4       	brge	.+6      	; 0xa42 <_ZN14EthernetClient4readEv+0x28>
     a3c:	29 81       	ldd	r18, Y+1	; 0x01
     a3e:	30 e0       	ldi	r19, 0x00	; 0
     a40:	02 c0       	rjmp	.+4      	; 0xa46 <_ZN14EthernetClient4readEv+0x2c>
     a42:	2f ef       	ldi	r18, 0xFF	; 255
     a44:	3f ef       	ldi	r19, 0xFF	; 255
     a46:	c9 01       	movw	r24, r18
     a48:	0f 90       	pop	r0
     a4a:	df 91       	pop	r29
     a4c:	cf 91       	pop	r28
     a4e:	08 95       	ret

00000a50 <_ZN14EthernetClient9availableEv>:
     a50:	fc 01       	movw	r30, r24
     a52:	64 85       	ldd	r22, Z+12	; 0x0c
     a54:	64 30       	cpi	r22, 0x04	; 4
     a56:	21 f0       	breq	.+8      	; 0xa60 <_ZN14EthernetClient9availableEv+0x10>
     a58:	89 ed       	ldi	r24, 0xD9	; 217
     a5a:	94 e0       	ldi	r25, 0x04	; 4
     a5c:	0c 94 ad 1d 	jmp	0x3b5a	; 0x3b5a <_ZN10W5100Class17getRXReceivedSizeEh>
     a60:	80 e0       	ldi	r24, 0x00	; 0
     a62:	90 e0       	ldi	r25, 0x00	; 0
     a64:	08 95       	ret

00000a66 <_ZN14EthernetClient5writeEPKhj>:
     a66:	0f 93       	push	r16
     a68:	1f 93       	push	r17
     a6a:	cf 93       	push	r28
     a6c:	df 93       	push	r29
     a6e:	8c 01       	movw	r16, r24
     a70:	ea 01       	movw	r28, r20
     a72:	fc 01       	movw	r30, r24
     a74:	84 85       	ldd	r24, Z+12	; 0x0c
     a76:	84 30       	cpi	r24, 0x04	; 4
     a78:	19 f4       	brne	.+6      	; 0xa80 <_ZN14EthernetClient5writeEPKhj+0x1a>
     a7a:	81 e0       	ldi	r24, 0x01	; 1
     a7c:	90 e0       	ldi	r25, 0x00	; 0
     a7e:	07 c0       	rjmp	.+14     	; 0xa8e <_ZN14EthernetClient5writeEPKhj+0x28>
     a80:	0e 94 24 1a 	call	0x3448	; 0x3448 <_Z4sendhPKhj>
     a84:	89 2b       	or	r24, r25
     a86:	39 f4       	brne	.+14     	; 0xa96 <_ZN14EthernetClient5writeEPKhj+0x30>
     a88:	81 e0       	ldi	r24, 0x01	; 1
     a8a:	90 e0       	ldi	r25, 0x00	; 0
     a8c:	f8 01       	movw	r30, r16
     a8e:	93 83       	std	Z+3, r25	; 0x03
     a90:	82 83       	std	Z+2, r24	; 0x02
     a92:	c0 e0       	ldi	r28, 0x00	; 0
     a94:	d0 e0       	ldi	r29, 0x00	; 0
     a96:	ce 01       	movw	r24, r28
     a98:	df 91       	pop	r29
     a9a:	cf 91       	pop	r28
     a9c:	1f 91       	pop	r17
     a9e:	0f 91       	pop	r16
     aa0:	08 95       	ret

00000aa2 <_ZN14EthernetClient7connectEPKcj>:
     aa2:	cf 92       	push	r12
     aa4:	df 92       	push	r13
     aa6:	ef 92       	push	r14
     aa8:	ff 92       	push	r15
     aaa:	0f 93       	push	r16
     aac:	1f 93       	push	r17
     aae:	cf 93       	push	r28
     ab0:	df 93       	push	r29
     ab2:	cd b7       	in	r28, 0x3d	; 61
     ab4:	de b7       	in	r29, 0x3e	; 62
     ab6:	e5 97       	sbiw	r28, 0x35	; 53
     ab8:	0f b6       	in	r0, 0x3f	; 63
     aba:	f8 94       	cli
     abc:	de bf       	out	0x3e, r29	; 62
     abe:	0f be       	out	0x3f, r0	; 63
     ac0:	cd bf       	out	0x3d, r28	; 61
     ac2:	7c 01       	movw	r14, r24
     ac4:	8b 01       	movw	r16, r22
     ac6:	6a 01       	movw	r12, r20
     ac8:	ce 01       	movw	r24, r28
     aca:	01 96       	adiw	r24, 0x01	; 1
     acc:	0e 94 7c 0c 	call	0x18f8	; 0x18f8 <_ZN9IPAddressC1Ev>
     ad0:	ce 01       	movw	r24, r28
     ad2:	09 96       	adiw	r24, 0x09	; 9
     ad4:	0e 94 99 09 	call	0x1332	; 0x1332 <_ZN11EthernetUDPC1Ev>
     ad8:	ce 01       	movw	r24, r28
     ada:	c0 96       	adiw	r24, 0x30	; 48
     adc:	0e 94 7c 0c 	call	0x18f8	; 0x18f8 <_ZN9IPAddressC1Ev>
     ae0:	64 ef       	ldi	r22, 0xF4	; 244
     ae2:	73 e0       	ldi	r23, 0x03	; 3
     ae4:	ce 01       	movw	r24, r28
     ae6:	8a 96       	adiw	r24, 0x2a	; 42
     ae8:	0e 94 a0 04 	call	0x940	; 0x940 <_ZN13EthernetClass11dnsServerIPEv>
     aec:	be 01       	movw	r22, r28
     aee:	66 5d       	subi	r22, 0xD6	; 214
     af0:	7f 4f       	sbci	r23, 0xFF	; 255
     af2:	ce 01       	movw	r24, r28
     af4:	01 96       	adiw	r24, 0x01	; 1
     af6:	0e 94 a1 24 	call	0x4942	; 0x4942 <_ZN9DNSClient5beginERK9IPAddress>
     afa:	ae 01       	movw	r20, r28
     afc:	40 5d       	subi	r20, 0xD0	; 208
     afe:	5f 4f       	sbci	r21, 0xFF	; 255
     b00:	b8 01       	movw	r22, r16
     b02:	ce 01       	movw	r24, r28
     b04:	01 96       	adiw	r24, 0x01	; 1
     b06:	0e 94 05 27 	call	0x4e0a	; 0x4e0a <_ZN9DNSClient13getHostByNameEPKcR9IPAddress>
     b0a:	9c 01       	movw	r18, r24
     b0c:	81 30       	cpi	r24, 0x01	; 1
     b0e:	91 05       	cpc	r25, r1
     b10:	c9 f4       	brne	.+50     	; 0xb44 <_ZN14EthernetClient7connectEPKcj+0xa2>
     b12:	d7 01       	movw	r26, r14
     b14:	ed 91       	ld	r30, X+
     b16:	fc 91       	ld	r31, X
     b18:	04 84       	ldd	r0, Z+12	; 0x0c
     b1a:	f5 85       	ldd	r31, Z+13	; 0x0d
     b1c:	e0 2d       	mov	r30, r0
     b1e:	8c ea       	ldi	r24, 0xAC	; 172
     b20:	91 e0       	ldi	r25, 0x01	; 1
     b22:	9d a3       	std	Y+37, r25	; 0x25
     b24:	8c a3       	std	Y+36, r24	; 0x24
     b26:	0a a9       	ldd	r16, Y+50	; 0x32
     b28:	1b a9       	ldd	r17, Y+51	; 0x33
     b2a:	2c a9       	ldd	r18, Y+52	; 0x34
     b2c:	3d a9       	ldd	r19, Y+53	; 0x35
     b2e:	0e a3       	std	Y+38, r16	; 0x26
     b30:	1f a3       	std	Y+39, r17	; 0x27
     b32:	28 a7       	std	Y+40, r18	; 0x28
     b34:	39 a7       	std	Y+41, r19	; 0x29
     b36:	a6 01       	movw	r20, r12
     b38:	be 01       	movw	r22, r28
     b3a:	6c 5d       	subi	r22, 0xDC	; 220
     b3c:	7f 4f       	sbci	r23, 0xFF	; 255
     b3e:	c7 01       	movw	r24, r14
     b40:	09 95       	icall
     b42:	9c 01       	movw	r18, r24
     b44:	c9 01       	movw	r24, r18
     b46:	e5 96       	adiw	r28, 0x35	; 53
     b48:	0f b6       	in	r0, 0x3f	; 63
     b4a:	f8 94       	cli
     b4c:	de bf       	out	0x3e, r29	; 62
     b4e:	0f be       	out	0x3f, r0	; 63
     b50:	cd bf       	out	0x3d, r28	; 61
     b52:	df 91       	pop	r29
     b54:	cf 91       	pop	r28
     b56:	1f 91       	pop	r17
     b58:	0f 91       	pop	r16
     b5a:	ff 90       	pop	r15
     b5c:	ef 90       	pop	r14
     b5e:	df 90       	pop	r13
     b60:	cf 90       	pop	r12
     b62:	08 95       	ret

00000b64 <_ZN14EthernetClientC1Ev>:
     b64:	fc 01       	movw	r30, r24
     b66:	13 82       	std	Z+3, r1	; 0x03
     b68:	12 82       	std	Z+2, r1	; 0x02
     b6a:	48 ee       	ldi	r20, 0xE8	; 232
     b6c:	53 e0       	ldi	r21, 0x03	; 3
     b6e:	60 e0       	ldi	r22, 0x00	; 0
     b70:	70 e0       	ldi	r23, 0x00	; 0
     b72:	44 83       	std	Z+4, r20	; 0x04
     b74:	55 83       	std	Z+5, r21	; 0x05
     b76:	66 83       	std	Z+6, r22	; 0x06
     b78:	77 83       	std	Z+7, r23	; 0x07
     b7a:	82 e5       	ldi	r24, 0x52	; 82
     b7c:	91 e0       	ldi	r25, 0x01	; 1
     b7e:	91 83       	std	Z+1, r25	; 0x01
     b80:	80 83       	st	Z, r24
     b82:	84 e0       	ldi	r24, 0x04	; 4
     b84:	84 87       	std	Z+12, r24	; 0x0c
     b86:	08 95       	ret

00000b88 <_ZN14EthernetClientC1Eh>:
     b88:	fc 01       	movw	r30, r24
     b8a:	26 2f       	mov	r18, r22
     b8c:	13 82       	std	Z+3, r1	; 0x03
     b8e:	12 82       	std	Z+2, r1	; 0x02
     b90:	48 ee       	ldi	r20, 0xE8	; 232
     b92:	53 e0       	ldi	r21, 0x03	; 3
     b94:	60 e0       	ldi	r22, 0x00	; 0
     b96:	70 e0       	ldi	r23, 0x00	; 0
     b98:	44 83       	std	Z+4, r20	; 0x04
     b9a:	55 83       	std	Z+5, r21	; 0x05
     b9c:	66 83       	std	Z+6, r22	; 0x06
     b9e:	77 83       	std	Z+7, r23	; 0x07
     ba0:	82 e5       	ldi	r24, 0x52	; 82
     ba2:	91 e0       	ldi	r25, 0x01	; 1
     ba4:	91 83       	std	Z+1, r25	; 0x01
     ba6:	80 83       	st	Z, r24
     ba8:	24 87       	std	Z+12, r18	; 0x0c
     baa:	08 95       	ret

00000bac <_ZN14EthernetClient6statusEv>:
     bac:	fc 01       	movw	r30, r24
     bae:	84 85       	ldd	r24, Z+12	; 0x0c
     bb0:	84 30       	cpi	r24, 0x04	; 4
     bb2:	39 f0       	breq	.+14     	; 0xbc2 <_ZN14EthernetClient6statusEv+0x16>
     bb4:	38 2f       	mov	r19, r24
     bb6:	20 e0       	ldi	r18, 0x00	; 0
     bb8:	c9 01       	movw	r24, r18
     bba:	8d 5f       	subi	r24, 0xFD	; 253
     bbc:	9b 4f       	sbci	r25, 0xFB	; 251
     bbe:	0c 94 20 1d 	jmp	0x3a40	; 0x3a40 <_ZN10W5100Class4readEj>
     bc2:	80 e0       	ldi	r24, 0x00	; 0
     bc4:	08 95       	ret

00000bc6 <_ZN14EthernetClient9connectedEv>:
     bc6:	cf 93       	push	r28
     bc8:	df 93       	push	r29
     bca:	ec 01       	movw	r28, r24
     bcc:	8c 85       	ldd	r24, Y+12	; 0x0c
     bce:	84 30       	cpi	r24, 0x04	; 4
     bd0:	d1 f0       	breq	.+52     	; 0xc06 <_ZN14EthernetClient9connectedEv+0x40>
     bd2:	ce 01       	movw	r24, r28
     bd4:	0e 94 d6 05 	call	0xbac	; 0xbac <_ZN14EthernetClient6statusEv>
     bd8:	84 31       	cpi	r24, 0x14	; 20
     bda:	81 f0       	breq	.+32     	; 0xbfc <_ZN14EthernetClient9connectedEv+0x36>
     bdc:	88 23       	and	r24, r24
     bde:	71 f0       	breq	.+28     	; 0xbfc <_ZN14EthernetClient9connectedEv+0x36>
     be0:	88 31       	cpi	r24, 0x18	; 24
     be2:	61 f0       	breq	.+24     	; 0xbfc <_ZN14EthernetClient9connectedEv+0x36>
     be4:	8c 31       	cpi	r24, 0x1C	; 28
     be6:	61 f4       	brne	.+24     	; 0xc00 <_ZN14EthernetClient9connectedEv+0x3a>
     be8:	e8 81       	ld	r30, Y
     bea:	f9 81       	ldd	r31, Y+1	; 0x01
     bec:	04 80       	ldd	r0, Z+4	; 0x04
     bee:	f5 81       	ldd	r31, Z+5	; 0x05
     bf0:	e0 2d       	mov	r30, r0
     bf2:	ce 01       	movw	r24, r28
     bf4:	09 95       	icall
     bf6:	21 e0       	ldi	r18, 0x01	; 1
     bf8:	89 2b       	or	r24, r25
     bfa:	19 f4       	brne	.+6      	; 0xc02 <_ZN14EthernetClient9connectedEv+0x3c>
     bfc:	20 e0       	ldi	r18, 0x00	; 0
     bfe:	01 c0       	rjmp	.+2      	; 0xc02 <_ZN14EthernetClient9connectedEv+0x3c>
     c00:	21 e0       	ldi	r18, 0x01	; 1
     c02:	82 2f       	mov	r24, r18
     c04:	01 c0       	rjmp	.+2      	; 0xc08 <_ZN14EthernetClient9connectedEv+0x42>
     c06:	80 e0       	ldi	r24, 0x00	; 0
     c08:	df 91       	pop	r29
     c0a:	cf 91       	pop	r28
     c0c:	08 95       	ret

00000c0e <_ZN14EthernetClient4stopEv>:
     c0e:	cf 92       	push	r12
     c10:	df 92       	push	r13
     c12:	ef 92       	push	r14
     c14:	ff 92       	push	r15
     c16:	cf 93       	push	r28
     c18:	df 93       	push	r29
     c1a:	ec 01       	movw	r28, r24
     c1c:	8c 85       	ldd	r24, Y+12	; 0x0c
     c1e:	84 30       	cpi	r24, 0x04	; 4
     c20:	91 f1       	breq	.+100    	; 0xc86 <_ZN14EthernetClient4stopEv+0x78>
     c22:	0e 94 1e 1a 	call	0x343c	; 0x343c <_Z10disconnecth>
     c26:	0e 94 20 18 	call	0x3040	; 0x3040 <millis>
     c2a:	6b 01       	movw	r12, r22
     c2c:	7c 01       	movw	r14, r24
     c2e:	ce 01       	movw	r24, r28
     c30:	0e 94 d6 05 	call	0xbac	; 0xbac <_ZN14EthernetClient6statusEv>
     c34:	88 23       	and	r24, r24
     c36:	d1 f0       	breq	.+52     	; 0xc6c <_ZN14EthernetClient4stopEv+0x5e>
     c38:	0e 94 20 18 	call	0x3040	; 0x3040 <millis>
     c3c:	6c 19       	sub	r22, r12
     c3e:	7d 09       	sbc	r23, r13
     c40:	8e 09       	sbc	r24, r14
     c42:	9f 09       	sbc	r25, r15
     c44:	68 3e       	cpi	r22, 0xE8	; 232
     c46:	73 40       	sbci	r23, 0x03	; 3
     c48:	81 05       	cpc	r24, r1
     c4a:	91 05       	cpc	r25, r1
     c4c:	a8 f0       	brcs	.+42     	; 0xc78 <_ZN14EthernetClient4stopEv+0x6a>
     c4e:	0e c0       	rjmp	.+28     	; 0xc6c <_ZN14EthernetClient4stopEv+0x5e>
     c50:	8c 85       	ldd	r24, Y+12	; 0x0c
     c52:	0e 94 89 19 	call	0x3312	; 0x3312 <_Z5closeh>
     c56:	ec 85       	ldd	r30, Y+12	; 0x0c
     c58:	f0 e0       	ldi	r31, 0x00	; 0
     c5a:	ee 0f       	add	r30, r30
     c5c:	ff 1f       	adc	r31, r31
     c5e:	e4 50       	subi	r30, 0x04	; 4
     c60:	fc 4f       	sbci	r31, 0xFC	; 252
     c62:	11 82       	std	Z+1, r1	; 0x01
     c64:	10 82       	st	Z, r1
     c66:	84 e0       	ldi	r24, 0x04	; 4
     c68:	8c 87       	std	Y+12, r24	; 0x0c
     c6a:	0d c0       	rjmp	.+26     	; 0xc86 <_ZN14EthernetClient4stopEv+0x78>
     c6c:	ce 01       	movw	r24, r28
     c6e:	0e 94 d6 05 	call	0xbac	; 0xbac <_ZN14EthernetClient6statusEv>
     c72:	88 23       	and	r24, r24
     c74:	81 f3       	breq	.-32     	; 0xc56 <_ZN14EthernetClient4stopEv+0x48>
     c76:	ec cf       	rjmp	.-40     	; 0xc50 <_ZN14EthernetClient4stopEv+0x42>
     c78:	61 e0       	ldi	r22, 0x01	; 1
     c7a:	70 e0       	ldi	r23, 0x00	; 0
     c7c:	80 e0       	ldi	r24, 0x00	; 0
     c7e:	90 e0       	ldi	r25, 0x00	; 0
     c80:	0e 94 5c 18 	call	0x30b8	; 0x30b8 <delay>
     c84:	d4 cf       	rjmp	.-88     	; 0xc2e <_ZN14EthernetClient4stopEv+0x20>
     c86:	df 91       	pop	r29
     c88:	cf 91       	pop	r28
     c8a:	ff 90       	pop	r15
     c8c:	ef 90       	pop	r14
     c8e:	df 90       	pop	r13
     c90:	cf 90       	pop	r12
     c92:	08 95       	ret

00000c94 <_ZN14EthernetClient7connectE9IPAddressj>:
     c94:	af 92       	push	r10
     c96:	bf 92       	push	r11
     c98:	cf 92       	push	r12
     c9a:	df 92       	push	r13
     c9c:	ef 92       	push	r14
     c9e:	ff 92       	push	r15
     ca0:	0f 93       	push	r16
     ca2:	1f 93       	push	r17
     ca4:	cf 93       	push	r28
     ca6:	df 93       	push	r29
     ca8:	ec 01       	movw	r28, r24
     caa:	5b 01       	movw	r10, r22
     cac:	6a 01       	movw	r12, r20
     cae:	8c 85       	ldd	r24, Y+12	; 0x0c
     cb0:	84 30       	cpi	r24, 0x04	; 4
     cb2:	09 f0       	breq	.+2      	; 0xcb6 <_ZN14EthernetClient7connectE9IPAddressj+0x22>
     cb4:	4e c0       	rjmp	.+156    	; 0xd52 <_ZN14EthernetClient7connectE9IPAddressj+0xbe>
     cb6:	93 e0       	ldi	r25, 0x03	; 3
     cb8:	e9 2e       	mov	r14, r25
     cba:	94 e0       	ldi	r25, 0x04	; 4
     cbc:	f9 2e       	mov	r15, r25
     cbe:	00 e0       	ldi	r16, 0x00	; 0
     cc0:	10 e0       	ldi	r17, 0x00	; 0
     cc2:	c7 01       	movw	r24, r14
     cc4:	0e 94 20 1d 	call	0x3a40	; 0x3a40 <_ZN10W5100Class4readEj>
     cc8:	81 11       	cpse	r24, r1
     cca:	02 c0       	rjmp	.+4      	; 0xcd0 <_ZN14EthernetClient7connectE9IPAddressj+0x3c>
     ccc:	0c 87       	std	Y+12, r16	; 0x0c
     cce:	0a c0       	rjmp	.+20     	; 0xce4 <_ZN14EthernetClient7connectE9IPAddressj+0x50>
     cd0:	88 31       	cpi	r24, 0x18	; 24
     cd2:	e1 f3       	breq	.-8      	; 0xccc <_ZN14EthernetClient7connectE9IPAddressj+0x38>
     cd4:	8c 31       	cpi	r24, 0x1C	; 28
     cd6:	d1 f3       	breq	.-12     	; 0xccc <_ZN14EthernetClient7connectE9IPAddressj+0x38>
     cd8:	0f 5f       	subi	r16, 0xFF	; 255
     cda:	1f 4f       	sbci	r17, 0xFF	; 255
     cdc:	f3 94       	inc	r15
     cde:	04 30       	cpi	r16, 0x04	; 4
     ce0:	11 05       	cpc	r17, r1
     ce2:	79 f7       	brne	.-34     	; 0xcc2 <_ZN14EthernetClient7connectE9IPAddressj+0x2e>
     ce4:	8c 85       	ldd	r24, Y+12	; 0x0c
     ce6:	84 30       	cpi	r24, 0x04	; 4
     ce8:	a1 f1       	breq	.+104    	; 0xd52 <_ZN14EthernetClient7connectE9IPAddressj+0xbe>
     cea:	20 91 0c 01 	lds	r18, 0x010C
     cee:	30 91 0d 01 	lds	r19, 0x010D
     cf2:	2f 5f       	subi	r18, 0xFF	; 255
     cf4:	3f 4f       	sbci	r19, 0xFF	; 255
     cf6:	09 f0       	breq	.+2      	; 0xcfa <_ZN14EthernetClient7connectE9IPAddressj+0x66>
     cf8:	02 c0       	rjmp	.+4      	; 0xcfe <_ZN14EthernetClient7connectE9IPAddressj+0x6a>
     cfa:	20 e0       	ldi	r18, 0x00	; 0
     cfc:	34 e0       	ldi	r19, 0x04	; 4
     cfe:	30 93 0d 01 	sts	0x010D, r19
     d02:	20 93 0c 01 	sts	0x010C, r18
     d06:	40 91 0c 01 	lds	r20, 0x010C
     d0a:	50 91 0d 01 	lds	r21, 0x010D
     d0e:	20 e0       	ldi	r18, 0x00	; 0
     d10:	61 e0       	ldi	r22, 0x01	; 1
     d12:	0e 94 96 19 	call	0x332c	; 0x332c <_Z6sockethhjh>
     d16:	b5 01       	movw	r22, r10
     d18:	6e 5f       	subi	r22, 0xFE	; 254
     d1a:	7f 4f       	sbci	r23, 0xFF	; 255
     d1c:	a6 01       	movw	r20, r12
     d1e:	8c 85       	ldd	r24, Y+12	; 0x0c
     d20:	0e 94 e9 19 	call	0x33d2	; 0x33d2 <_Z7connecthPhj>
     d24:	09 c0       	rjmp	.+18     	; 0xd38 <_ZN14EthernetClient7connectE9IPAddressj+0xa4>
     d26:	61 e0       	ldi	r22, 0x01	; 1
     d28:	70 e0       	ldi	r23, 0x00	; 0
     d2a:	80 e0       	ldi	r24, 0x00	; 0
     d2c:	90 e0       	ldi	r25, 0x00	; 0
     d2e:	0e 94 5c 18 	call	0x30b8	; 0x30b8 <delay>
     d32:	ce 01       	movw	r24, r28
     d34:	0e 94 d6 05 	call	0xbac	; 0xbac <_ZN14EthernetClient6statusEv>
     d38:	81 11       	cpse	r24, r1
     d3a:	03 c0       	rjmp	.+6      	; 0xd42 <_ZN14EthernetClient7connectE9IPAddressj+0xae>
     d3c:	84 e0       	ldi	r24, 0x04	; 4
     d3e:	8c 87       	std	Y+12, r24	; 0x0c
     d40:	08 c0       	rjmp	.+16     	; 0xd52 <_ZN14EthernetClient7connectE9IPAddressj+0xbe>
     d42:	ce 01       	movw	r24, r28
     d44:	0e 94 d6 05 	call	0xbac	; 0xbac <_ZN14EthernetClient6statusEv>
     d48:	87 31       	cpi	r24, 0x17	; 23
     d4a:	69 f7       	brne	.-38     	; 0xd26 <_ZN14EthernetClient7connectE9IPAddressj+0x92>
     d4c:	21 e0       	ldi	r18, 0x01	; 1
     d4e:	30 e0       	ldi	r19, 0x00	; 0
     d50:	02 c0       	rjmp	.+4      	; 0xd56 <_ZN14EthernetClient7connectE9IPAddressj+0xc2>
     d52:	20 e0       	ldi	r18, 0x00	; 0
     d54:	30 e0       	ldi	r19, 0x00	; 0
     d56:	c9 01       	movw	r24, r18
     d58:	df 91       	pop	r29
     d5a:	cf 91       	pop	r28
     d5c:	1f 91       	pop	r17
     d5e:	0f 91       	pop	r16
     d60:	ff 90       	pop	r15
     d62:	ef 90       	pop	r14
     d64:	df 90       	pop	r13
     d66:	cf 90       	pop	r12
     d68:	bf 90       	pop	r11
     d6a:	af 90       	pop	r10
     d6c:	08 95       	ret

00000d6e <_ZN14EthernetServer5writeEh>:
     d6e:	cf 93       	push	r28
     d70:	df 93       	push	r29
     d72:	1f 92       	push	r1
     d74:	cd b7       	in	r28, 0x3d	; 61
     d76:	de b7       	in	r29, 0x3e	; 62
     d78:	69 83       	std	Y+1, r22	; 0x01
     d7a:	dc 01       	movw	r26, r24
     d7c:	ed 91       	ld	r30, X+
     d7e:	fc 91       	ld	r31, X
     d80:	02 80       	ldd	r0, Z+2	; 0x02
     d82:	f3 81       	ldd	r31, Z+3	; 0x03
     d84:	e0 2d       	mov	r30, r0
     d86:	41 e0       	ldi	r20, 0x01	; 1
     d88:	50 e0       	ldi	r21, 0x00	; 0
     d8a:	be 01       	movw	r22, r28
     d8c:	6f 5f       	subi	r22, 0xFF	; 255
     d8e:	7f 4f       	sbci	r23, 0xFF	; 255
     d90:	09 95       	icall
     d92:	0f 90       	pop	r0
     d94:	df 91       	pop	r29
     d96:	cf 91       	pop	r28
     d98:	08 95       	ret

00000d9a <_ZN14EthernetServer5beginEv>:
     d9a:	ef 92       	push	r14
     d9c:	ff 92       	push	r15
     d9e:	0f 93       	push	r16
     da0:	1f 93       	push	r17
     da2:	cf 93       	push	r28
     da4:	df 93       	push	r29
     da6:	cd b7       	in	r28, 0x3d	; 61
     da8:	de b7       	in	r29, 0x3e	; 62
     daa:	2d 97       	sbiw	r28, 0x0d	; 13
     dac:	0f b6       	in	r0, 0x3f	; 63
     dae:	f8 94       	cli
     db0:	de bf       	out	0x3e, r29	; 62
     db2:	0f be       	out	0x3f, r0	; 63
     db4:	cd bf       	out	0x3d, r28	; 61
     db6:	7c 01       	movw	r14, r24
     db8:	00 e0       	ldi	r16, 0x00	; 0
     dba:	10 e0       	ldi	r17, 0x00	; 0
     dbc:	60 2f       	mov	r22, r16
     dbe:	ce 01       	movw	r24, r28
     dc0:	01 96       	adiw	r24, 0x01	; 1
     dc2:	0e 94 c4 05 	call	0xb88	; 0xb88 <_ZN14EthernetClientC1Eh>
     dc6:	ce 01       	movw	r24, r28
     dc8:	01 96       	adiw	r24, 0x01	; 1
     dca:	0e 94 d6 05 	call	0xbac	; 0xbac <_ZN14EthernetClient6statusEv>
     dce:	81 11       	cpse	r24, r1
     dd0:	16 c0       	rjmp	.+44     	; 0xdfe <_ZN14EthernetServer5beginEv+0x64>
     dd2:	f7 01       	movw	r30, r14
     dd4:	44 81       	ldd	r20, Z+4	; 0x04
     dd6:	55 81       	ldd	r21, Z+5	; 0x05
     dd8:	20 e0       	ldi	r18, 0x00	; 0
     dda:	61 e0       	ldi	r22, 0x01	; 1
     ddc:	80 2f       	mov	r24, r16
     dde:	0e 94 96 19 	call	0x332c	; 0x332c <_Z6sockethhjh>
     de2:	80 2f       	mov	r24, r16
     de4:	0e 94 d6 19 	call	0x33ac	; 0x33ac <_Z6listenh>
     de8:	f7 01       	movw	r30, r14
     dea:	84 81       	ldd	r24, Z+4	; 0x04
     dec:	95 81       	ldd	r25, Z+5	; 0x05
     dee:	f8 01       	movw	r30, r16
     df0:	ee 0f       	add	r30, r30
     df2:	ff 1f       	adc	r31, r31
     df4:	e4 50       	subi	r30, 0x04	; 4
     df6:	fc 4f       	sbci	r31, 0xFC	; 252
     df8:	91 83       	std	Z+1, r25	; 0x01
     dfa:	80 83       	st	Z, r24
     dfc:	05 c0       	rjmp	.+10     	; 0xe08 <_ZN14EthernetServer5beginEv+0x6e>
     dfe:	0f 5f       	subi	r16, 0xFF	; 255
     e00:	1f 4f       	sbci	r17, 0xFF	; 255
     e02:	03 30       	cpi	r16, 0x03	; 3
     e04:	11 05       	cpc	r17, r1
     e06:	d1 f6       	brne	.-76     	; 0xdbc <_ZN14EthernetServer5beginEv+0x22>
     e08:	2d 96       	adiw	r28, 0x0d	; 13
     e0a:	0f b6       	in	r0, 0x3f	; 63
     e0c:	f8 94       	cli
     e0e:	de bf       	out	0x3e, r29	; 62
     e10:	0f be       	out	0x3f, r0	; 63
     e12:	cd bf       	out	0x3d, r28	; 61
     e14:	df 91       	pop	r29
     e16:	cf 91       	pop	r28
     e18:	1f 91       	pop	r17
     e1a:	0f 91       	pop	r16
     e1c:	ff 90       	pop	r15
     e1e:	ef 90       	pop	r14
     e20:	08 95       	ret

00000e22 <_ZN14EthernetServerC1Ej>:
     e22:	fc 01       	movw	r30, r24
     e24:	13 82       	std	Z+3, r1	; 0x03
     e26:	12 82       	std	Z+2, r1	; 0x02
     e28:	8e e6       	ldi	r24, 0x6E	; 110
     e2a:	91 e0       	ldi	r25, 0x01	; 1
     e2c:	91 83       	std	Z+1, r25	; 0x01
     e2e:	80 83       	st	Z, r24
     e30:	75 83       	std	Z+5, r23	; 0x05
     e32:	64 83       	std	Z+4, r22	; 0x04
     e34:	08 95       	ret

00000e36 <_ZN14EthernetServer6acceptEv>:
     e36:	bf 92       	push	r11
     e38:	cf 92       	push	r12
     e3a:	df 92       	push	r13
     e3c:	ef 92       	push	r14
     e3e:	ff 92       	push	r15
     e40:	0f 93       	push	r16
     e42:	1f 93       	push	r17
     e44:	cf 93       	push	r28
     e46:	df 93       	push	r29
     e48:	cd b7       	in	r28, 0x3d	; 61
     e4a:	de b7       	in	r29, 0x3e	; 62
     e4c:	2d 97       	sbiw	r28, 0x0d	; 13
     e4e:	0f b6       	in	r0, 0x3f	; 63
     e50:	f8 94       	cli
     e52:	de bf       	out	0x3e, r29	; 62
     e54:	0f be       	out	0x3f, r0	; 63
     e56:	cd bf       	out	0x3d, r28	; 61
     e58:	8c 01       	movw	r16, r24
     e5a:	4c ef       	ldi	r20, 0xFC	; 252
     e5c:	c4 2e       	mov	r12, r20
     e5e:	43 e0       	ldi	r20, 0x03	; 3
     e60:	d4 2e       	mov	r13, r20
     e62:	b1 2c       	mov	r11, r1
     e64:	e1 2c       	mov	r14, r1
     e66:	f1 2c       	mov	r15, r1
     e68:	6b 2d       	mov	r22, r11
     e6a:	ce 01       	movw	r24, r28
     e6c:	01 96       	adiw	r24, 0x01	; 1
     e6e:	0e 94 c4 05 	call	0xb88	; 0xb88 <_ZN14EthernetClientC1Eh>
     e72:	d6 01       	movw	r26, r12
     e74:	2d 91       	ld	r18, X+
     e76:	3d 91       	ld	r19, X+
     e78:	6d 01       	movw	r12, r26
     e7a:	f8 01       	movw	r30, r16
     e7c:	84 81       	ldd	r24, Z+4	; 0x04
     e7e:	95 81       	ldd	r25, Z+5	; 0x05
     e80:	28 17       	cp	r18, r24
     e82:	39 07       	cpc	r19, r25
     e84:	b1 f4       	brne	.+44     	; 0xeb2 <_ZN14EthernetServer6acceptEv+0x7c>
     e86:	ce 01       	movw	r24, r28
     e88:	01 96       	adiw	r24, 0x01	; 1
     e8a:	0e 94 d6 05 	call	0xbac	; 0xbac <_ZN14EthernetClient6statusEv>
     e8e:	84 31       	cpi	r24, 0x14	; 20
     e90:	69 f0       	breq	.+26     	; 0xeac <_ZN14EthernetServer6acceptEv+0x76>
     e92:	ce 01       	movw	r24, r28
     e94:	01 96       	adiw	r24, 0x01	; 1
     e96:	0e 94 d6 05 	call	0xbac	; 0xbac <_ZN14EthernetClient6statusEv>
     e9a:	8c 31       	cpi	r24, 0x1C	; 28
     e9c:	51 f4       	brne	.+20     	; 0xeb2 <_ZN14EthernetServer6acceptEv+0x7c>
     e9e:	ce 01       	movw	r24, r28
     ea0:	01 96       	adiw	r24, 0x01	; 1
     ea2:	0e 94 28 05 	call	0xa50	; 0xa50 <_ZN14EthernetClient9availableEv>
     ea6:	89 2b       	or	r24, r25
     ea8:	99 f0       	breq	.+38     	; 0xed0 <_ZN14EthernetServer6acceptEv+0x9a>
     eaa:	03 c0       	rjmp	.+6      	; 0xeb2 <_ZN14EthernetServer6acceptEv+0x7c>
     eac:	ee 24       	eor	r14, r14
     eae:	e3 94       	inc	r14
     eb0:	f1 2c       	mov	r15, r1
     eb2:	b3 94       	inc	r11
     eb4:	f4 e0       	ldi	r31, 0x04	; 4
     eb6:	bf 12       	cpse	r11, r31
     eb8:	d7 cf       	rjmp	.-82     	; 0xe68 <_ZN14EthernetServer6acceptEv+0x32>
     eba:	ef 28       	or	r14, r15
     ebc:	71 f4       	brne	.+28     	; 0xeda <_ZN14EthernetServer6acceptEv+0xa4>
     ebe:	d8 01       	movw	r26, r16
     ec0:	ed 91       	ld	r30, X+
     ec2:	fc 91       	ld	r31, X
     ec4:	04 80       	ldd	r0, Z+4	; 0x04
     ec6:	f5 81       	ldd	r31, Z+5	; 0x05
     ec8:	e0 2d       	mov	r30, r0
     eca:	c8 01       	movw	r24, r16
     ecc:	09 95       	icall
     ece:	05 c0       	rjmp	.+10     	; 0xeda <_ZN14EthernetServer6acceptEv+0xa4>
     ed0:	ce 01       	movw	r24, r28
     ed2:	01 96       	adiw	r24, 0x01	; 1
     ed4:	0e 94 07 06 	call	0xc0e	; 0xc0e <_ZN14EthernetClient4stopEv>
     ed8:	ec cf       	rjmp	.-40     	; 0xeb2 <_ZN14EthernetServer6acceptEv+0x7c>
     eda:	2d 96       	adiw	r28, 0x0d	; 13
     edc:	0f b6       	in	r0, 0x3f	; 63
     ede:	f8 94       	cli
     ee0:	de bf       	out	0x3e, r29	; 62
     ee2:	0f be       	out	0x3f, r0	; 63
     ee4:	cd bf       	out	0x3d, r28	; 61
     ee6:	df 91       	pop	r29
     ee8:	cf 91       	pop	r28
     eea:	1f 91       	pop	r17
     eec:	0f 91       	pop	r16
     eee:	ff 90       	pop	r15
     ef0:	ef 90       	pop	r14
     ef2:	df 90       	pop	r13
     ef4:	cf 90       	pop	r12
     ef6:	bf 90       	pop	r11
     ef8:	08 95       	ret

00000efa <_ZN14EthernetServer5writeEPKhj>:
     efa:	7f 92       	push	r7
     efc:	8f 92       	push	r8
     efe:	9f 92       	push	r9
     f00:	af 92       	push	r10
     f02:	bf 92       	push	r11
     f04:	cf 92       	push	r12
     f06:	df 92       	push	r13
     f08:	ef 92       	push	r14
     f0a:	ff 92       	push	r15
     f0c:	0f 93       	push	r16
     f0e:	1f 93       	push	r17
     f10:	cf 93       	push	r28
     f12:	df 93       	push	r29
     f14:	cd b7       	in	r28, 0x3d	; 61
     f16:	de b7       	in	r29, 0x3e	; 62
     f18:	2d 97       	sbiw	r28, 0x0d	; 13
     f1a:	0f b6       	in	r0, 0x3f	; 63
     f1c:	f8 94       	cli
     f1e:	de bf       	out	0x3e, r29	; 62
     f20:	0f be       	out	0x3f, r0	; 63
     f22:	cd bf       	out	0x3d, r28	; 61
     f24:	6c 01       	movw	r12, r24
     f26:	5b 01       	movw	r10, r22
     f28:	4a 01       	movw	r8, r20
     f2a:	0e 94 1b 07 	call	0xe36	; 0xe36 <_ZN14EthernetServer6acceptEv>
     f2e:	5c ef       	ldi	r21, 0xFC	; 252
     f30:	e5 2e       	mov	r14, r21
     f32:	53 e0       	ldi	r21, 0x03	; 3
     f34:	f5 2e       	mov	r15, r21
     f36:	71 2c       	mov	r7, r1
     f38:	00 e0       	ldi	r16, 0x00	; 0
     f3a:	10 e0       	ldi	r17, 0x00	; 0
     f3c:	67 2d       	mov	r22, r7
     f3e:	ce 01       	movw	r24, r28
     f40:	01 96       	adiw	r24, 0x01	; 1
     f42:	0e 94 c4 05 	call	0xb88	; 0xb88 <_ZN14EthernetClientC1Eh>
     f46:	f7 01       	movw	r30, r14
     f48:	21 91       	ld	r18, Z+
     f4a:	31 91       	ld	r19, Z+
     f4c:	7f 01       	movw	r14, r30
     f4e:	f6 01       	movw	r30, r12
     f50:	84 81       	ldd	r24, Z+4	; 0x04
     f52:	95 81       	ldd	r25, Z+5	; 0x05
     f54:	28 17       	cp	r18, r24
     f56:	39 07       	cpc	r19, r25
     f58:	31 f4       	brne	.+12     	; 0xf66 <_ZN14EthernetServer5writeEPKhj+0x6c>
     f5a:	ce 01       	movw	r24, r28
     f5c:	01 96       	adiw	r24, 0x01	; 1
     f5e:	0e 94 d6 05 	call	0xbac	; 0xbac <_ZN14EthernetClient6statusEv>
     f62:	87 31       	cpi	r24, 0x17	; 23
     f64:	29 f0       	breq	.+10     	; 0xf70 <_ZN14EthernetServer5writeEPKhj+0x76>
     f66:	73 94       	inc	r7
     f68:	f4 e0       	ldi	r31, 0x04	; 4
     f6a:	7f 12       	cpse	r7, r31
     f6c:	e7 cf       	rjmp	.-50     	; 0xf3c <_ZN14EthernetServer5writeEPKhj+0x42>
     f6e:	09 c0       	rjmp	.+18     	; 0xf82 <_ZN14EthernetServer5writeEPKhj+0x88>
     f70:	a4 01       	movw	r20, r8
     f72:	b5 01       	movw	r22, r10
     f74:	ce 01       	movw	r24, r28
     f76:	01 96       	adiw	r24, 0x01	; 1
     f78:	0e 94 33 05 	call	0xa66	; 0xa66 <_ZN14EthernetClient5writeEPKhj>
     f7c:	08 0f       	add	r16, r24
     f7e:	19 1f       	adc	r17, r25
     f80:	f2 cf       	rjmp	.-28     	; 0xf66 <_ZN14EthernetServer5writeEPKhj+0x6c>
     f82:	c8 01       	movw	r24, r16
     f84:	2d 96       	adiw	r28, 0x0d	; 13
     f86:	0f b6       	in	r0, 0x3f	; 63
     f88:	f8 94       	cli
     f8a:	de bf       	out	0x3e, r29	; 62
     f8c:	0f be       	out	0x3f, r0	; 63
     f8e:	cd bf       	out	0x3d, r28	; 61
     f90:	df 91       	pop	r29
     f92:	cf 91       	pop	r28
     f94:	1f 91       	pop	r17
     f96:	0f 91       	pop	r16
     f98:	ff 90       	pop	r15
     f9a:	ef 90       	pop	r14
     f9c:	df 90       	pop	r13
     f9e:	cf 90       	pop	r12
     fa0:	bf 90       	pop	r11
     fa2:	af 90       	pop	r10
     fa4:	9f 90       	pop	r9
     fa6:	8f 90       	pop	r8
     fa8:	7f 90       	pop	r7
     faa:	08 95       	ret

00000fac <_ZN14EthernetServer9availableEv>:
     fac:	bf 92       	push	r11
     fae:	cf 92       	push	r12
     fb0:	df 92       	push	r13
     fb2:	ef 92       	push	r14
     fb4:	ff 92       	push	r15
     fb6:	0f 93       	push	r16
     fb8:	1f 93       	push	r17
     fba:	cf 93       	push	r28
     fbc:	df 93       	push	r29
     fbe:	cd b7       	in	r28, 0x3d	; 61
     fc0:	de b7       	in	r29, 0x3e	; 62
     fc2:	2d 97       	sbiw	r28, 0x0d	; 13
     fc4:	0f b6       	in	r0, 0x3f	; 63
     fc6:	f8 94       	cli
     fc8:	de bf       	out	0x3e, r29	; 62
     fca:	0f be       	out	0x3f, r0	; 63
     fcc:	cd bf       	out	0x3d, r28	; 61
     fce:	8c 01       	movw	r16, r24
     fd0:	6b 01       	movw	r12, r22
     fd2:	cb 01       	movw	r24, r22
     fd4:	0e 94 1b 07 	call	0xe36	; 0xe36 <_ZN14EthernetServer6acceptEv>
     fd8:	6c ef       	ldi	r22, 0xFC	; 252
     fda:	e6 2e       	mov	r14, r22
     fdc:	63 e0       	ldi	r22, 0x03	; 3
     fde:	f6 2e       	mov	r15, r22
     fe0:	b1 2c       	mov	r11, r1
     fe2:	6b 2d       	mov	r22, r11
     fe4:	ce 01       	movw	r24, r28
     fe6:	01 96       	adiw	r24, 0x01	; 1
     fe8:	0e 94 c4 05 	call	0xb88	; 0xb88 <_ZN14EthernetClientC1Eh>
     fec:	f7 01       	movw	r30, r14
     fee:	21 91       	ld	r18, Z+
     ff0:	31 91       	ld	r19, Z+
     ff2:	7f 01       	movw	r14, r30
     ff4:	f6 01       	movw	r30, r12
     ff6:	84 81       	ldd	r24, Z+4	; 0x04
     ff8:	95 81       	ldd	r25, Z+5	; 0x05
     ffa:	28 17       	cp	r18, r24
     ffc:	39 07       	cpc	r19, r25
     ffe:	49 f5       	brne	.+82     	; 0x1052 <_ZN14EthernetServer9availableEv+0xa6>
    1000:	ce 01       	movw	r24, r28
    1002:	01 96       	adiw	r24, 0x01	; 1
    1004:	0e 94 d6 05 	call	0xbac	; 0xbac <_ZN14EthernetClient6statusEv>
    1008:	87 31       	cpi	r24, 0x17	; 23
    100a:	61 f1       	breq	.+88     	; 0x1064 <_ZN14EthernetServer9availableEv+0xb8>
    100c:	ce 01       	movw	r24, r28
    100e:	01 96       	adiw	r24, 0x01	; 1
    1010:	0e 94 d6 05 	call	0xbac	; 0xbac <_ZN14EthernetClient6statusEv>
    1014:	8c 31       	cpi	r24, 0x1C	; 28
    1016:	e9 f4       	brne	.+58     	; 0x1052 <_ZN14EthernetServer9availableEv+0xa6>
    1018:	25 c0       	rjmp	.+74     	; 0x1064 <_ZN14EthernetServer9availableEv+0xb8>
    101a:	8b 81       	ldd	r24, Y+3	; 0x03
    101c:	9c 81       	ldd	r25, Y+4	; 0x04
    101e:	f8 01       	movw	r30, r16
    1020:	93 83       	std	Z+3, r25	; 0x03
    1022:	82 83       	std	Z+2, r24	; 0x02
    1024:	4d 81       	ldd	r20, Y+5	; 0x05
    1026:	5e 81       	ldd	r21, Y+6	; 0x06
    1028:	6f 81       	ldd	r22, Y+7	; 0x07
    102a:	78 85       	ldd	r23, Y+8	; 0x08
    102c:	44 83       	std	Z+4, r20	; 0x04
    102e:	55 83       	std	Z+5, r21	; 0x05
    1030:	66 83       	std	Z+6, r22	; 0x06
    1032:	77 83       	std	Z+7, r23	; 0x07
    1034:	49 85       	ldd	r20, Y+9	; 0x09
    1036:	5a 85       	ldd	r21, Y+10	; 0x0a
    1038:	6b 85       	ldd	r22, Y+11	; 0x0b
    103a:	7c 85       	ldd	r23, Y+12	; 0x0c
    103c:	40 87       	std	Z+8, r20	; 0x08
    103e:	51 87       	std	Z+9, r21	; 0x09
    1040:	62 87       	std	Z+10, r22	; 0x0a
    1042:	73 87       	std	Z+11, r23	; 0x0b
    1044:	82 e5       	ldi	r24, 0x52	; 82
    1046:	91 e0       	ldi	r25, 0x01	; 1
    1048:	91 83       	std	Z+1, r25	; 0x01
    104a:	80 83       	st	Z, r24
    104c:	8d 85       	ldd	r24, Y+13	; 0x0d
    104e:	84 87       	std	Z+12, r24	; 0x0c
    1050:	10 c0       	rjmp	.+32     	; 0x1072 <_ZN14EthernetServer9availableEv+0xc6>
    1052:	b3 94       	inc	r11
    1054:	f4 e0       	ldi	r31, 0x04	; 4
    1056:	bf 12       	cpse	r11, r31
    1058:	c4 cf       	rjmp	.-120    	; 0xfe2 <_ZN14EthernetServer9availableEv+0x36>
    105a:	64 e0       	ldi	r22, 0x04	; 4
    105c:	c8 01       	movw	r24, r16
    105e:	0e 94 c4 05 	call	0xb88	; 0xb88 <_ZN14EthernetClientC1Eh>
    1062:	07 c0       	rjmp	.+14     	; 0x1072 <_ZN14EthernetServer9availableEv+0xc6>
    1064:	ce 01       	movw	r24, r28
    1066:	01 96       	adiw	r24, 0x01	; 1
    1068:	0e 94 28 05 	call	0xa50	; 0xa50 <_ZN14EthernetClient9availableEv>
    106c:	89 2b       	or	r24, r25
    106e:	89 f3       	breq	.-30     	; 0x1052 <_ZN14EthernetServer9availableEv+0xa6>
    1070:	d4 cf       	rjmp	.-88     	; 0x101a <_ZN14EthernetServer9availableEv+0x6e>
    1072:	c8 01       	movw	r24, r16
    1074:	2d 96       	adiw	r28, 0x0d	; 13
    1076:	0f b6       	in	r0, 0x3f	; 63
    1078:	f8 94       	cli
    107a:	de bf       	out	0x3e, r29	; 62
    107c:	0f be       	out	0x3f, r0	; 63
    107e:	cd bf       	out	0x3d, r28	; 61
    1080:	df 91       	pop	r29
    1082:	cf 91       	pop	r28
    1084:	1f 91       	pop	r17
    1086:	0f 91       	pop	r16
    1088:	ff 90       	pop	r15
    108a:	ef 90       	pop	r14
    108c:	df 90       	pop	r13
    108e:	cf 90       	pop	r12
    1090:	bf 90       	pop	r11
    1092:	08 95       	ret

00001094 <_ZN11EthernetUDP9availableEv>:
    1094:	fc 01       	movw	r30, r24
    1096:	81 8d       	ldd	r24, Z+25	; 0x19
    1098:	92 8d       	ldd	r25, Z+26	; 0x1a
    109a:	08 95       	ret

0000109c <_ZN11EthernetUDP5writeEh>:
    109c:	cf 93       	push	r28
    109e:	df 93       	push	r29
    10a0:	1f 92       	push	r1
    10a2:	cd b7       	in	r28, 0x3d	; 61
    10a4:	de b7       	in	r29, 0x3e	; 62
    10a6:	69 83       	std	Y+1, r22	; 0x01
    10a8:	dc 01       	movw	r26, r24
    10aa:	ed 91       	ld	r30, X+
    10ac:	fc 91       	ld	r31, X
    10ae:	02 80       	ldd	r0, Z+2	; 0x02
    10b0:	f3 81       	ldd	r31, Z+3	; 0x03
    10b2:	e0 2d       	mov	r30, r0
    10b4:	41 e0       	ldi	r20, 0x01	; 1
    10b6:	50 e0       	ldi	r21, 0x00	; 0
    10b8:	be 01       	movw	r22, r28
    10ba:	6f 5f       	subi	r22, 0xFF	; 255
    10bc:	7f 4f       	sbci	r23, 0xFF	; 255
    10be:	09 95       	icall
    10c0:	0f 90       	pop	r0
    10c2:	df 91       	pop	r29
    10c4:	cf 91       	pop	r28
    10c6:	08 95       	ret

000010c8 <_ZN11EthernetUDP5flushEv>:
    10c8:	cf 93       	push	r28
    10ca:	df 93       	push	r29
    10cc:	ec 01       	movw	r28, r24
    10ce:	07 c0       	rjmp	.+14     	; 0x10de <_ZN11EthernetUDP5flushEv+0x16>
    10d0:	e8 81       	ld	r30, Y
    10d2:	f9 81       	ldd	r31, Y+1	; 0x01
    10d4:	06 80       	ldd	r0, Z+6	; 0x06
    10d6:	f7 81       	ldd	r31, Z+7	; 0x07
    10d8:	e0 2d       	mov	r30, r0
    10da:	ce 01       	movw	r24, r28
    10dc:	09 95       	icall
    10de:	89 8d       	ldd	r24, Y+25	; 0x19
    10e0:	9a 8d       	ldd	r25, Y+26	; 0x1a
    10e2:	89 2b       	or	r24, r25
    10e4:	a9 f7       	brne	.-22     	; 0x10d0 <_ZN11EthernetUDP5flushEv+0x8>
    10e6:	df 91       	pop	r29
    10e8:	cf 91       	pop	r28
    10ea:	08 95       	ret

000010ec <_ZN11EthernetUDP4peekEv>:
    10ec:	cf 93       	push	r28
    10ee:	df 93       	push	r29
    10f0:	1f 92       	push	r1
    10f2:	cd b7       	in	r28, 0x3d	; 61
    10f4:	de b7       	in	r29, 0x3e	; 62
    10f6:	fc 01       	movw	r30, r24
    10f8:	21 8d       	ldd	r18, Z+25	; 0x19
    10fa:	32 8d       	ldd	r19, Z+26	; 0x1a
    10fc:	23 2b       	or	r18, r19
    10fe:	49 f0       	breq	.+18     	; 0x1112 <_ZN11EthernetUDP4peekEv+0x26>
    1100:	be 01       	movw	r22, r28
    1102:	6f 5f       	subi	r22, 0xFF	; 255
    1104:	7f 4f       	sbci	r23, 0xFF	; 255
    1106:	84 85       	ldd	r24, Z+12	; 0x0c
    1108:	0e 94 b4 1a 	call	0x3568	; 0x3568 <_Z4peekhPh>
    110c:	29 81       	ldd	r18, Y+1	; 0x01
    110e:	30 e0       	ldi	r19, 0x00	; 0
    1110:	02 c0       	rjmp	.+4      	; 0x1116 <_ZN11EthernetUDP4peekEv+0x2a>
    1112:	2f ef       	ldi	r18, 0xFF	; 255
    1114:	3f ef       	ldi	r19, 0xFF	; 255
    1116:	c9 01       	movw	r24, r18
    1118:	0f 90       	pop	r0
    111a:	df 91       	pop	r29
    111c:	cf 91       	pop	r28
    111e:	08 95       	ret

00001120 <_ZN11EthernetUDP4readEPhj>:
    1120:	cf 93       	push	r28
    1122:	df 93       	push	r29
    1124:	ec 01       	movw	r28, r24
    1126:	89 8d       	ldd	r24, Y+25	; 0x19
    1128:	9a 8d       	ldd	r25, Y+26	; 0x1a
    112a:	00 97       	sbiw	r24, 0x00	; 0
    112c:	19 f4       	brne	.+6      	; 0x1134 <_ZN11EthernetUDP4readEPhj+0x14>
    112e:	2f ef       	ldi	r18, 0xFF	; 255
    1130:	3f ef       	ldi	r19, 0xFF	; 255
    1132:	11 c0       	rjmp	.+34     	; 0x1156 <_ZN11EthernetUDP4readEPhj+0x36>
    1134:	48 17       	cp	r20, r24
    1136:	59 07       	cpc	r21, r25
    1138:	08 f0       	brcs	.+2      	; 0x113c <_ZN11EthernetUDP4readEPhj+0x1c>
    113a:	ac 01       	movw	r20, r24
    113c:	8c 85       	ldd	r24, Y+12	; 0x0c
    113e:	0e 94 76 1a 	call	0x34ec	; 0x34ec <_Z4recvhPhi>
    1142:	9c 01       	movw	r18, r24
    1144:	18 16       	cp	r1, r24
    1146:	19 06       	cpc	r1, r25
    1148:	94 f7       	brge	.-28     	; 0x112e <_ZN11EthernetUDP4readEPhj+0xe>
    114a:	89 8d       	ldd	r24, Y+25	; 0x19
    114c:	9a 8d       	ldd	r25, Y+26	; 0x1a
    114e:	82 1b       	sub	r24, r18
    1150:	93 0b       	sbc	r25, r19
    1152:	9a 8f       	std	Y+26, r25	; 0x1a
    1154:	89 8f       	std	Y+25, r24	; 0x19
    1156:	c9 01       	movw	r24, r18
    1158:	df 91       	pop	r29
    115a:	cf 91       	pop	r28
    115c:	08 95       	ret

0000115e <_ZN11EthernetUDP4readEv>:
    115e:	0f 93       	push	r16
    1160:	1f 93       	push	r17
    1162:	cf 93       	push	r28
    1164:	df 93       	push	r29
    1166:	1f 92       	push	r1
    1168:	cd b7       	in	r28, 0x3d	; 61
    116a:	de b7       	in	r29, 0x3e	; 62
    116c:	8c 01       	movw	r16, r24
    116e:	fc 01       	movw	r30, r24
    1170:	81 8d       	ldd	r24, Z+25	; 0x19
    1172:	92 8d       	ldd	r25, Z+26	; 0x1a
    1174:	89 2b       	or	r24, r25
    1176:	59 f0       	breq	.+22     	; 0x118e <_ZN11EthernetUDP4readEv+0x30>
    1178:	41 e0       	ldi	r20, 0x01	; 1
    117a:	50 e0       	ldi	r21, 0x00	; 0
    117c:	be 01       	movw	r22, r28
    117e:	6f 5f       	subi	r22, 0xFF	; 255
    1180:	7f 4f       	sbci	r23, 0xFF	; 255
    1182:	84 85       	ldd	r24, Z+12	; 0x0c
    1184:	0e 94 76 1a 	call	0x34ec	; 0x34ec <_Z4recvhPhi>
    1188:	18 16       	cp	r1, r24
    118a:	19 06       	cpc	r1, r25
    118c:	1c f0       	brlt	.+6      	; 0x1194 <_ZN11EthernetUDP4readEv+0x36>
    118e:	2f ef       	ldi	r18, 0xFF	; 255
    1190:	3f ef       	ldi	r19, 0xFF	; 255
    1192:	08 c0       	rjmp	.+16     	; 0x11a4 <_ZN11EthernetUDP4readEv+0x46>
    1194:	f8 01       	movw	r30, r16
    1196:	81 8d       	ldd	r24, Z+25	; 0x19
    1198:	92 8d       	ldd	r25, Z+26	; 0x1a
    119a:	01 97       	sbiw	r24, 0x01	; 1
    119c:	92 8f       	std	Z+26, r25	; 0x1a
    119e:	81 8f       	std	Z+25, r24	; 0x19
    11a0:	29 81       	ldd	r18, Y+1	; 0x01
    11a2:	30 e0       	ldi	r19, 0x00	; 0
    11a4:	c9 01       	movw	r24, r18
    11a6:	0f 90       	pop	r0
    11a8:	df 91       	pop	r29
    11aa:	cf 91       	pop	r28
    11ac:	1f 91       	pop	r17
    11ae:	0f 91       	pop	r16
    11b0:	08 95       	ret

000011b2 <_ZN11EthernetUDP5writeEPKhj>:
    11b2:	cf 93       	push	r28
    11b4:	df 93       	push	r29
    11b6:	ec 01       	movw	r28, r24
    11b8:	9a 01       	movw	r18, r20
    11ba:	8f 89       	ldd	r24, Y+23	; 0x17
    11bc:	98 8d       	ldd	r25, Y+24	; 0x18
    11be:	ab 01       	movw	r20, r22
    11c0:	bc 01       	movw	r22, r24
    11c2:	8c 85       	ldd	r24, Y+12	; 0x0c
    11c4:	0e 94 12 1c 	call	0x3824	; 0x3824 <_Z10bufferDatahjPKhj>
    11c8:	9c 01       	movw	r18, r24
    11ca:	8f 89       	ldd	r24, Y+23	; 0x17
    11cc:	98 8d       	ldd	r25, Y+24	; 0x18
    11ce:	82 0f       	add	r24, r18
    11d0:	93 1f       	adc	r25, r19
    11d2:	98 8f       	std	Y+24, r25	; 0x18
    11d4:	8f 8b       	std	Y+23, r24	; 0x17
    11d6:	c9 01       	movw	r24, r18
    11d8:	df 91       	pop	r29
    11da:	cf 91       	pop	r28
    11dc:	08 95       	ret

000011de <_ZN11EthernetUDP9endPacketEv>:
    11de:	fc 01       	movw	r30, r24
    11e0:	84 85       	ldd	r24, Z+12	; 0x0c
    11e2:	0c 94 6e 1c 	jmp	0x38dc	; 0x38dc <_Z7sendUDPh>

000011e6 <_ZN11EthernetUDP11beginPacketE9IPAddressj>:
    11e6:	fc 01       	movw	r30, r24
    11e8:	10 8e       	std	Z+24, r1	; 0x18
    11ea:	17 8a       	std	Z+23, r1	; 0x17
    11ec:	6e 5f       	subi	r22, 0xFE	; 254
    11ee:	7f 4f       	sbci	r23, 0xFF	; 255
    11f0:	84 85       	ldd	r24, Z+12	; 0x0c
    11f2:	0c 94 48 1c 	jmp	0x3890	; 0x3890 <_Z8startUDPhPhj>

000011f6 <_ZN11EthernetUDP4stopEv>:
    11f6:	cf 93       	push	r28
    11f8:	df 93       	push	r29
    11fa:	ec 01       	movw	r28, r24
    11fc:	8c 85       	ldd	r24, Y+12	; 0x0c
    11fe:	84 30       	cpi	r24, 0x04	; 4
    1200:	61 f0       	breq	.+24     	; 0x121a <_ZN11EthernetUDP4stopEv+0x24>
    1202:	0e 94 89 19 	call	0x3312	; 0x3312 <_Z5closeh>
    1206:	ec 85       	ldd	r30, Y+12	; 0x0c
    1208:	f0 e0       	ldi	r31, 0x00	; 0
    120a:	ee 0f       	add	r30, r30
    120c:	ff 1f       	adc	r31, r31
    120e:	e4 50       	subi	r30, 0x04	; 4
    1210:	fc 4f       	sbci	r31, 0xFC	; 252
    1212:	11 82       	std	Z+1, r1	; 0x01
    1214:	10 82       	st	Z, r1
    1216:	84 e0       	ldi	r24, 0x04	; 4
    1218:	8c 87       	std	Y+12, r24	; 0x0c
    121a:	df 91       	pop	r29
    121c:	cf 91       	pop	r28
    121e:	08 95       	ret

00001220 <_ZN11EthernetUDP11parsePacketEv>:
    1220:	0f 93       	push	r16
    1222:	1f 93       	push	r17
    1224:	cf 93       	push	r28
    1226:	df 93       	push	r29
    1228:	cd b7       	in	r28, 0x3d	; 61
    122a:	de b7       	in	r29, 0x3e	; 62
    122c:	28 97       	sbiw	r28, 0x08	; 8
    122e:	0f b6       	in	r0, 0x3f	; 63
    1230:	f8 94       	cli
    1232:	de bf       	out	0x3e, r29	; 62
    1234:	0f be       	out	0x3f, r0	; 63
    1236:	cd bf       	out	0x3d, r28	; 61
    1238:	8c 01       	movw	r16, r24
    123a:	dc 01       	movw	r26, r24
    123c:	ed 91       	ld	r30, X+
    123e:	fc 91       	ld	r31, X
    1240:	02 84       	ldd	r0, Z+10	; 0x0a
    1242:	f3 85       	ldd	r31, Z+11	; 0x0b
    1244:	e0 2d       	mov	r30, r0
    1246:	09 95       	icall
    1248:	f8 01       	movw	r30, r16
    124a:	64 85       	ldd	r22, Z+12	; 0x0c
    124c:	89 ed       	ldi	r24, 0xD9	; 217
    124e:	94 e0       	ldi	r25, 0x04	; 4
    1250:	0e 94 ad 1d 	call	0x3b5a	; 0x3b5a <_ZN10W5100Class17getRXReceivedSizeEh>
    1254:	89 2b       	or	r24, r25
    1256:	29 f1       	breq	.+74     	; 0x12a2 <_ZN11EthernetUDP11parsePacketEv+0x82>
    1258:	48 e0       	ldi	r20, 0x08	; 8
    125a:	50 e0       	ldi	r21, 0x00	; 0
    125c:	be 01       	movw	r22, r28
    125e:	6f 5f       	subi	r22, 0xFF	; 255
    1260:	7f 4f       	sbci	r23, 0xFF	; 255
    1262:	d8 01       	movw	r26, r16
    1264:	1c 96       	adiw	r26, 0x0c	; 12
    1266:	8c 91       	ld	r24, X
    1268:	0e 94 76 1a 	call	0x34ec	; 0x34ec <_Z4recvhPhi>
    126c:	9c 01       	movw	r18, r24
    126e:	18 16       	cp	r1, r24
    1270:	19 06       	cpc	r1, r25
    1272:	cc f4       	brge	.+50     	; 0x12a6 <_ZN11EthernetUDP11parsePacketEv+0x86>
    1274:	be 01       	movw	r22, r28
    1276:	6f 5f       	subi	r22, 0xFF	; 255
    1278:	7f 4f       	sbci	r23, 0xFF	; 255
    127a:	c8 01       	movw	r24, r16
    127c:	0f 96       	adiw	r24, 0x0f	; 15
    127e:	0e 94 ac 0c 	call	0x1958	; 0x1958 <_ZN9IPAddressaSEPKh>
    1282:	9d 81       	ldd	r25, Y+5	; 0x05
    1284:	80 e0       	ldi	r24, 0x00	; 0
    1286:	2e 81       	ldd	r18, Y+6	; 0x06
    1288:	82 0f       	add	r24, r18
    128a:	91 1d       	adc	r25, r1
    128c:	f8 01       	movw	r30, r16
    128e:	96 8b       	std	Z+22, r25	; 0x16
    1290:	85 8b       	std	Z+21, r24	; 0x15
    1292:	3f 81       	ldd	r19, Y+7	; 0x07
    1294:	20 e0       	ldi	r18, 0x00	; 0
    1296:	88 85       	ldd	r24, Y+8	; 0x08
    1298:	28 0f       	add	r18, r24
    129a:	31 1d       	adc	r19, r1
    129c:	32 8f       	std	Z+26, r19	; 0x1a
    129e:	21 8f       	std	Z+25, r18	; 0x19
    12a0:	02 c0       	rjmp	.+4      	; 0x12a6 <_ZN11EthernetUDP11parsePacketEv+0x86>
    12a2:	20 e0       	ldi	r18, 0x00	; 0
    12a4:	30 e0       	ldi	r19, 0x00	; 0
    12a6:	c9 01       	movw	r24, r18
    12a8:	28 96       	adiw	r28, 0x08	; 8
    12aa:	0f b6       	in	r0, 0x3f	; 63
    12ac:	f8 94       	cli
    12ae:	de bf       	out	0x3e, r29	; 62
    12b0:	0f be       	out	0x3f, r0	; 63
    12b2:	cd bf       	out	0x3d, r28	; 61
    12b4:	df 91       	pop	r29
    12b6:	cf 91       	pop	r28
    12b8:	1f 91       	pop	r17
    12ba:	0f 91       	pop	r16
    12bc:	08 95       	ret

000012be <_ZN11EthernetUDP5beginEj>:
    12be:	cf 92       	push	r12
    12c0:	df 92       	push	r13
    12c2:	ef 92       	push	r14
    12c4:	ff 92       	push	r15
    12c6:	0f 93       	push	r16
    12c8:	1f 93       	push	r17
    12ca:	cf 93       	push	r28
    12cc:	df 93       	push	r29
    12ce:	ec 01       	movw	r28, r24
    12d0:	6b 01       	movw	r12, r22
    12d2:	8c 85       	ldd	r24, Y+12	; 0x0c
    12d4:	84 30       	cpi	r24, 0x04	; 4
    12d6:	19 f5       	brne	.+70     	; 0x131e <_ZN11EthernetUDP5beginEj+0x60>
    12d8:	93 e0       	ldi	r25, 0x03	; 3
    12da:	e9 2e       	mov	r14, r25
    12dc:	94 e0       	ldi	r25, 0x04	; 4
    12de:	f9 2e       	mov	r15, r25
    12e0:	00 e0       	ldi	r16, 0x00	; 0
    12e2:	10 e0       	ldi	r17, 0x00	; 0
    12e4:	c7 01       	movw	r24, r14
    12e6:	0e 94 20 1d 	call	0x3a40	; 0x3a40 <_ZN10W5100Class4readEj>
    12ea:	81 11       	cpse	r24, r1
    12ec:	02 c0       	rjmp	.+4      	; 0x12f2 <_ZN11EthernetUDP5beginEj+0x34>
    12ee:	0c 87       	std	Y+12, r16	; 0x0c
    12f0:	08 c0       	rjmp	.+16     	; 0x1302 <_ZN11EthernetUDP5beginEj+0x44>
    12f2:	88 31       	cpi	r24, 0x18	; 24
    12f4:	e1 f3       	breq	.-8      	; 0x12ee <_ZN11EthernetUDP5beginEj+0x30>
    12f6:	0f 5f       	subi	r16, 0xFF	; 255
    12f8:	1f 4f       	sbci	r17, 0xFF	; 255
    12fa:	f3 94       	inc	r15
    12fc:	04 30       	cpi	r16, 0x04	; 4
    12fe:	11 05       	cpc	r17, r1
    1300:	89 f7       	brne	.-30     	; 0x12e4 <_ZN11EthernetUDP5beginEj+0x26>
    1302:	8c 85       	ldd	r24, Y+12	; 0x0c
    1304:	84 30       	cpi	r24, 0x04	; 4
    1306:	59 f0       	breq	.+22     	; 0x131e <_ZN11EthernetUDP5beginEj+0x60>
    1308:	de 86       	std	Y+14, r13	; 0x0e
    130a:	cd 86       	std	Y+13, r12	; 0x0d
    130c:	1a 8e       	std	Y+26, r1	; 0x1a
    130e:	19 8e       	std	Y+25, r1	; 0x19
    1310:	20 e0       	ldi	r18, 0x00	; 0
    1312:	a6 01       	movw	r20, r12
    1314:	62 e0       	ldi	r22, 0x02	; 2
    1316:	0e 94 96 19 	call	0x332c	; 0x332c <_Z6sockethhjh>
    131a:	81 e0       	ldi	r24, 0x01	; 1
    131c:	01 c0       	rjmp	.+2      	; 0x1320 <_ZN11EthernetUDP5beginEj+0x62>
    131e:	80 e0       	ldi	r24, 0x00	; 0
    1320:	df 91       	pop	r29
    1322:	cf 91       	pop	r28
    1324:	1f 91       	pop	r17
    1326:	0f 91       	pop	r16
    1328:	ff 90       	pop	r15
    132a:	ef 90       	pop	r14
    132c:	df 90       	pop	r13
    132e:	cf 90       	pop	r12
    1330:	08 95       	ret

00001332 <_ZN11EthernetUDPC1Ev>:
    1332:	fc 01       	movw	r30, r24
    1334:	13 82       	std	Z+3, r1	; 0x03
    1336:	12 82       	std	Z+2, r1	; 0x02
    1338:	48 ee       	ldi	r20, 0xE8	; 232
    133a:	53 e0       	ldi	r21, 0x03	; 3
    133c:	60 e0       	ldi	r22, 0x00	; 0
    133e:	70 e0       	ldi	r23, 0x00	; 0
    1340:	44 83       	std	Z+4, r20	; 0x04
    1342:	55 83       	std	Z+5, r21	; 0x05
    1344:	66 83       	std	Z+6, r22	; 0x06
    1346:	77 83       	std	Z+7, r23	; 0x07
    1348:	88 e7       	ldi	r24, 0x78	; 120
    134a:	91 e0       	ldi	r25, 0x01	; 1
    134c:	91 83       	std	Z+1, r25	; 0x01
    134e:	80 83       	st	Z, r24
    1350:	84 e0       	ldi	r24, 0x04	; 4
    1352:	84 87       	std	Z+12, r24	; 0x0c
    1354:	cf 01       	movw	r24, r30
    1356:	0f 96       	adiw	r24, 0x0f	; 15
    1358:	0c 94 7c 0c 	jmp	0x18f8	; 0x18f8 <_ZN9IPAddressC1Ev>

0000135c <_ZN11EthernetUDP11beginPacketEPKcj>:
    135c:	cf 92       	push	r12
    135e:	df 92       	push	r13
    1360:	ef 92       	push	r14
    1362:	ff 92       	push	r15
    1364:	0f 93       	push	r16
    1366:	1f 93       	push	r17
    1368:	cf 93       	push	r28
    136a:	df 93       	push	r29
    136c:	cd b7       	in	r28, 0x3d	; 61
    136e:	de b7       	in	r29, 0x3e	; 62
    1370:	e5 97       	sbiw	r28, 0x35	; 53
    1372:	0f b6       	in	r0, 0x3f	; 63
    1374:	f8 94       	cli
    1376:	de bf       	out	0x3e, r29	; 62
    1378:	0f be       	out	0x3f, r0	; 63
    137a:	cd bf       	out	0x3d, r28	; 61
    137c:	7c 01       	movw	r14, r24
    137e:	8b 01       	movw	r16, r22
    1380:	6a 01       	movw	r12, r20
    1382:	ce 01       	movw	r24, r28
    1384:	01 96       	adiw	r24, 0x01	; 1
    1386:	0e 94 7c 0c 	call	0x18f8	; 0x18f8 <_ZN9IPAddressC1Ev>
    138a:	ce 01       	movw	r24, r28
    138c:	09 96       	adiw	r24, 0x09	; 9
    138e:	0e 94 99 09 	call	0x1332	; 0x1332 <_ZN11EthernetUDPC1Ev>
    1392:	ce 01       	movw	r24, r28
    1394:	c0 96       	adiw	r24, 0x30	; 48
    1396:	0e 94 7c 0c 	call	0x18f8	; 0x18f8 <_ZN9IPAddressC1Ev>
    139a:	64 ef       	ldi	r22, 0xF4	; 244
    139c:	73 e0       	ldi	r23, 0x03	; 3
    139e:	ce 01       	movw	r24, r28
    13a0:	8a 96       	adiw	r24, 0x2a	; 42
    13a2:	0e 94 a0 04 	call	0x940	; 0x940 <_ZN13EthernetClass11dnsServerIPEv>
    13a6:	be 01       	movw	r22, r28
    13a8:	66 5d       	subi	r22, 0xD6	; 214
    13aa:	7f 4f       	sbci	r23, 0xFF	; 255
    13ac:	ce 01       	movw	r24, r28
    13ae:	01 96       	adiw	r24, 0x01	; 1
    13b0:	0e 94 a1 24 	call	0x4942	; 0x4942 <_ZN9DNSClient5beginERK9IPAddress>
    13b4:	ae 01       	movw	r20, r28
    13b6:	40 5d       	subi	r20, 0xD0	; 208
    13b8:	5f 4f       	sbci	r21, 0xFF	; 255
    13ba:	b8 01       	movw	r22, r16
    13bc:	ce 01       	movw	r24, r28
    13be:	01 96       	adiw	r24, 0x01	; 1
    13c0:	0e 94 05 27 	call	0x4e0a	; 0x4e0a <_ZN9DNSClient13getHostByNameEPKcR9IPAddress>
    13c4:	9c 01       	movw	r18, r24
    13c6:	81 30       	cpi	r24, 0x01	; 1
    13c8:	91 05       	cpc	r25, r1
    13ca:	c9 f4       	brne	.+50     	; 0x13fe <_ZN11EthernetUDP11beginPacketEPKcj+0xa2>
    13cc:	d7 01       	movw	r26, r14
    13ce:	ed 91       	ld	r30, X+
    13d0:	fc 91       	ld	r31, X
    13d2:	00 88       	ldd	r0, Z+16	; 0x10
    13d4:	f1 89       	ldd	r31, Z+17	; 0x11
    13d6:	e0 2d       	mov	r30, r0
    13d8:	8c ea       	ldi	r24, 0xAC	; 172
    13da:	91 e0       	ldi	r25, 0x01	; 1
    13dc:	9d a3       	std	Y+37, r25	; 0x25
    13de:	8c a3       	std	Y+36, r24	; 0x24
    13e0:	0a a9       	ldd	r16, Y+50	; 0x32
    13e2:	1b a9       	ldd	r17, Y+51	; 0x33
    13e4:	2c a9       	ldd	r18, Y+52	; 0x34
    13e6:	3d a9       	ldd	r19, Y+53	; 0x35
    13e8:	0e a3       	std	Y+38, r16	; 0x26
    13ea:	1f a3       	std	Y+39, r17	; 0x27
    13ec:	28 a7       	std	Y+40, r18	; 0x28
    13ee:	39 a7       	std	Y+41, r19	; 0x29
    13f0:	a6 01       	movw	r20, r12
    13f2:	be 01       	movw	r22, r28
    13f4:	6c 5d       	subi	r22, 0xDC	; 220
    13f6:	7f 4f       	sbci	r23, 0xFF	; 255
    13f8:	c7 01       	movw	r24, r14
    13fa:	09 95       	icall
    13fc:	9c 01       	movw	r18, r24
    13fe:	c9 01       	movw	r24, r18
    1400:	e5 96       	adiw	r28, 0x35	; 53
    1402:	0f b6       	in	r0, 0x3f	; 63
    1404:	f8 94       	cli
    1406:	de bf       	out	0x3e, r29	; 62
    1408:	0f be       	out	0x3f, r0	; 63
    140a:	cd bf       	out	0x3d, r28	; 61
    140c:	df 91       	pop	r29
    140e:	cf 91       	pop	r28
    1410:	1f 91       	pop	r17
    1412:	0f 91       	pop	r16
    1414:	ff 90       	pop	r15
    1416:	ef 90       	pop	r14
    1418:	df 90       	pop	r13
    141a:	cf 90       	pop	r12
    141c:	08 95       	ret

0000141e <_ZN14HardwareSerial9availableEv>:
    141e:	fc 01       	movw	r30, r24
    1420:	84 85       	ldd	r24, Z+12	; 0x0c
    1422:	95 85       	ldd	r25, Z+13	; 0x0d
    1424:	fc 01       	movw	r30, r24
    1426:	e0 5c       	subi	r30, 0xC0	; 192
    1428:	ff 4f       	sbci	r31, 0xFF	; 255
    142a:	20 81       	ld	r18, Z
    142c:	31 81       	ldd	r19, Z+1	; 0x01
    142e:	fc 01       	movw	r30, r24
    1430:	ee 5b       	subi	r30, 0xBE	; 190
    1432:	ff 4f       	sbci	r31, 0xFF	; 255
    1434:	80 81       	ld	r24, Z
    1436:	91 81       	ldd	r25, Z+1	; 0x01
    1438:	28 1b       	sub	r18, r24
    143a:	39 0b       	sbc	r19, r25
    143c:	2f 73       	andi	r18, 0x3F	; 63
    143e:	33 27       	eor	r19, r19
    1440:	c9 01       	movw	r24, r18
    1442:	08 95       	ret

00001444 <_ZN14HardwareSerial4peekEv>:
    1444:	fc 01       	movw	r30, r24
    1446:	84 85       	ldd	r24, Z+12	; 0x0c
    1448:	95 85       	ldd	r25, Z+13	; 0x0d
    144a:	fc 01       	movw	r30, r24
    144c:	e0 5c       	subi	r30, 0xC0	; 192
    144e:	ff 4f       	sbci	r31, 0xFF	; 255
    1450:	40 81       	ld	r20, Z
    1452:	51 81       	ldd	r21, Z+1	; 0x01
    1454:	fc 01       	movw	r30, r24
    1456:	ee 5b       	subi	r30, 0xBE	; 190
    1458:	ff 4f       	sbci	r31, 0xFF	; 255
    145a:	20 81       	ld	r18, Z
    145c:	31 81       	ldd	r19, Z+1	; 0x01
    145e:	42 17       	cp	r20, r18
    1460:	53 07       	cpc	r21, r19
    1462:	41 f0       	breq	.+16     	; 0x1474 <_ZN14HardwareSerial4peekEv+0x30>
    1464:	01 90       	ld	r0, Z+
    1466:	f0 81       	ld	r31, Z
    1468:	e0 2d       	mov	r30, r0
    146a:	e8 0f       	add	r30, r24
    146c:	f9 1f       	adc	r31, r25
    146e:	20 81       	ld	r18, Z
    1470:	30 e0       	ldi	r19, 0x00	; 0
    1472:	02 c0       	rjmp	.+4      	; 0x1478 <_ZN14HardwareSerial4peekEv+0x34>
    1474:	2f ef       	ldi	r18, 0xFF	; 255
    1476:	3f ef       	ldi	r19, 0xFF	; 255
    1478:	c9 01       	movw	r24, r18
    147a:	08 95       	ret

0000147c <_ZN14HardwareSerial4readEv>:
    147c:	fc 01       	movw	r30, r24
    147e:	84 85       	ldd	r24, Z+12	; 0x0c
    1480:	95 85       	ldd	r25, Z+13	; 0x0d
    1482:	fc 01       	movw	r30, r24
    1484:	e0 5c       	subi	r30, 0xC0	; 192
    1486:	ff 4f       	sbci	r31, 0xFF	; 255
    1488:	40 81       	ld	r20, Z
    148a:	51 81       	ldd	r21, Z+1	; 0x01
    148c:	fc 01       	movw	r30, r24
    148e:	ee 5b       	subi	r30, 0xBE	; 190
    1490:	ff 4f       	sbci	r31, 0xFF	; 255
    1492:	20 81       	ld	r18, Z
    1494:	31 81       	ldd	r19, Z+1	; 0x01
    1496:	42 17       	cp	r20, r18
    1498:	53 07       	cpc	r21, r19
    149a:	71 f0       	breq	.+28     	; 0x14b8 <_ZN14HardwareSerial4readEv+0x3c>
    149c:	a0 81       	ld	r26, Z
    149e:	b1 81       	ldd	r27, Z+1	; 0x01
    14a0:	a8 0f       	add	r26, r24
    14a2:	b9 1f       	adc	r27, r25
    14a4:	2c 91       	ld	r18, X
    14a6:	80 81       	ld	r24, Z
    14a8:	91 81       	ldd	r25, Z+1	; 0x01
    14aa:	01 96       	adiw	r24, 0x01	; 1
    14ac:	8f 73       	andi	r24, 0x3F	; 63
    14ae:	99 27       	eor	r25, r25
    14b0:	91 83       	std	Z+1, r25	; 0x01
    14b2:	80 83       	st	Z, r24
    14b4:	30 e0       	ldi	r19, 0x00	; 0
    14b6:	02 c0       	rjmp	.+4      	; 0x14bc <_ZN14HardwareSerial4readEv+0x40>
    14b8:	2f ef       	ldi	r18, 0xFF	; 255
    14ba:	3f ef       	ldi	r19, 0xFF	; 255
    14bc:	c9 01       	movw	r24, r18
    14be:	08 95       	ret

000014c0 <_ZN14HardwareSerial5flushEv>:
    14c0:	fc 01       	movw	r30, r24
    14c2:	86 85       	ldd	r24, Z+14	; 0x0e
    14c4:	97 85       	ldd	r25, Z+15	; 0x0f
    14c6:	fc 01       	movw	r30, r24
    14c8:	e0 5c       	subi	r30, 0xC0	; 192
    14ca:	ff 4f       	sbci	r31, 0xFF	; 255
    14cc:	dc 01       	movw	r26, r24
    14ce:	ae 5b       	subi	r26, 0xBE	; 190
    14d0:	bf 4f       	sbci	r27, 0xFF	; 255
    14d2:	40 81       	ld	r20, Z
    14d4:	51 81       	ldd	r21, Z+1	; 0x01
    14d6:	2d 91       	ld	r18, X+
    14d8:	3c 91       	ld	r19, X
    14da:	11 97       	sbiw	r26, 0x01	; 1
    14dc:	42 17       	cp	r20, r18
    14de:	53 07       	cpc	r21, r19
    14e0:	c1 f7       	brne	.-16     	; 0x14d2 <_ZN14HardwareSerial5flushEv+0x12>
    14e2:	08 95       	ret

000014e4 <_ZN14HardwareSerial5writeEh>:
    14e4:	cf 93       	push	r28
    14e6:	df 93       	push	r29
    14e8:	fc 01       	movw	r30, r24
    14ea:	26 85       	ldd	r18, Z+14	; 0x0e
    14ec:	37 85       	ldd	r19, Z+15	; 0x0f
    14ee:	d9 01       	movw	r26, r18
    14f0:	a0 5c       	subi	r26, 0xC0	; 192
    14f2:	bf 4f       	sbci	r27, 0xFF	; 255
    14f4:	8d 91       	ld	r24, X+
    14f6:	9c 91       	ld	r25, X
    14f8:	11 97       	sbiw	r26, 0x01	; 1
    14fa:	01 96       	adiw	r24, 0x01	; 1
    14fc:	8f 73       	andi	r24, 0x3F	; 63
    14fe:	99 27       	eor	r25, r25
    1500:	e9 01       	movw	r28, r18
    1502:	ce 5b       	subi	r28, 0xBE	; 190
    1504:	df 4f       	sbci	r29, 0xFF	; 255
    1506:	48 81       	ld	r20, Y
    1508:	59 81       	ldd	r21, Y+1	; 0x01
    150a:	84 17       	cp	r24, r20
    150c:	95 07       	cpc	r25, r21
    150e:	d9 f3       	breq	.-10     	; 0x1506 <_ZN14HardwareSerial5writeEh+0x22>
    1510:	0d 90       	ld	r0, X+
    1512:	bc 91       	ld	r27, X
    1514:	a0 2d       	mov	r26, r0
    1516:	a2 0f       	add	r26, r18
    1518:	b3 1f       	adc	r27, r19
    151a:	6c 93       	st	X, r22
    151c:	a6 85       	ldd	r26, Z+14	; 0x0e
    151e:	b7 85       	ldd	r27, Z+15	; 0x0f
    1520:	a0 5c       	subi	r26, 0xC0	; 192
    1522:	bf 4f       	sbci	r27, 0xFF	; 255
    1524:	11 96       	adiw	r26, 0x01	; 1
    1526:	9c 93       	st	X, r25
    1528:	8e 93       	st	-X, r24
    152a:	a6 89       	ldd	r26, Z+22	; 0x16
    152c:	b7 89       	ldd	r27, Z+23	; 0x17
    152e:	2c 91       	ld	r18, X
    1530:	81 e0       	ldi	r24, 0x01	; 1
    1532:	90 e0       	ldi	r25, 0x00	; 0
    1534:	05 8c       	ldd	r0, Z+29	; 0x1d
    1536:	02 c0       	rjmp	.+4      	; 0x153c <_ZN14HardwareSerial5writeEh+0x58>
    1538:	88 0f       	add	r24, r24
    153a:	99 1f       	adc	r25, r25
    153c:	0a 94       	dec	r0
    153e:	e2 f7       	brpl	.-8      	; 0x1538 <_ZN14HardwareSerial5writeEh+0x54>
    1540:	28 2b       	or	r18, r24
    1542:	2c 93       	st	X, r18
    1544:	81 e0       	ldi	r24, 0x01	; 1
    1546:	90 e0       	ldi	r25, 0x00	; 0
    1548:	df 91       	pop	r29
    154a:	cf 91       	pop	r28
    154c:	08 95       	ret

0000154e <_Z11serialEventv>:
    154e:	08 95       	ret

00001550 <__vector_18>:
    1550:	1f 92       	push	r1
    1552:	0f 92       	push	r0
    1554:	0f b6       	in	r0, 0x3f	; 63
    1556:	0f 92       	push	r0
    1558:	11 24       	eor	r1, r1
    155a:	2f 93       	push	r18
    155c:	3f 93       	push	r19
    155e:	4f 93       	push	r20
    1560:	8f 93       	push	r24
    1562:	9f 93       	push	r25
    1564:	ef 93       	push	r30
    1566:	ff 93       	push	r31
    1568:	40 91 c6 00 	lds	r20, 0x00C6
    156c:	80 91 c3 04 	lds	r24, 0x04C3
    1570:	90 91 c4 04 	lds	r25, 0x04C4
    1574:	01 96       	adiw	r24, 0x01	; 1
    1576:	8f 73       	andi	r24, 0x3F	; 63
    1578:	99 27       	eor	r25, r25
    157a:	20 91 c5 04 	lds	r18, 0x04C5
    157e:	30 91 c6 04 	lds	r19, 0x04C6
    1582:	82 17       	cp	r24, r18
    1584:	93 07       	cpc	r25, r19
    1586:	59 f0       	breq	.+22     	; 0x159e <__vector_18+0x4e>
    1588:	e0 91 c3 04 	lds	r30, 0x04C3
    158c:	f0 91 c4 04 	lds	r31, 0x04C4
    1590:	ed 57       	subi	r30, 0x7D	; 125
    1592:	fb 4f       	sbci	r31, 0xFB	; 251
    1594:	40 83       	st	Z, r20
    1596:	90 93 c4 04 	sts	0x04C4, r25
    159a:	80 93 c3 04 	sts	0x04C3, r24
    159e:	ff 91       	pop	r31
    15a0:	ef 91       	pop	r30
    15a2:	9f 91       	pop	r25
    15a4:	8f 91       	pop	r24
    15a6:	4f 91       	pop	r20
    15a8:	3f 91       	pop	r19
    15aa:	2f 91       	pop	r18
    15ac:	0f 90       	pop	r0
    15ae:	0f be       	out	0x3f, r0	; 63
    15b0:	0f 90       	pop	r0
    15b2:	1f 90       	pop	r1
    15b4:	18 95       	reti

000015b6 <_Z14serialEventRunv>:
    15b6:	80 e2       	ldi	r24, 0x20	; 32
    15b8:	94 e0       	ldi	r25, 0x04	; 4
    15ba:	0e 94 0f 0a 	call	0x141e	; 0x141e <_ZN14HardwareSerial9availableEv>
    15be:	89 2b       	or	r24, r25
    15c0:	11 f0       	breq	.+4      	; 0x15c6 <_Z14serialEventRunv+0x10>
    15c2:	0c 94 a7 0a 	jmp	0x154e	; 0x154e <_Z11serialEventv>
    15c6:	08 95       	ret

000015c8 <__vector_19>:
    15c8:	1f 92       	push	r1
    15ca:	0f 92       	push	r0
    15cc:	0f b6       	in	r0, 0x3f	; 63
    15ce:	0f 92       	push	r0
    15d0:	11 24       	eor	r1, r1
    15d2:	2f 93       	push	r18
    15d4:	3f 93       	push	r19
    15d6:	8f 93       	push	r24
    15d8:	9f 93       	push	r25
    15da:	ef 93       	push	r30
    15dc:	ff 93       	push	r31
    15de:	20 91 7f 04 	lds	r18, 0x047F
    15e2:	30 91 80 04 	lds	r19, 0x0480
    15e6:	80 91 81 04 	lds	r24, 0x0481
    15ea:	90 91 82 04 	lds	r25, 0x0482
    15ee:	28 17       	cp	r18, r24
    15f0:	39 07       	cpc	r19, r25
    15f2:	31 f4       	brne	.+12     	; 0x1600 <__vector_19+0x38>
    15f4:	80 91 c1 00 	lds	r24, 0x00C1
    15f8:	8f 7d       	andi	r24, 0xDF	; 223
    15fa:	80 93 c1 00 	sts	0x00C1, r24
    15fe:	14 c0       	rjmp	.+40     	; 0x1628 <__vector_19+0x60>
    1600:	e0 91 81 04 	lds	r30, 0x0481
    1604:	f0 91 82 04 	lds	r31, 0x0482
    1608:	e1 5c       	subi	r30, 0xC1	; 193
    160a:	fb 4f       	sbci	r31, 0xFB	; 251
    160c:	20 81       	ld	r18, Z
    160e:	80 91 81 04 	lds	r24, 0x0481
    1612:	90 91 82 04 	lds	r25, 0x0482
    1616:	01 96       	adiw	r24, 0x01	; 1
    1618:	8f 73       	andi	r24, 0x3F	; 63
    161a:	99 27       	eor	r25, r25
    161c:	90 93 82 04 	sts	0x0482, r25
    1620:	80 93 81 04 	sts	0x0481, r24
    1624:	20 93 c6 00 	sts	0x00C6, r18
    1628:	ff 91       	pop	r31
    162a:	ef 91       	pop	r30
    162c:	9f 91       	pop	r25
    162e:	8f 91       	pop	r24
    1630:	3f 91       	pop	r19
    1632:	2f 91       	pop	r18
    1634:	0f 90       	pop	r0
    1636:	0f be       	out	0x3f, r0	; 63
    1638:	0f 90       	pop	r0
    163a:	1f 90       	pop	r1
    163c:	18 95       	reti

0000163e <_ZN14HardwareSerialC1EP11ring_bufferS1_PVhS3_S3_S3_S3_hhhhh>:
    163e:	4f 92       	push	r4
    1640:	5f 92       	push	r5
    1642:	6f 92       	push	r6
    1644:	7f 92       	push	r7
    1646:	8f 92       	push	r8
    1648:	af 92       	push	r10
    164a:	bf 92       	push	r11
    164c:	cf 92       	push	r12
    164e:	df 92       	push	r13
    1650:	ef 92       	push	r14
    1652:	ff 92       	push	r15
    1654:	0f 93       	push	r16
    1656:	1f 93       	push	r17
    1658:	cf 93       	push	r28
    165a:	df 93       	push	r29
    165c:	cd b7       	in	r28, 0x3d	; 61
    165e:	de b7       	in	r29, 0x3e	; 62
    1660:	fc 01       	movw	r30, r24
    1662:	13 82       	std	Z+3, r1	; 0x03
    1664:	12 82       	std	Z+2, r1	; 0x02
    1666:	88 ee       	ldi	r24, 0xE8	; 232
    1668:	48 2e       	mov	r4, r24
    166a:	83 e0       	ldi	r24, 0x03	; 3
    166c:	58 2e       	mov	r5, r24
    166e:	61 2c       	mov	r6, r1
    1670:	71 2c       	mov	r7, r1
    1672:	44 82       	std	Z+4, r4	; 0x04
    1674:	55 82       	std	Z+5, r5	; 0x05
    1676:	66 82       	std	Z+6, r6	; 0x06
    1678:	77 82       	std	Z+7, r7	; 0x07
    167a:	8c e9       	ldi	r24, 0x9C	; 156
    167c:	91 e0       	ldi	r25, 0x01	; 1
    167e:	91 83       	std	Z+1, r25	; 0x01
    1680:	80 83       	st	Z, r24
    1682:	75 87       	std	Z+13, r23	; 0x0d
    1684:	64 87       	std	Z+12, r22	; 0x0c
    1686:	57 87       	std	Z+15, r21	; 0x0f
    1688:	46 87       	std	Z+14, r20	; 0x0e
    168a:	31 8b       	std	Z+17, r19	; 0x11
    168c:	20 8b       	std	Z+16, r18	; 0x10
    168e:	13 8b       	std	Z+19, r17	; 0x13
    1690:	02 8b       	std	Z+18, r16	; 0x12
    1692:	f5 8a       	std	Z+21, r15	; 0x15
    1694:	e4 8a       	std	Z+20, r14	; 0x14
    1696:	d7 8a       	std	Z+23, r13	; 0x17
    1698:	c6 8a       	std	Z+22, r12	; 0x16
    169a:	b1 8e       	std	Z+25, r11	; 0x19
    169c:	a0 8e       	std	Z+24, r10	; 0x18
    169e:	82 8e       	std	Z+26, r8	; 0x1a
    16a0:	8a 89       	ldd	r24, Y+18	; 0x12
    16a2:	83 8f       	std	Z+27, r24	; 0x1b
    16a4:	8b 89       	ldd	r24, Y+19	; 0x13
    16a6:	84 8f       	std	Z+28, r24	; 0x1c
    16a8:	8c 89       	ldd	r24, Y+20	; 0x14
    16aa:	85 8f       	std	Z+29, r24	; 0x1d
    16ac:	8d 89       	ldd	r24, Y+21	; 0x15
    16ae:	86 8f       	std	Z+30, r24	; 0x1e
    16b0:	df 91       	pop	r29
    16b2:	cf 91       	pop	r28
    16b4:	1f 91       	pop	r17
    16b6:	0f 91       	pop	r16
    16b8:	ff 90       	pop	r15
    16ba:	ef 90       	pop	r14
    16bc:	df 90       	pop	r13
    16be:	cf 90       	pop	r12
    16c0:	bf 90       	pop	r11
    16c2:	af 90       	pop	r10
    16c4:	8f 90       	pop	r8
    16c6:	7f 90       	pop	r7
    16c8:	6f 90       	pop	r6
    16ca:	5f 90       	pop	r5
    16cc:	4f 90       	pop	r4
    16ce:	08 95       	ret

000016d0 <_ZN14HardwareSerial5beginEm>:
    16d0:	cf 92       	push	r12
    16d2:	df 92       	push	r13
    16d4:	ef 92       	push	r14
    16d6:	ff 92       	push	r15
    16d8:	cf 93       	push	r28
    16da:	df 93       	push	r29
    16dc:	ec 01       	movw	r28, r24
    16de:	6a 01       	movw	r12, r20
    16e0:	7b 01       	movw	r14, r22
    16e2:	41 15       	cp	r20, r1
    16e4:	81 ee       	ldi	r24, 0xE1	; 225
    16e6:	58 07       	cpc	r21, r24
    16e8:	61 05       	cpc	r22, r1
    16ea:	71 05       	cpc	r23, r1
    16ec:	f9 f0       	breq	.+62     	; 0x172c <_ZN14HardwareSerial5beginEm+0x5c>
    16ee:	ec 89       	ldd	r30, Y+20	; 0x14
    16f0:	fd 89       	ldd	r31, Y+21	; 0x15
    16f2:	81 e0       	ldi	r24, 0x01	; 1
    16f4:	90 e0       	ldi	r25, 0x00	; 0
    16f6:	0e 8c       	ldd	r0, Y+30	; 0x1e
    16f8:	02 c0       	rjmp	.+4      	; 0x16fe <_ZN14HardwareSerial5beginEm+0x2e>
    16fa:	88 0f       	add	r24, r24
    16fc:	99 1f       	adc	r25, r25
    16fe:	0a 94       	dec	r0
    1700:	e2 f7       	brpl	.-8      	; 0x16fa <_ZN14HardwareSerial5beginEm+0x2a>
    1702:	80 83       	st	Z, r24
    1704:	60 e0       	ldi	r22, 0x00	; 0
    1706:	79 e0       	ldi	r23, 0x09	; 9
    1708:	8d e3       	ldi	r24, 0x3D	; 61
    170a:	90 e0       	ldi	r25, 0x00	; 0
    170c:	a7 01       	movw	r20, r14
    170e:	96 01       	movw	r18, r12
    1710:	0e 94 b1 30 	call	0x6162	; 0x6162 <__udivmodsi4>
    1714:	21 50       	subi	r18, 0x01	; 1
    1716:	31 09       	sbc	r19, r1
    1718:	41 09       	sbc	r20, r1
    171a:	51 09       	sbc	r21, r1
    171c:	56 95       	lsr	r21
    171e:	47 95       	ror	r20
    1720:	37 95       	ror	r19
    1722:	27 95       	ror	r18
    1724:	21 15       	cp	r18, r1
    1726:	80 e1       	ldi	r24, 0x10	; 16
    1728:	38 07       	cpc	r19, r24
    172a:	98 f0       	brcs	.+38     	; 0x1752 <_ZN14HardwareSerial5beginEm+0x82>
    172c:	ec 89       	ldd	r30, Y+20	; 0x14
    172e:	fd 89       	ldd	r31, Y+21	; 0x15
    1730:	10 82       	st	Z, r1
    1732:	60 e8       	ldi	r22, 0x80	; 128
    1734:	74 e8       	ldi	r23, 0x84	; 132
    1736:	8e e1       	ldi	r24, 0x1E	; 30
    1738:	90 e0       	ldi	r25, 0x00	; 0
    173a:	a7 01       	movw	r20, r14
    173c:	96 01       	movw	r18, r12
    173e:	0e 94 b1 30 	call	0x6162	; 0x6162 <__udivmodsi4>
    1742:	21 50       	subi	r18, 0x01	; 1
    1744:	31 09       	sbc	r19, r1
    1746:	41 09       	sbc	r20, r1
    1748:	51 09       	sbc	r21, r1
    174a:	56 95       	lsr	r21
    174c:	47 95       	ror	r20
    174e:	37 95       	ror	r19
    1750:	27 95       	ror	r18
    1752:	e8 89       	ldd	r30, Y+16	; 0x10
    1754:	f9 89       	ldd	r31, Y+17	; 0x11
    1756:	30 83       	st	Z, r19
    1758:	ea 89       	ldd	r30, Y+18	; 0x12
    175a:	fb 89       	ldd	r31, Y+19	; 0x13
    175c:	20 83       	st	Z, r18
    175e:	ee 89       	ldd	r30, Y+22	; 0x16
    1760:	ff 89       	ldd	r31, Y+23	; 0x17
    1762:	40 81       	ld	r20, Z
    1764:	81 e0       	ldi	r24, 0x01	; 1
    1766:	90 e0       	ldi	r25, 0x00	; 0
    1768:	9c 01       	movw	r18, r24
    176a:	0a 8c       	ldd	r0, Y+26	; 0x1a
    176c:	02 c0       	rjmp	.+4      	; 0x1772 <_ZN14HardwareSerial5beginEm+0xa2>
    176e:	22 0f       	add	r18, r18
    1770:	33 1f       	adc	r19, r19
    1772:	0a 94       	dec	r0
    1774:	e2 f7       	brpl	.-8      	; 0x176e <_ZN14HardwareSerial5beginEm+0x9e>
    1776:	42 2b       	or	r20, r18
    1778:	40 83       	st	Z, r20
    177a:	ee 89       	ldd	r30, Y+22	; 0x16
    177c:	ff 89       	ldd	r31, Y+23	; 0x17
    177e:	40 81       	ld	r20, Z
    1780:	9c 01       	movw	r18, r24
    1782:	0b 8c       	ldd	r0, Y+27	; 0x1b
    1784:	02 c0       	rjmp	.+4      	; 0x178a <_ZN14HardwareSerial5beginEm+0xba>
    1786:	22 0f       	add	r18, r18
    1788:	33 1f       	adc	r19, r19
    178a:	0a 94       	dec	r0
    178c:	e2 f7       	brpl	.-8      	; 0x1786 <_ZN14HardwareSerial5beginEm+0xb6>
    178e:	42 2b       	or	r20, r18
    1790:	40 83       	st	Z, r20
    1792:	ee 89       	ldd	r30, Y+22	; 0x16
    1794:	ff 89       	ldd	r31, Y+23	; 0x17
    1796:	40 81       	ld	r20, Z
    1798:	9c 01       	movw	r18, r24
    179a:	0c 8c       	ldd	r0, Y+28	; 0x1c
    179c:	02 c0       	rjmp	.+4      	; 0x17a2 <_ZN14HardwareSerial5beginEm+0xd2>
    179e:	22 0f       	add	r18, r18
    17a0:	33 1f       	adc	r19, r19
    17a2:	0a 94       	dec	r0
    17a4:	e2 f7       	brpl	.-8      	; 0x179e <_ZN14HardwareSerial5beginEm+0xce>
    17a6:	42 2b       	or	r20, r18
    17a8:	40 83       	st	Z, r20
    17aa:	ee 89       	ldd	r30, Y+22	; 0x16
    17ac:	ff 89       	ldd	r31, Y+23	; 0x17
    17ae:	20 81       	ld	r18, Z
    17b0:	0d 8c       	ldd	r0, Y+29	; 0x1d
    17b2:	02 c0       	rjmp	.+4      	; 0x17b8 <_ZN14HardwareSerial5beginEm+0xe8>
    17b4:	88 0f       	add	r24, r24
    17b6:	99 1f       	adc	r25, r25
    17b8:	0a 94       	dec	r0
    17ba:	e2 f7       	brpl	.-8      	; 0x17b4 <_ZN14HardwareSerial5beginEm+0xe4>
    17bc:	80 95       	com	r24
    17be:	82 23       	and	r24, r18
    17c0:	80 83       	st	Z, r24
    17c2:	df 91       	pop	r29
    17c4:	cf 91       	pop	r28
    17c6:	ff 90       	pop	r15
    17c8:	ef 90       	pop	r14
    17ca:	df 90       	pop	r13
    17cc:	cf 90       	pop	r12
    17ce:	08 95       	ret

000017d0 <_ZN14HardwareSerial3endEv>:
    17d0:	cf 93       	push	r28
    17d2:	df 93       	push	r29
    17d4:	fc 01       	movw	r30, r24
    17d6:	86 85       	ldd	r24, Z+14	; 0x0e
    17d8:	97 85       	ldd	r25, Z+15	; 0x0f
    17da:	dc 01       	movw	r26, r24
    17dc:	a0 5c       	subi	r26, 0xC0	; 192
    17de:	bf 4f       	sbci	r27, 0xFF	; 255
    17e0:	ec 01       	movw	r28, r24
    17e2:	ce 5b       	subi	r28, 0xBE	; 190
    17e4:	df 4f       	sbci	r29, 0xFF	; 255
    17e6:	4d 91       	ld	r20, X+
    17e8:	5c 91       	ld	r21, X
    17ea:	11 97       	sbiw	r26, 0x01	; 1
    17ec:	28 81       	ld	r18, Y
    17ee:	39 81       	ldd	r19, Y+1	; 0x01
    17f0:	42 17       	cp	r20, r18
    17f2:	53 07       	cpc	r21, r19
    17f4:	c1 f7       	brne	.-16     	; 0x17e6 <_ZN14HardwareSerial3endEv+0x16>
    17f6:	a6 89       	ldd	r26, Z+22	; 0x16
    17f8:	b7 89       	ldd	r27, Z+23	; 0x17
    17fa:	4c 91       	ld	r20, X
    17fc:	81 e0       	ldi	r24, 0x01	; 1
    17fe:	90 e0       	ldi	r25, 0x00	; 0
    1800:	9c 01       	movw	r18, r24
    1802:	02 8c       	ldd	r0, Z+26	; 0x1a
    1804:	02 c0       	rjmp	.+4      	; 0x180a <_ZN14HardwareSerial3endEv+0x3a>
    1806:	22 0f       	add	r18, r18
    1808:	33 1f       	adc	r19, r19
    180a:	0a 94       	dec	r0
    180c:	e2 f7       	brpl	.-8      	; 0x1806 <_ZN14HardwareSerial3endEv+0x36>
    180e:	20 95       	com	r18
    1810:	24 23       	and	r18, r20
    1812:	2c 93       	st	X, r18
    1814:	a6 89       	ldd	r26, Z+22	; 0x16
    1816:	b7 89       	ldd	r27, Z+23	; 0x17
    1818:	4c 91       	ld	r20, X
    181a:	9c 01       	movw	r18, r24
    181c:	03 8c       	ldd	r0, Z+27	; 0x1b
    181e:	02 c0       	rjmp	.+4      	; 0x1824 <_ZN14HardwareSerial3endEv+0x54>
    1820:	22 0f       	add	r18, r18
    1822:	33 1f       	adc	r19, r19
    1824:	0a 94       	dec	r0
    1826:	e2 f7       	brpl	.-8      	; 0x1820 <_ZN14HardwareSerial3endEv+0x50>
    1828:	20 95       	com	r18
    182a:	24 23       	and	r18, r20
    182c:	2c 93       	st	X, r18
    182e:	a6 89       	ldd	r26, Z+22	; 0x16
    1830:	b7 89       	ldd	r27, Z+23	; 0x17
    1832:	4c 91       	ld	r20, X
    1834:	9c 01       	movw	r18, r24
    1836:	04 8c       	ldd	r0, Z+28	; 0x1c
    1838:	02 c0       	rjmp	.+4      	; 0x183e <_ZN14HardwareSerial3endEv+0x6e>
    183a:	22 0f       	add	r18, r18
    183c:	33 1f       	adc	r19, r19
    183e:	0a 94       	dec	r0
    1840:	e2 f7       	brpl	.-8      	; 0x183a <_ZN14HardwareSerial3endEv+0x6a>
    1842:	20 95       	com	r18
    1844:	24 23       	and	r18, r20
    1846:	2c 93       	st	X, r18
    1848:	a6 89       	ldd	r26, Z+22	; 0x16
    184a:	b7 89       	ldd	r27, Z+23	; 0x17
    184c:	2c 91       	ld	r18, X
    184e:	05 8c       	ldd	r0, Z+29	; 0x1d
    1850:	02 c0       	rjmp	.+4      	; 0x1856 <_ZN14HardwareSerial3endEv+0x86>
    1852:	88 0f       	add	r24, r24
    1854:	99 1f       	adc	r25, r25
    1856:	0a 94       	dec	r0
    1858:	e2 f7       	brpl	.-8      	; 0x1852 <_ZN14HardwareSerial3endEv+0x82>
    185a:	80 95       	com	r24
    185c:	82 23       	and	r24, r18
    185e:	8c 93       	st	X, r24
    1860:	84 85       	ldd	r24, Z+12	; 0x0c
    1862:	95 85       	ldd	r25, Z+13	; 0x0d
    1864:	fc 01       	movw	r30, r24
    1866:	ee 5b       	subi	r30, 0xBE	; 190
    1868:	ff 4f       	sbci	r31, 0xFF	; 255
    186a:	20 81       	ld	r18, Z
    186c:	31 81       	ldd	r19, Z+1	; 0x01
    186e:	fc 01       	movw	r30, r24
    1870:	e0 5c       	subi	r30, 0xC0	; 192
    1872:	ff 4f       	sbci	r31, 0xFF	; 255
    1874:	31 83       	std	Z+1, r19	; 0x01
    1876:	20 83       	st	Z, r18
    1878:	df 91       	pop	r29
    187a:	cf 91       	pop	r28
    187c:	08 95       	ret

0000187e <_ZN14HardwareSerialcvbEv>:
    187e:	81 e0       	ldi	r24, 0x01	; 1
    1880:	08 95       	ret

00001882 <_ZNK9IPAddress7printToER5Print>:
    1882:	af 92       	push	r10
    1884:	bf 92       	push	r11
    1886:	cf 92       	push	r12
    1888:	df 92       	push	r13
    188a:	ef 92       	push	r14
    188c:	ff 92       	push	r15
    188e:	0f 93       	push	r16
    1890:	1f 93       	push	r17
    1892:	cf 93       	push	r28
    1894:	df 93       	push	r29
    1896:	6c 01       	movw	r12, r24
    1898:	7b 01       	movw	r14, r22
    189a:	c0 e0       	ldi	r28, 0x00	; 0
    189c:	d0 e0       	ldi	r29, 0x00	; 0
    189e:	00 e0       	ldi	r16, 0x00	; 0
    18a0:	10 e0       	ldi	r17, 0x00	; 0
    18a2:	f6 01       	movw	r30, r12
    18a4:	ec 0f       	add	r30, r28
    18a6:	fd 1f       	adc	r31, r29
    18a8:	4a e0       	ldi	r20, 0x0A	; 10
    18aa:	50 e0       	ldi	r21, 0x00	; 0
    18ac:	62 81       	ldd	r22, Z+2	; 0x02
    18ae:	c7 01       	movw	r24, r14
    18b0:	0e 94 73 0e 	call	0x1ce6	; 0x1ce6 <_ZN5Print5printEhi>
    18b4:	5c 01       	movw	r10, r24
    18b6:	6e e2       	ldi	r22, 0x2E	; 46
    18b8:	c7 01       	movw	r24, r14
    18ba:	0e 94 4d 0d 	call	0x1a9a	; 0x1a9a <_ZN5Print5printEc>
    18be:	8a 0d       	add	r24, r10
    18c0:	9b 1d       	adc	r25, r11
    18c2:	08 0f       	add	r16, r24
    18c4:	19 1f       	adc	r17, r25
    18c6:	21 96       	adiw	r28, 0x01	; 1
    18c8:	c3 30       	cpi	r28, 0x03	; 3
    18ca:	d1 05       	cpc	r29, r1
    18cc:	51 f7       	brne	.-44     	; 0x18a2 <_ZNK9IPAddress7printToER5Print+0x20>
    18ce:	4a e0       	ldi	r20, 0x0A	; 10
    18d0:	50 e0       	ldi	r21, 0x00	; 0
    18d2:	f6 01       	movw	r30, r12
    18d4:	65 81       	ldd	r22, Z+5	; 0x05
    18d6:	c7 01       	movw	r24, r14
    18d8:	0e 94 73 0e 	call	0x1ce6	; 0x1ce6 <_ZN5Print5printEhi>
    18dc:	08 0f       	add	r16, r24
    18de:	19 1f       	adc	r17, r25
    18e0:	c8 01       	movw	r24, r16
    18e2:	df 91       	pop	r29
    18e4:	cf 91       	pop	r28
    18e6:	1f 91       	pop	r17
    18e8:	0f 91       	pop	r16
    18ea:	ff 90       	pop	r15
    18ec:	ef 90       	pop	r14
    18ee:	df 90       	pop	r13
    18f0:	cf 90       	pop	r12
    18f2:	bf 90       	pop	r11
    18f4:	af 90       	pop	r10
    18f6:	08 95       	ret

000018f8 <_ZN9IPAddressC1Ev>:
    18f8:	2c ea       	ldi	r18, 0xAC	; 172
    18fa:	31 e0       	ldi	r19, 0x01	; 1
    18fc:	fc 01       	movw	r30, r24
    18fe:	31 83       	std	Z+1, r19	; 0x01
    1900:	20 83       	st	Z, r18
    1902:	12 82       	std	Z+2, r1	; 0x02
    1904:	13 82       	std	Z+3, r1	; 0x03
    1906:	14 82       	std	Z+4, r1	; 0x04
    1908:	15 82       	std	Z+5, r1	; 0x05
    190a:	08 95       	ret

0000190c <_ZN9IPAddressC1Ehhhh>:
    190c:	0f 93       	push	r16
    190e:	fc 01       	movw	r30, r24
    1910:	8c ea       	ldi	r24, 0xAC	; 172
    1912:	91 e0       	ldi	r25, 0x01	; 1
    1914:	91 83       	std	Z+1, r25	; 0x01
    1916:	80 83       	st	Z, r24
    1918:	62 83       	std	Z+2, r22	; 0x02
    191a:	43 83       	std	Z+3, r20	; 0x03
    191c:	24 83       	std	Z+4, r18	; 0x04
    191e:	05 83       	std	Z+5, r16	; 0x05
    1920:	0f 91       	pop	r16
    1922:	08 95       	ret

00001924 <_ZN9IPAddressC1Em>:
    1924:	2c ea       	ldi	r18, 0xAC	; 172
    1926:	31 e0       	ldi	r19, 0x01	; 1
    1928:	fc 01       	movw	r30, r24
    192a:	31 83       	std	Z+1, r19	; 0x01
    192c:	20 83       	st	Z, r18
    192e:	42 83       	std	Z+2, r20	; 0x02
    1930:	53 83       	std	Z+3, r21	; 0x03
    1932:	64 83       	std	Z+4, r22	; 0x04
    1934:	75 83       	std	Z+5, r23	; 0x05
    1936:	08 95       	ret

00001938 <_ZN9IPAddressC1EPKh>:
    1938:	2c ea       	ldi	r18, 0xAC	; 172
    193a:	31 e0       	ldi	r19, 0x01	; 1
    193c:	fc 01       	movw	r30, r24
    193e:	31 83       	std	Z+1, r19	; 0x01
    1940:	20 83       	st	Z, r18
    1942:	fb 01       	movw	r30, r22
    1944:	40 81       	ld	r20, Z
    1946:	51 81       	ldd	r21, Z+1	; 0x01
    1948:	62 81       	ldd	r22, Z+2	; 0x02
    194a:	73 81       	ldd	r23, Z+3	; 0x03
    194c:	fc 01       	movw	r30, r24
    194e:	42 83       	std	Z+2, r20	; 0x02
    1950:	53 83       	std	Z+3, r21	; 0x03
    1952:	64 83       	std	Z+4, r22	; 0x04
    1954:	75 83       	std	Z+5, r23	; 0x05
    1956:	08 95       	ret

00001958 <_ZN9IPAddressaSEPKh>:
    1958:	fc 01       	movw	r30, r24
    195a:	db 01       	movw	r26, r22
    195c:	4d 91       	ld	r20, X+
    195e:	5d 91       	ld	r21, X+
    1960:	6d 91       	ld	r22, X+
    1962:	7c 91       	ld	r23, X
    1964:	42 83       	std	Z+2, r20	; 0x02
    1966:	53 83       	std	Z+3, r21	; 0x03
    1968:	64 83       	std	Z+4, r22	; 0x04
    196a:	75 83       	std	Z+5, r23	; 0x05
    196c:	08 95       	ret

0000196e <_ZN9IPAddressaSEm>:
    196e:	fc 01       	movw	r30, r24
    1970:	42 83       	std	Z+2, r20	; 0x02
    1972:	53 83       	std	Z+3, r21	; 0x03
    1974:	64 83       	std	Z+4, r22	; 0x04
    1976:	75 83       	std	Z+5, r23	; 0x05
    1978:	08 95       	ret

0000197a <_ZN9IPAddresseqEPKh>:
    197a:	9b 01       	movw	r18, r22
    197c:	bc 01       	movw	r22, r24
    197e:	6e 5f       	subi	r22, 0xFE	; 254
    1980:	7f 4f       	sbci	r23, 0xFF	; 255
    1982:	44 e0       	ldi	r20, 0x04	; 4
    1984:	50 e0       	ldi	r21, 0x00	; 0
    1986:	c9 01       	movw	r24, r18
    1988:	0e 94 01 34 	call	0x6802	; 0x6802 <memcmp>
    198c:	9c 01       	movw	r18, r24
    198e:	81 e0       	ldi	r24, 0x01	; 1
    1990:	23 2b       	or	r18, r19
    1992:	09 f0       	breq	.+2      	; 0x1996 <_ZN9IPAddresseqEPKh+0x1c>
    1994:	80 e0       	ldi	r24, 0x00	; 0
    1996:	08 95       	ret

00001998 <_ZN5Print5writeEPKhj>:
    1998:	cf 92       	push	r12
    199a:	df 92       	push	r13
    199c:	ef 92       	push	r14
    199e:	ff 92       	push	r15
    19a0:	0f 93       	push	r16
    19a2:	1f 93       	push	r17
    19a4:	cf 93       	push	r28
    19a6:	df 93       	push	r29
    19a8:	6c 01       	movw	r12, r24
    19aa:	eb 01       	movw	r28, r22
    19ac:	7a 01       	movw	r14, r20
    19ae:	e6 0e       	add	r14, r22
    19b0:	f7 1e       	adc	r15, r23
    19b2:	00 e0       	ldi	r16, 0x00	; 0
    19b4:	10 e0       	ldi	r17, 0x00	; 0
    19b6:	0b c0       	rjmp	.+22     	; 0x19ce <_ZN5Print5writeEPKhj+0x36>
    19b8:	69 91       	ld	r22, Y+
    19ba:	d6 01       	movw	r26, r12
    19bc:	ed 91       	ld	r30, X+
    19be:	fc 91       	ld	r31, X
    19c0:	01 90       	ld	r0, Z+
    19c2:	f0 81       	ld	r31, Z
    19c4:	e0 2d       	mov	r30, r0
    19c6:	c6 01       	movw	r24, r12
    19c8:	09 95       	icall
    19ca:	08 0f       	add	r16, r24
    19cc:	19 1f       	adc	r17, r25
    19ce:	ce 15       	cp	r28, r14
    19d0:	df 05       	cpc	r29, r15
    19d2:	91 f7       	brne	.-28     	; 0x19b8 <_ZN5Print5writeEPKhj+0x20>
    19d4:	c8 01       	movw	r24, r16
    19d6:	df 91       	pop	r29
    19d8:	cf 91       	pop	r28
    19da:	1f 91       	pop	r17
    19dc:	0f 91       	pop	r16
    19de:	ff 90       	pop	r15
    19e0:	ef 90       	pop	r14
    19e2:	df 90       	pop	r13
    19e4:	cf 90       	pop	r12
    19e6:	08 95       	ret

000019e8 <_ZN5Print5printEPK19__FlashStringHelper>:
    19e8:	ef 92       	push	r14
    19ea:	ff 92       	push	r15
    19ec:	0f 93       	push	r16
    19ee:	1f 93       	push	r17
    19f0:	cf 93       	push	r28
    19f2:	df 93       	push	r29
    19f4:	7c 01       	movw	r14, r24
    19f6:	eb 01       	movw	r28, r22
    19f8:	00 e0       	ldi	r16, 0x00	; 0
    19fa:	10 e0       	ldi	r17, 0x00	; 0
    19fc:	fe 01       	movw	r30, r28
    19fe:	21 96       	adiw	r28, 0x01	; 1
    1a00:	64 91       	lpm	r22, Z+
    1a02:	66 23       	and	r22, r22
    1a04:	51 f0       	breq	.+20     	; 0x1a1a <_ZN5Print5printEPK19__FlashStringHelper+0x32>
    1a06:	f7 01       	movw	r30, r14
    1a08:	a0 81       	ld	r26, Z
    1a0a:	b1 81       	ldd	r27, Z+1	; 0x01
    1a0c:	ed 91       	ld	r30, X+
    1a0e:	fc 91       	ld	r31, X
    1a10:	c7 01       	movw	r24, r14
    1a12:	09 95       	icall
    1a14:	08 0f       	add	r16, r24
    1a16:	19 1f       	adc	r17, r25
    1a18:	f1 cf       	rjmp	.-30     	; 0x19fc <_ZN5Print5printEPK19__FlashStringHelper+0x14>
    1a1a:	c8 01       	movw	r24, r16
    1a1c:	df 91       	pop	r29
    1a1e:	cf 91       	pop	r28
    1a20:	1f 91       	pop	r17
    1a22:	0f 91       	pop	r16
    1a24:	ff 90       	pop	r15
    1a26:	ef 90       	pop	r14
    1a28:	08 95       	ret

00001a2a <_ZN5Print5printERK6String>:
    1a2a:	af 92       	push	r10
    1a2c:	bf 92       	push	r11
    1a2e:	cf 92       	push	r12
    1a30:	df 92       	push	r13
    1a32:	ef 92       	push	r14
    1a34:	ff 92       	push	r15
    1a36:	0f 93       	push	r16
    1a38:	1f 93       	push	r17
    1a3a:	cf 93       	push	r28
    1a3c:	df 93       	push	r29
    1a3e:	7c 01       	movw	r14, r24
    1a40:	6b 01       	movw	r12, r22
    1a42:	00 e0       	ldi	r16, 0x00	; 0
    1a44:	10 e0       	ldi	r17, 0x00	; 0
    1a46:	c0 e0       	ldi	r28, 0x00	; 0
    1a48:	d0 e0       	ldi	r29, 0x00	; 0
    1a4a:	11 c0       	rjmp	.+34     	; 0x1a6e <_ZN5Print5printERK6String+0x44>
    1a4c:	d7 01       	movw	r26, r14
    1a4e:	ed 91       	ld	r30, X+
    1a50:	fc 91       	ld	r31, X
    1a52:	a0 80       	ld	r10, Z
    1a54:	b1 80       	ldd	r11, Z+1	; 0x01
    1a56:	b8 01       	movw	r22, r16
    1a58:	c6 01       	movw	r24, r12
    1a5a:	0e 94 b0 14 	call	0x2960	; 0x2960 <_ZNK6StringixEj>
    1a5e:	68 2f       	mov	r22, r24
    1a60:	c7 01       	movw	r24, r14
    1a62:	f5 01       	movw	r30, r10
    1a64:	09 95       	icall
    1a66:	c8 0f       	add	r28, r24
    1a68:	d9 1f       	adc	r29, r25
    1a6a:	0f 5f       	subi	r16, 0xFF	; 255
    1a6c:	1f 4f       	sbci	r17, 0xFF	; 255
    1a6e:	d6 01       	movw	r26, r12
    1a70:	14 96       	adiw	r26, 0x04	; 4
    1a72:	8d 91       	ld	r24, X+
    1a74:	9c 91       	ld	r25, X
    1a76:	15 97       	sbiw	r26, 0x05	; 5
    1a78:	08 17       	cp	r16, r24
    1a7a:	19 07       	cpc	r17, r25
    1a7c:	38 f3       	brcs	.-50     	; 0x1a4c <_ZN5Print5printERK6String+0x22>
    1a7e:	ce 01       	movw	r24, r28
    1a80:	df 91       	pop	r29
    1a82:	cf 91       	pop	r28
    1a84:	1f 91       	pop	r17
    1a86:	0f 91       	pop	r16
    1a88:	ff 90       	pop	r15
    1a8a:	ef 90       	pop	r14
    1a8c:	df 90       	pop	r13
    1a8e:	cf 90       	pop	r12
    1a90:	bf 90       	pop	r11
    1a92:	af 90       	pop	r10
    1a94:	08 95       	ret

00001a96 <_ZN5Print5printEPKc>:
    1a96:	0c 94 f2 2f 	jmp	0x5fe4	; 0x5fe4 <_ZN5Print5writeEPKc>

00001a9a <_ZN5Print5printEc>:
    1a9a:	dc 01       	movw	r26, r24
    1a9c:	ed 91       	ld	r30, X+
    1a9e:	fc 91       	ld	r31, X
    1aa0:	01 90       	ld	r0, Z+
    1aa2:	f0 81       	ld	r31, Z
    1aa4:	e0 2d       	mov	r30, r0
    1aa6:	09 94       	ijmp

00001aa8 <_ZN5Print5printERK9Printable>:
    1aa8:	db 01       	movw	r26, r22
    1aaa:	ed 91       	ld	r30, X+
    1aac:	fc 91       	ld	r31, X
    1aae:	11 97       	sbiw	r26, 0x01	; 1
    1ab0:	01 90       	ld	r0, Z+
    1ab2:	f0 81       	ld	r31, Z
    1ab4:	e0 2d       	mov	r30, r0
    1ab6:	bc 01       	movw	r22, r24
    1ab8:	cd 01       	movw	r24, r26
    1aba:	09 94       	ijmp

00001abc <_ZN5Print7printlnEv>:
    1abc:	0f 93       	push	r16
    1abe:	1f 93       	push	r17
    1ac0:	cf 93       	push	r28
    1ac2:	df 93       	push	r29
    1ac4:	ec 01       	movw	r28, r24
    1ac6:	6d e0       	ldi	r22, 0x0D	; 13
    1ac8:	0e 94 4d 0d 	call	0x1a9a	; 0x1a9a <_ZN5Print5printEc>
    1acc:	8c 01       	movw	r16, r24
    1ace:	6a e0       	ldi	r22, 0x0A	; 10
    1ad0:	ce 01       	movw	r24, r28
    1ad2:	0e 94 4d 0d 	call	0x1a9a	; 0x1a9a <_ZN5Print5printEc>
    1ad6:	9c 01       	movw	r18, r24
    1ad8:	20 0f       	add	r18, r16
    1ada:	31 1f       	adc	r19, r17
    1adc:	c9 01       	movw	r24, r18
    1ade:	df 91       	pop	r29
    1ae0:	cf 91       	pop	r28
    1ae2:	1f 91       	pop	r17
    1ae4:	0f 91       	pop	r16
    1ae6:	08 95       	ret

00001ae8 <_ZN5Print7printlnEPK19__FlashStringHelper>:
    1ae8:	0f 93       	push	r16
    1aea:	1f 93       	push	r17
    1aec:	cf 93       	push	r28
    1aee:	df 93       	push	r29
    1af0:	ec 01       	movw	r28, r24
    1af2:	0e 94 f4 0c 	call	0x19e8	; 0x19e8 <_ZN5Print5printEPK19__FlashStringHelper>
    1af6:	8c 01       	movw	r16, r24
    1af8:	ce 01       	movw	r24, r28
    1afa:	0e 94 5e 0d 	call	0x1abc	; 0x1abc <_ZN5Print7printlnEv>
    1afe:	9c 01       	movw	r18, r24
    1b00:	20 0f       	add	r18, r16
    1b02:	31 1f       	adc	r19, r17
    1b04:	c9 01       	movw	r24, r18
    1b06:	df 91       	pop	r29
    1b08:	cf 91       	pop	r28
    1b0a:	1f 91       	pop	r17
    1b0c:	0f 91       	pop	r16
    1b0e:	08 95       	ret

00001b10 <_ZN5Print7printlnERK6String>:
    1b10:	0f 93       	push	r16
    1b12:	1f 93       	push	r17
    1b14:	cf 93       	push	r28
    1b16:	df 93       	push	r29
    1b18:	ec 01       	movw	r28, r24
    1b1a:	0e 94 15 0d 	call	0x1a2a	; 0x1a2a <_ZN5Print5printERK6String>
    1b1e:	8c 01       	movw	r16, r24
    1b20:	ce 01       	movw	r24, r28
    1b22:	0e 94 5e 0d 	call	0x1abc	; 0x1abc <_ZN5Print7printlnEv>
    1b26:	9c 01       	movw	r18, r24
    1b28:	20 0f       	add	r18, r16
    1b2a:	31 1f       	adc	r19, r17
    1b2c:	c9 01       	movw	r24, r18
    1b2e:	df 91       	pop	r29
    1b30:	cf 91       	pop	r28
    1b32:	1f 91       	pop	r17
    1b34:	0f 91       	pop	r16
    1b36:	08 95       	ret

00001b38 <_ZN5Print7printlnEPKc>:
    1b38:	0f 93       	push	r16
    1b3a:	1f 93       	push	r17
    1b3c:	cf 93       	push	r28
    1b3e:	df 93       	push	r29
    1b40:	ec 01       	movw	r28, r24
    1b42:	0e 94 f2 2f 	call	0x5fe4	; 0x5fe4 <_ZN5Print5writeEPKc>
    1b46:	8c 01       	movw	r16, r24
    1b48:	ce 01       	movw	r24, r28
    1b4a:	0e 94 5e 0d 	call	0x1abc	; 0x1abc <_ZN5Print7printlnEv>
    1b4e:	98 01       	movw	r18, r16
    1b50:	28 0f       	add	r18, r24
    1b52:	39 1f       	adc	r19, r25
    1b54:	c9 01       	movw	r24, r18
    1b56:	df 91       	pop	r29
    1b58:	cf 91       	pop	r28
    1b5a:	1f 91       	pop	r17
    1b5c:	0f 91       	pop	r16
    1b5e:	08 95       	ret

00001b60 <_ZN5Print7printlnEc>:
    1b60:	0f 93       	push	r16
    1b62:	1f 93       	push	r17
    1b64:	cf 93       	push	r28
    1b66:	df 93       	push	r29
    1b68:	ec 01       	movw	r28, r24
    1b6a:	0e 94 4d 0d 	call	0x1a9a	; 0x1a9a <_ZN5Print5printEc>
    1b6e:	8c 01       	movw	r16, r24
    1b70:	ce 01       	movw	r24, r28
    1b72:	0e 94 5e 0d 	call	0x1abc	; 0x1abc <_ZN5Print7printlnEv>
    1b76:	9c 01       	movw	r18, r24
    1b78:	20 0f       	add	r18, r16
    1b7a:	31 1f       	adc	r19, r17
    1b7c:	c9 01       	movw	r24, r18
    1b7e:	df 91       	pop	r29
    1b80:	cf 91       	pop	r28
    1b82:	1f 91       	pop	r17
    1b84:	0f 91       	pop	r16
    1b86:	08 95       	ret

00001b88 <_ZN5Print7printlnERK9Printable>:
    1b88:	0f 93       	push	r16
    1b8a:	1f 93       	push	r17
    1b8c:	cf 93       	push	r28
    1b8e:	df 93       	push	r29
    1b90:	ec 01       	movw	r28, r24
    1b92:	0e 94 54 0d 	call	0x1aa8	; 0x1aa8 <_ZN5Print5printERK9Printable>
    1b96:	8c 01       	movw	r16, r24
    1b98:	ce 01       	movw	r24, r28
    1b9a:	0e 94 5e 0d 	call	0x1abc	; 0x1abc <_ZN5Print7printlnEv>
    1b9e:	9c 01       	movw	r18, r24
    1ba0:	20 0f       	add	r18, r16
    1ba2:	31 1f       	adc	r19, r17
    1ba4:	c9 01       	movw	r24, r18
    1ba6:	df 91       	pop	r29
    1ba8:	cf 91       	pop	r28
    1baa:	1f 91       	pop	r17
    1bac:	0f 91       	pop	r16
    1bae:	08 95       	ret

00001bb0 <_ZN5Print11printNumberEmh>:
    1bb0:	5f 92       	push	r5
    1bb2:	6f 92       	push	r6
    1bb4:	7f 92       	push	r7
    1bb6:	8f 92       	push	r8
    1bb8:	9f 92       	push	r9
    1bba:	af 92       	push	r10
    1bbc:	bf 92       	push	r11
    1bbe:	cf 92       	push	r12
    1bc0:	df 92       	push	r13
    1bc2:	ef 92       	push	r14
    1bc4:	ff 92       	push	r15
    1bc6:	0f 93       	push	r16
    1bc8:	1f 93       	push	r17
    1bca:	cf 93       	push	r28
    1bcc:	df 93       	push	r29
    1bce:	cd b7       	in	r28, 0x3d	; 61
    1bd0:	de b7       	in	r29, 0x3e	; 62
    1bd2:	a1 97       	sbiw	r28, 0x21	; 33
    1bd4:	0f b6       	in	r0, 0x3f	; 63
    1bd6:	f8 94       	cli
    1bd8:	de bf       	out	0x3e, r29	; 62
    1bda:	0f be       	out	0x3f, r0	; 63
    1bdc:	cd bf       	out	0x3d, r28	; 61
    1bde:	3c 01       	movw	r6, r24
    1be0:	6a 01       	movw	r12, r20
    1be2:	7b 01       	movw	r14, r22
    1be4:	52 2e       	mov	r5, r18
    1be6:	19 a2       	std	Y+33, r1	; 0x21
    1be8:	81 e0       	ldi	r24, 0x01	; 1
    1bea:	82 17       	cp	r24, r18
    1bec:	10 f0       	brcs	.+4      	; 0x1bf2 <_ZN5Print11printNumberEmh+0x42>
    1bee:	8a e0       	ldi	r24, 0x0A	; 10
    1bf0:	58 2e       	mov	r5, r24
    1bf2:	8e 01       	movw	r16, r28
    1bf4:	0f 5d       	subi	r16, 0xDF	; 223
    1bf6:	1f 4f       	sbci	r17, 0xFF	; 255
    1bf8:	85 2c       	mov	r8, r5
    1bfa:	91 2c       	mov	r9, r1
    1bfc:	a1 2c       	mov	r10, r1
    1bfe:	b1 2c       	mov	r11, r1
    1c00:	c7 01       	movw	r24, r14
    1c02:	b6 01       	movw	r22, r12
    1c04:	a5 01       	movw	r20, r10
    1c06:	94 01       	movw	r18, r8
    1c08:	0e 94 b1 30 	call	0x6162	; 0x6162 <__udivmodsi4>
    1c0c:	8c 2d       	mov	r24, r12
    1c0e:	52 9e       	mul	r5, r18
    1c10:	80 19       	sub	r24, r0
    1c12:	11 24       	eor	r1, r1
    1c14:	01 50       	subi	r16, 0x01	; 1
    1c16:	11 09       	sbc	r17, r1
    1c18:	8a 30       	cpi	r24, 0x0A	; 10
    1c1a:	10 f4       	brcc	.+4      	; 0x1c20 <_ZN5Print11printNumberEmh+0x70>
    1c1c:	80 5d       	subi	r24, 0xD0	; 208
    1c1e:	01 c0       	rjmp	.+2      	; 0x1c22 <_ZN5Print11printNumberEmh+0x72>
    1c20:	89 5c       	subi	r24, 0xC9	; 201
    1c22:	f8 01       	movw	r30, r16
    1c24:	80 83       	st	Z, r24
    1c26:	69 01       	movw	r12, r18
    1c28:	7a 01       	movw	r14, r20
    1c2a:	c1 14       	cp	r12, r1
    1c2c:	d1 04       	cpc	r13, r1
    1c2e:	e1 04       	cpc	r14, r1
    1c30:	f1 04       	cpc	r15, r1
    1c32:	31 f7       	brne	.-52     	; 0x1c00 <_ZN5Print11printNumberEmh+0x50>
    1c34:	b8 01       	movw	r22, r16
    1c36:	c3 01       	movw	r24, r6
    1c38:	0e 94 f2 2f 	call	0x5fe4	; 0x5fe4 <_ZN5Print5writeEPKc>
    1c3c:	a1 96       	adiw	r28, 0x21	; 33
    1c3e:	0f b6       	in	r0, 0x3f	; 63
    1c40:	f8 94       	cli
    1c42:	de bf       	out	0x3e, r29	; 62
    1c44:	0f be       	out	0x3f, r0	; 63
    1c46:	cd bf       	out	0x3d, r28	; 61
    1c48:	df 91       	pop	r29
    1c4a:	cf 91       	pop	r28
    1c4c:	1f 91       	pop	r17
    1c4e:	0f 91       	pop	r16
    1c50:	ff 90       	pop	r15
    1c52:	ef 90       	pop	r14
    1c54:	df 90       	pop	r13
    1c56:	cf 90       	pop	r12
    1c58:	bf 90       	pop	r11
    1c5a:	af 90       	pop	r10
    1c5c:	9f 90       	pop	r9
    1c5e:	8f 90       	pop	r8
    1c60:	7f 90       	pop	r7
    1c62:	6f 90       	pop	r6
    1c64:	5f 90       	pop	r5
    1c66:	08 95       	ret

00001c68 <_ZN5Print5printEmi>:
    1c68:	21 15       	cp	r18, r1
    1c6a:	31 05       	cpc	r19, r1
    1c6c:	41 f4       	brne	.+16     	; 0x1c7e <_ZN5Print5printEmi+0x16>
    1c6e:	dc 01       	movw	r26, r24
    1c70:	ed 91       	ld	r30, X+
    1c72:	fc 91       	ld	r31, X
    1c74:	01 90       	ld	r0, Z+
    1c76:	f0 81       	ld	r31, Z
    1c78:	e0 2d       	mov	r30, r0
    1c7a:	64 2f       	mov	r22, r20
    1c7c:	09 94       	ijmp
    1c7e:	0c 94 d8 0d 	jmp	0x1bb0	; 0x1bb0 <_ZN5Print11printNumberEmh>

00001c82 <_ZN5Print7printlnEmi>:
    1c82:	0f 93       	push	r16
    1c84:	1f 93       	push	r17
    1c86:	cf 93       	push	r28
    1c88:	df 93       	push	r29
    1c8a:	ec 01       	movw	r28, r24
    1c8c:	0e 94 34 0e 	call	0x1c68	; 0x1c68 <_ZN5Print5printEmi>
    1c90:	8c 01       	movw	r16, r24
    1c92:	ce 01       	movw	r24, r28
    1c94:	0e 94 5e 0d 	call	0x1abc	; 0x1abc <_ZN5Print7printlnEv>
    1c98:	9c 01       	movw	r18, r24
    1c9a:	20 0f       	add	r18, r16
    1c9c:	31 1f       	adc	r19, r17
    1c9e:	c9 01       	movw	r24, r18
    1ca0:	df 91       	pop	r29
    1ca2:	cf 91       	pop	r28
    1ca4:	1f 91       	pop	r17
    1ca6:	0f 91       	pop	r16
    1ca8:	08 95       	ret

00001caa <_ZN5Print5printEji>:
    1caa:	9a 01       	movw	r18, r20
    1cac:	ab 01       	movw	r20, r22
    1cae:	60 e0       	ldi	r22, 0x00	; 0
    1cb0:	70 e0       	ldi	r23, 0x00	; 0
    1cb2:	0c 94 34 0e 	jmp	0x1c68	; 0x1c68 <_ZN5Print5printEmi>

00001cb6 <_ZN5Print7printlnEji>:
    1cb6:	0f 93       	push	r16
    1cb8:	1f 93       	push	r17
    1cba:	cf 93       	push	r28
    1cbc:	df 93       	push	r29
    1cbe:	ec 01       	movw	r28, r24
    1cc0:	9a 01       	movw	r18, r20
    1cc2:	ab 01       	movw	r20, r22
    1cc4:	60 e0       	ldi	r22, 0x00	; 0
    1cc6:	70 e0       	ldi	r23, 0x00	; 0
    1cc8:	0e 94 34 0e 	call	0x1c68	; 0x1c68 <_ZN5Print5printEmi>
    1ccc:	8c 01       	movw	r16, r24
    1cce:	ce 01       	movw	r24, r28
    1cd0:	0e 94 5e 0d 	call	0x1abc	; 0x1abc <_ZN5Print7printlnEv>
    1cd4:	98 01       	movw	r18, r16
    1cd6:	28 0f       	add	r18, r24
    1cd8:	39 1f       	adc	r19, r25
    1cda:	c9 01       	movw	r24, r18
    1cdc:	df 91       	pop	r29
    1cde:	cf 91       	pop	r28
    1ce0:	1f 91       	pop	r17
    1ce2:	0f 91       	pop	r16
    1ce4:	08 95       	ret

00001ce6 <_ZN5Print5printEhi>:
    1ce6:	9a 01       	movw	r18, r20
    1ce8:	46 2f       	mov	r20, r22
    1cea:	50 e0       	ldi	r21, 0x00	; 0
    1cec:	60 e0       	ldi	r22, 0x00	; 0
    1cee:	70 e0       	ldi	r23, 0x00	; 0
    1cf0:	0c 94 34 0e 	jmp	0x1c68	; 0x1c68 <_ZN5Print5printEmi>

00001cf4 <_ZN5Print7printlnEhi>:
    1cf4:	0f 93       	push	r16
    1cf6:	1f 93       	push	r17
    1cf8:	cf 93       	push	r28
    1cfa:	df 93       	push	r29
    1cfc:	ec 01       	movw	r28, r24
    1cfe:	9a 01       	movw	r18, r20
    1d00:	46 2f       	mov	r20, r22
    1d02:	50 e0       	ldi	r21, 0x00	; 0
    1d04:	60 e0       	ldi	r22, 0x00	; 0
    1d06:	70 e0       	ldi	r23, 0x00	; 0
    1d08:	0e 94 34 0e 	call	0x1c68	; 0x1c68 <_ZN5Print5printEmi>
    1d0c:	8c 01       	movw	r16, r24
    1d0e:	ce 01       	movw	r24, r28
    1d10:	0e 94 5e 0d 	call	0x1abc	; 0x1abc <_ZN5Print7printlnEv>
    1d14:	98 01       	movw	r18, r16
    1d16:	28 0f       	add	r18, r24
    1d18:	39 1f       	adc	r19, r25
    1d1a:	c9 01       	movw	r24, r18
    1d1c:	df 91       	pop	r29
    1d1e:	cf 91       	pop	r28
    1d20:	1f 91       	pop	r17
    1d22:	0f 91       	pop	r16
    1d24:	08 95       	ret

00001d26 <_ZN5Print5printEli>:
    1d26:	cf 92       	push	r12
    1d28:	df 92       	push	r13
    1d2a:	ef 92       	push	r14
    1d2c:	ff 92       	push	r15
    1d2e:	0f 93       	push	r16
    1d30:	1f 93       	push	r17
    1d32:	cf 93       	push	r28
    1d34:	df 93       	push	r29
    1d36:	ec 01       	movw	r28, r24
    1d38:	6a 01       	movw	r12, r20
    1d3a:	7b 01       	movw	r14, r22
    1d3c:	21 15       	cp	r18, r1
    1d3e:	31 05       	cpc	r19, r1
    1d40:	79 f4       	brne	.+30     	; 0x1d60 <_ZN5Print5printEli+0x3a>
    1d42:	e8 81       	ld	r30, Y
    1d44:	f9 81       	ldd	r31, Y+1	; 0x01
    1d46:	01 90       	ld	r0, Z+
    1d48:	f0 81       	ld	r31, Z
    1d4a:	e0 2d       	mov	r30, r0
    1d4c:	64 2f       	mov	r22, r20
    1d4e:	df 91       	pop	r29
    1d50:	cf 91       	pop	r28
    1d52:	1f 91       	pop	r17
    1d54:	0f 91       	pop	r16
    1d56:	ff 90       	pop	r15
    1d58:	ef 90       	pop	r14
    1d5a:	df 90       	pop	r13
    1d5c:	cf 90       	pop	r12
    1d5e:	09 94       	ijmp
    1d60:	2a 30       	cpi	r18, 0x0A	; 10
    1d62:	31 05       	cpc	r19, r1
    1d64:	19 f4       	brne	.+6      	; 0x1d6c <_ZN5Print5printEli+0x46>
    1d66:	77 fd       	sbrc	r23, 7
    1d68:	0e c0       	rjmp	.+28     	; 0x1d86 <_ZN5Print5printEli+0x60>
    1d6a:	2a e0       	ldi	r18, 0x0A	; 10
    1d6c:	b7 01       	movw	r22, r14
    1d6e:	a6 01       	movw	r20, r12
    1d70:	ce 01       	movw	r24, r28
    1d72:	df 91       	pop	r29
    1d74:	cf 91       	pop	r28
    1d76:	1f 91       	pop	r17
    1d78:	0f 91       	pop	r16
    1d7a:	ff 90       	pop	r15
    1d7c:	ef 90       	pop	r14
    1d7e:	df 90       	pop	r13
    1d80:	cf 90       	pop	r12
    1d82:	0c 94 d8 0d 	jmp	0x1bb0	; 0x1bb0 <_ZN5Print11printNumberEmh>
    1d86:	6d e2       	ldi	r22, 0x2D	; 45
    1d88:	0e 94 4d 0d 	call	0x1a9a	; 0x1a9a <_ZN5Print5printEc>
    1d8c:	8c 01       	movw	r16, r24
    1d8e:	44 27       	eor	r20, r20
    1d90:	55 27       	eor	r21, r21
    1d92:	ba 01       	movw	r22, r20
    1d94:	4c 19       	sub	r20, r12
    1d96:	5d 09       	sbc	r21, r13
    1d98:	6e 09       	sbc	r22, r14
    1d9a:	7f 09       	sbc	r23, r15
    1d9c:	2a e0       	ldi	r18, 0x0A	; 10
    1d9e:	ce 01       	movw	r24, r28
    1da0:	0e 94 d8 0d 	call	0x1bb0	; 0x1bb0 <_ZN5Print11printNumberEmh>
    1da4:	9c 01       	movw	r18, r24
    1da6:	20 0f       	add	r18, r16
    1da8:	31 1f       	adc	r19, r17
    1daa:	c9 01       	movw	r24, r18
    1dac:	df 91       	pop	r29
    1dae:	cf 91       	pop	r28
    1db0:	1f 91       	pop	r17
    1db2:	0f 91       	pop	r16
    1db4:	ff 90       	pop	r15
    1db6:	ef 90       	pop	r14
    1db8:	df 90       	pop	r13
    1dba:	cf 90       	pop	r12
    1dbc:	08 95       	ret

00001dbe <_ZN5Print7printlnEli>:
    1dbe:	0f 93       	push	r16
    1dc0:	1f 93       	push	r17
    1dc2:	cf 93       	push	r28
    1dc4:	df 93       	push	r29
    1dc6:	ec 01       	movw	r28, r24
    1dc8:	0e 94 93 0e 	call	0x1d26	; 0x1d26 <_ZN5Print5printEli>
    1dcc:	8c 01       	movw	r16, r24
    1dce:	ce 01       	movw	r24, r28
    1dd0:	0e 94 5e 0d 	call	0x1abc	; 0x1abc <_ZN5Print7printlnEv>
    1dd4:	9c 01       	movw	r18, r24
    1dd6:	20 0f       	add	r18, r16
    1dd8:	31 1f       	adc	r19, r17
    1dda:	c9 01       	movw	r24, r18
    1ddc:	df 91       	pop	r29
    1dde:	cf 91       	pop	r28
    1de0:	1f 91       	pop	r17
    1de2:	0f 91       	pop	r16
    1de4:	08 95       	ret

00001de6 <_ZN5Print5printEii>:
    1de6:	9a 01       	movw	r18, r20
    1de8:	ab 01       	movw	r20, r22
    1dea:	66 27       	eor	r22, r22
    1dec:	57 fd       	sbrc	r21, 7
    1dee:	60 95       	com	r22
    1df0:	76 2f       	mov	r23, r22
    1df2:	0c 94 93 0e 	jmp	0x1d26	; 0x1d26 <_ZN5Print5printEli>

00001df6 <_ZN5Print7printlnEii>:
    1df6:	0f 93       	push	r16
    1df8:	1f 93       	push	r17
    1dfa:	cf 93       	push	r28
    1dfc:	df 93       	push	r29
    1dfe:	ec 01       	movw	r28, r24
    1e00:	9a 01       	movw	r18, r20
    1e02:	ab 01       	movw	r20, r22
    1e04:	66 27       	eor	r22, r22
    1e06:	57 fd       	sbrc	r21, 7
    1e08:	60 95       	com	r22
    1e0a:	76 2f       	mov	r23, r22
    1e0c:	0e 94 93 0e 	call	0x1d26	; 0x1d26 <_ZN5Print5printEli>
    1e10:	8c 01       	movw	r16, r24
    1e12:	ce 01       	movw	r24, r28
    1e14:	0e 94 5e 0d 	call	0x1abc	; 0x1abc <_ZN5Print7printlnEv>
    1e18:	98 01       	movw	r18, r16
    1e1a:	28 0f       	add	r18, r24
    1e1c:	39 1f       	adc	r19, r25
    1e1e:	c9 01       	movw	r24, r18
    1e20:	df 91       	pop	r29
    1e22:	cf 91       	pop	r28
    1e24:	1f 91       	pop	r17
    1e26:	0f 91       	pop	r16
    1e28:	08 95       	ret

00001e2a <_ZN5Print10printFloatEdh>:
    1e2a:	4f 92       	push	r4
    1e2c:	5f 92       	push	r5
    1e2e:	6f 92       	push	r6
    1e30:	7f 92       	push	r7
    1e32:	8f 92       	push	r8
    1e34:	9f 92       	push	r9
    1e36:	af 92       	push	r10
    1e38:	bf 92       	push	r11
    1e3a:	cf 92       	push	r12
    1e3c:	df 92       	push	r13
    1e3e:	ef 92       	push	r14
    1e40:	ff 92       	push	r15
    1e42:	0f 93       	push	r16
    1e44:	1f 93       	push	r17
    1e46:	cf 93       	push	r28
    1e48:	3c 01       	movw	r6, r24
    1e4a:	4a 01       	movw	r8, r20
    1e4c:	5b 01       	movw	r10, r22
    1e4e:	c2 2f       	mov	r28, r18
    1e50:	20 e0       	ldi	r18, 0x00	; 0
    1e52:	30 e0       	ldi	r19, 0x00	; 0
    1e54:	a9 01       	movw	r20, r18
    1e56:	c5 01       	movw	r24, r10
    1e58:	b4 01       	movw	r22, r8
    1e5a:	0e 94 0f 2c 	call	0x581e	; 0x581e <__ltsf2>
    1e5e:	87 ff       	sbrs	r24, 7
    1e60:	0a c0       	rjmp	.+20     	; 0x1e76 <_ZN5Print10printFloatEdh+0x4c>
    1e62:	6d e2       	ldi	r22, 0x2D	; 45
    1e64:	c3 01       	movw	r24, r6
    1e66:	0e 94 4d 0d 	call	0x1a9a	; 0x1a9a <_ZN5Print5printEc>
    1e6a:	2c 01       	movw	r4, r24
    1e6c:	b7 fa       	bst	r11, 7
    1e6e:	b0 94       	com	r11
    1e70:	b7 f8       	bld	r11, 7
    1e72:	b0 94       	com	r11
    1e74:	02 c0       	rjmp	.+4      	; 0x1e7a <_ZN5Print10printFloatEdh+0x50>
    1e76:	41 2c       	mov	r4, r1
    1e78:	51 2c       	mov	r5, r1
    1e7a:	10 e0       	ldi	r17, 0x00	; 0
    1e7c:	60 e0       	ldi	r22, 0x00	; 0
    1e7e:	70 e0       	ldi	r23, 0x00	; 0
    1e80:	80 e0       	ldi	r24, 0x00	; 0
    1e82:	9f e3       	ldi	r25, 0x3F	; 63
    1e84:	07 c0       	rjmp	.+14     	; 0x1e94 <_ZN5Print10printFloatEdh+0x6a>
    1e86:	20 e0       	ldi	r18, 0x00	; 0
    1e88:	30 e0       	ldi	r19, 0x00	; 0
    1e8a:	40 e2       	ldi	r20, 0x20	; 32
    1e8c:	51 e4       	ldi	r21, 0x41	; 65
    1e8e:	0e 94 3d 2b 	call	0x567a	; 0x567a <__divsf3>
    1e92:	1f 5f       	subi	r17, 0xFF	; 255
    1e94:	1c 13       	cpse	r17, r28
    1e96:	f7 cf       	rjmp	.-18     	; 0x1e86 <_ZN5Print10printFloatEdh+0x5c>
    1e98:	26 2f       	mov	r18, r22
    1e9a:	37 2f       	mov	r19, r23
    1e9c:	48 2f       	mov	r20, r24
    1e9e:	59 2f       	mov	r21, r25
    1ea0:	c5 01       	movw	r24, r10
    1ea2:	b4 01       	movw	r22, r8
    1ea4:	0e 94 fc 29 	call	0x53f8	; 0x53f8 <__addsf3>
    1ea8:	96 2e       	mov	r9, r22
    1eaa:	a7 2e       	mov	r10, r23
    1eac:	b8 2e       	mov	r11, r24
    1eae:	c9 2e       	mov	r12, r25
    1eb0:	0e 94 7d 28 	call	0x50fa	; 0x50fa <__fixunssfsi>
    1eb4:	d6 2e       	mov	r13, r22
    1eb6:	e7 2e       	mov	r14, r23
    1eb8:	f8 2e       	mov	r15, r24
    1eba:	19 2f       	mov	r17, r25
    1ebc:	0e 94 e9 2c 	call	0x59d2	; 0x59d2 <__floatunsisf>
    1ec0:	9b 01       	movw	r18, r22
    1ec2:	ac 01       	movw	r20, r24
    1ec4:	69 2d       	mov	r22, r9
    1ec6:	7a 2d       	mov	r23, r10
    1ec8:	8b 2d       	mov	r24, r11
    1eca:	9c 2d       	mov	r25, r12
    1ecc:	0e 94 28 2a 	call	0x5450	; 0x5450 <__subsf3>
    1ed0:	c6 2e       	mov	r12, r22
    1ed2:	b7 2e       	mov	r11, r23
    1ed4:	a8 2e       	mov	r10, r24
    1ed6:	99 2e       	mov	r9, r25
    1ed8:	2a e0       	ldi	r18, 0x0A	; 10
    1eda:	4d 2d       	mov	r20, r13
    1edc:	5e 2d       	mov	r21, r14
    1ede:	6f 2d       	mov	r22, r15
    1ee0:	71 2f       	mov	r23, r17
    1ee2:	c3 01       	movw	r24, r6
    1ee4:	0e 94 d8 0d 	call	0x1bb0	; 0x1bb0 <_ZN5Print11printNumberEmh>
    1ee8:	8c 01       	movw	r16, r24
    1eea:	04 0d       	add	r16, r4
    1eec:	15 1d       	adc	r17, r5
    1eee:	cc 23       	and	r28, r28
    1ef0:	b9 f1       	breq	.+110    	; 0x1f60 <_ZN5Print10printFloatEdh+0x136>
    1ef2:	6e ea       	ldi	r22, 0xAE	; 174
    1ef4:	71 e0       	ldi	r23, 0x01	; 1
    1ef6:	c3 01       	movw	r24, r6
    1ef8:	0e 94 f2 2f 	call	0x5fe4	; 0x5fe4 <_ZN5Print5writeEPKc>
    1efc:	08 0f       	add	r16, r24
    1efe:	19 1f       	adc	r17, r25
    1f00:	2f c0       	rjmp	.+94     	; 0x1f60 <_ZN5Print10printFloatEdh+0x136>
    1f02:	20 e0       	ldi	r18, 0x00	; 0
    1f04:	30 e0       	ldi	r19, 0x00	; 0
    1f06:	40 e2       	ldi	r20, 0x20	; 32
    1f08:	51 e4       	ldi	r21, 0x41	; 65
    1f0a:	6c 2d       	mov	r22, r12
    1f0c:	7b 2d       	mov	r23, r11
    1f0e:	8a 2d       	mov	r24, r10
    1f10:	99 2d       	mov	r25, r9
    1f12:	0e 94 58 2a 	call	0x54b0	; 0x54b0 <__mulsf3>
    1f16:	4b 01       	movw	r8, r22
    1f18:	5c 01       	movw	r10, r24
    1f1a:	79 2d       	mov	r23, r9
    1f1c:	9b 2d       	mov	r25, r11
    1f1e:	0e 94 9a 2c 	call	0x5934	; 0x5934 <__fixsfsi>
    1f22:	6b 01       	movw	r12, r22
    1f24:	ee 24       	eor	r14, r14
    1f26:	d7 fc       	sbrc	r13, 7
    1f28:	e0 94       	com	r14
    1f2a:	fe 2c       	mov	r15, r14
    1f2c:	2a e0       	ldi	r18, 0x0A	; 10
    1f2e:	30 e0       	ldi	r19, 0x00	; 0
    1f30:	b7 01       	movw	r22, r14
    1f32:	a6 01       	movw	r20, r12
    1f34:	c3 01       	movw	r24, r6
    1f36:	0e 94 93 0e 	call	0x1d26	; 0x1d26 <_ZN5Print5printEli>
    1f3a:	08 0f       	add	r16, r24
    1f3c:	19 1f       	adc	r17, r25
    1f3e:	c7 01       	movw	r24, r14
    1f40:	b6 01       	movw	r22, r12
    1f42:	0e 94 3e 2c 	call	0x587c	; 0x587c <__floatsisf>
    1f46:	9b 01       	movw	r18, r22
    1f48:	ac 01       	movw	r20, r24
    1f4a:	68 2d       	mov	r22, r8
    1f4c:	79 2d       	mov	r23, r9
    1f4e:	8a 2d       	mov	r24, r10
    1f50:	9b 2d       	mov	r25, r11
    1f52:	0e 94 28 2a 	call	0x5450	; 0x5450 <__subsf3>
    1f56:	c6 2e       	mov	r12, r22
    1f58:	b7 2e       	mov	r11, r23
    1f5a:	a8 2e       	mov	r10, r24
    1f5c:	99 2e       	mov	r9, r25
    1f5e:	c1 50       	subi	r28, 0x01	; 1
    1f60:	c1 11       	cpse	r28, r1
    1f62:	cf cf       	rjmp	.-98     	; 0x1f02 <_ZN5Print10printFloatEdh+0xd8>
    1f64:	c8 01       	movw	r24, r16
    1f66:	cf 91       	pop	r28
    1f68:	1f 91       	pop	r17
    1f6a:	0f 91       	pop	r16
    1f6c:	ff 90       	pop	r15
    1f6e:	ef 90       	pop	r14
    1f70:	df 90       	pop	r13
    1f72:	cf 90       	pop	r12
    1f74:	bf 90       	pop	r11
    1f76:	af 90       	pop	r10
    1f78:	9f 90       	pop	r9
    1f7a:	8f 90       	pop	r8
    1f7c:	7f 90       	pop	r7
    1f7e:	6f 90       	pop	r6
    1f80:	5f 90       	pop	r5
    1f82:	4f 90       	pop	r4
    1f84:	08 95       	ret

00001f86 <_ZN5Print5printEdi>:
    1f86:	0c 94 15 0f 	jmp	0x1e2a	; 0x1e2a <_ZN5Print10printFloatEdh>

00001f8a <_ZN5Print7printlnEdi>:
    1f8a:	0f 93       	push	r16
    1f8c:	1f 93       	push	r17
    1f8e:	cf 93       	push	r28
    1f90:	df 93       	push	r29
    1f92:	ec 01       	movw	r28, r24
    1f94:	0e 94 15 0f 	call	0x1e2a	; 0x1e2a <_ZN5Print10printFloatEdh>
    1f98:	8c 01       	movw	r16, r24
    1f9a:	ce 01       	movw	r24, r28
    1f9c:	0e 94 5e 0d 	call	0x1abc	; 0x1abc <_ZN5Print7printlnEv>
    1fa0:	98 01       	movw	r18, r16
    1fa2:	28 0f       	add	r18, r24
    1fa4:	39 1f       	adc	r19, r25
    1fa6:	c9 01       	movw	r24, r18
    1fa8:	df 91       	pop	r29
    1faa:	cf 91       	pop	r28
    1fac:	1f 91       	pop	r17
    1fae:	0f 91       	pop	r16
    1fb0:	08 95       	ret

00001fb2 <_ZN6StringD1Ev>:
    1fb2:	fc 01       	movw	r30, r24
    1fb4:	80 81       	ld	r24, Z
    1fb6:	91 81       	ldd	r25, Z+1	; 0x01
    1fb8:	0c 94 00 32 	jmp	0x6400	; 0x6400 <free>

00001fbc <_ZN6String10invalidateEv>:
    1fbc:	cf 93       	push	r28
    1fbe:	df 93       	push	r29
    1fc0:	ec 01       	movw	r28, r24
    1fc2:	88 81       	ld	r24, Y
    1fc4:	99 81       	ldd	r25, Y+1	; 0x01
    1fc6:	00 97       	sbiw	r24, 0x00	; 0
    1fc8:	11 f0       	breq	.+4      	; 0x1fce <_ZN6String10invalidateEv+0x12>
    1fca:	0e 94 00 32 	call	0x6400	; 0x6400 <free>
    1fce:	19 82       	std	Y+1, r1	; 0x01
    1fd0:	18 82       	st	Y, r1
    1fd2:	1d 82       	std	Y+5, r1	; 0x05
    1fd4:	1c 82       	std	Y+4, r1	; 0x04
    1fd6:	1b 82       	std	Y+3, r1	; 0x03
    1fd8:	1a 82       	std	Y+2, r1	; 0x02
    1fda:	df 91       	pop	r29
    1fdc:	cf 91       	pop	r28
    1fde:	08 95       	ret

00001fe0 <_ZN6String12changeBufferEj>:
    1fe0:	0f 93       	push	r16
    1fe2:	1f 93       	push	r17
    1fe4:	cf 93       	push	r28
    1fe6:	df 93       	push	r29
    1fe8:	ec 01       	movw	r28, r24
    1fea:	8b 01       	movw	r16, r22
    1fec:	6f 5f       	subi	r22, 0xFF	; 255
    1fee:	7f 4f       	sbci	r23, 0xFF	; 255
    1ff0:	88 81       	ld	r24, Y
    1ff2:	99 81       	ldd	r25, Y+1	; 0x01
    1ff4:	0e 94 fa 32 	call	0x65f4	; 0x65f4 <realloc>
    1ff8:	00 97       	sbiw	r24, 0x00	; 0
    1ffa:	31 f0       	breq	.+12     	; 0x2008 <_ZN6String12changeBufferEj+0x28>
    1ffc:	99 83       	std	Y+1, r25	; 0x01
    1ffe:	88 83       	st	Y, r24
    2000:	1b 83       	std	Y+3, r17	; 0x03
    2002:	0a 83       	std	Y+2, r16	; 0x02
    2004:	81 e0       	ldi	r24, 0x01	; 1
    2006:	01 c0       	rjmp	.+2      	; 0x200a <_ZN6String12changeBufferEj+0x2a>
    2008:	80 e0       	ldi	r24, 0x00	; 0
    200a:	df 91       	pop	r29
    200c:	cf 91       	pop	r28
    200e:	1f 91       	pop	r17
    2010:	0f 91       	pop	r16
    2012:	08 95       	ret

00002014 <_ZN6String7reserveEj>:
    2014:	cf 93       	push	r28
    2016:	df 93       	push	r29
    2018:	ec 01       	movw	r28, r24
    201a:	88 81       	ld	r24, Y
    201c:	99 81       	ldd	r25, Y+1	; 0x01
    201e:	89 2b       	or	r24, r25
    2020:	31 f0       	breq	.+12     	; 0x202e <_ZN6String7reserveEj+0x1a>
    2022:	8a 81       	ldd	r24, Y+2	; 0x02
    2024:	9b 81       	ldd	r25, Y+3	; 0x03
    2026:	86 17       	cp	r24, r22
    2028:	97 07       	cpc	r25, r23
    202a:	08 f0       	brcs	.+2      	; 0x202e <_ZN6String7reserveEj+0x1a>
    202c:	0c c0       	rjmp	.+24     	; 0x2046 <_ZN6String7reserveEj+0x32>
    202e:	ce 01       	movw	r24, r28
    2030:	0e 94 f0 0f 	call	0x1fe0	; 0x1fe0 <_ZN6String12changeBufferEj>
    2034:	88 23       	and	r24, r24
    2036:	49 f0       	breq	.+18     	; 0x204a <_ZN6String7reserveEj+0x36>
    2038:	8c 81       	ldd	r24, Y+4	; 0x04
    203a:	9d 81       	ldd	r25, Y+5	; 0x05
    203c:	89 2b       	or	r24, r25
    203e:	19 f4       	brne	.+6      	; 0x2046 <_ZN6String7reserveEj+0x32>
    2040:	e8 81       	ld	r30, Y
    2042:	f9 81       	ldd	r31, Y+1	; 0x01
    2044:	10 82       	st	Z, r1
    2046:	81 e0       	ldi	r24, 0x01	; 1
    2048:	01 c0       	rjmp	.+2      	; 0x204c <_ZN6String7reserveEj+0x38>
    204a:	80 e0       	ldi	r24, 0x00	; 0
    204c:	df 91       	pop	r29
    204e:	cf 91       	pop	r28
    2050:	08 95       	ret

00002052 <_ZN6String4copyEPKcj>:
    2052:	ef 92       	push	r14
    2054:	ff 92       	push	r15
    2056:	0f 93       	push	r16
    2058:	1f 93       	push	r17
    205a:	cf 93       	push	r28
    205c:	df 93       	push	r29
    205e:	ec 01       	movw	r28, r24
    2060:	7b 01       	movw	r14, r22
    2062:	8a 01       	movw	r16, r20
    2064:	ba 01       	movw	r22, r20
    2066:	0e 94 0a 10 	call	0x2014	; 0x2014 <_ZN6String7reserveEj>
    206a:	81 11       	cpse	r24, r1
    206c:	04 c0       	rjmp	.+8      	; 0x2076 <_ZN6String4copyEPKcj+0x24>
    206e:	ce 01       	movw	r24, r28
    2070:	0e 94 de 0f 	call	0x1fbc	; 0x1fbc <_ZN6String10invalidateEv>
    2074:	07 c0       	rjmp	.+14     	; 0x2084 <_ZN6String4copyEPKcj+0x32>
    2076:	1d 83       	std	Y+5, r17	; 0x05
    2078:	0c 83       	std	Y+4, r16	; 0x04
    207a:	b7 01       	movw	r22, r14
    207c:	88 81       	ld	r24, Y
    207e:	99 81       	ldd	r25, Y+1	; 0x01
    2080:	0e 94 3d 34 	call	0x687a	; 0x687a <strcpy>
    2084:	ce 01       	movw	r24, r28
    2086:	df 91       	pop	r29
    2088:	cf 91       	pop	r28
    208a:	1f 91       	pop	r17
    208c:	0f 91       	pop	r16
    208e:	ff 90       	pop	r15
    2090:	ef 90       	pop	r14
    2092:	08 95       	ret

00002094 <_ZN6StringC1EPKc>:
    2094:	dc 01       	movw	r26, r24
    2096:	11 96       	adiw	r26, 0x01	; 1
    2098:	1c 92       	st	X, r1
    209a:	1e 92       	st	-X, r1
    209c:	13 96       	adiw	r26, 0x03	; 3
    209e:	1c 92       	st	X, r1
    20a0:	1e 92       	st	-X, r1
    20a2:	12 97       	sbiw	r26, 0x02	; 2
    20a4:	15 96       	adiw	r26, 0x05	; 5
    20a6:	1c 92       	st	X, r1
    20a8:	1e 92       	st	-X, r1
    20aa:	14 97       	sbiw	r26, 0x04	; 4
    20ac:	16 96       	adiw	r26, 0x06	; 6
    20ae:	1c 92       	st	X, r1
    20b0:	61 15       	cp	r22, r1
    20b2:	71 05       	cpc	r23, r1
    20b4:	59 f0       	breq	.+22     	; 0x20cc <_ZN6StringC1EPKc+0x38>
    20b6:	db 01       	movw	r26, r22
    20b8:	0d 90       	ld	r0, X+
    20ba:	00 20       	and	r0, r0
    20bc:	e9 f7       	brne	.-6      	; 0x20b8 <_ZN6StringC1EPKc+0x24>
    20be:	ad 01       	movw	r20, r26
    20c0:	41 50       	subi	r20, 0x01	; 1
    20c2:	51 09       	sbc	r21, r1
    20c4:	46 1b       	sub	r20, r22
    20c6:	57 0b       	sbc	r21, r23
    20c8:	0c 94 29 10 	jmp	0x2052	; 0x2052 <_ZN6String4copyEPKcj>
    20cc:	08 95       	ret

000020ce <_ZN6StringaSERKS_>:
    20ce:	cf 93       	push	r28
    20d0:	df 93       	push	r29
    20d2:	ec 01       	movw	r28, r24
    20d4:	fb 01       	movw	r30, r22
    20d6:	86 17       	cp	r24, r22
    20d8:	97 07       	cpc	r25, r23
    20da:	61 f0       	breq	.+24     	; 0x20f4 <_ZN6StringaSERKS_+0x26>
    20dc:	60 81       	ld	r22, Z
    20de:	71 81       	ldd	r23, Z+1	; 0x01
    20e0:	61 15       	cp	r22, r1
    20e2:	71 05       	cpc	r23, r1
    20e4:	29 f0       	breq	.+10     	; 0x20f0 <_ZN6StringaSERKS_+0x22>
    20e6:	44 81       	ldd	r20, Z+4	; 0x04
    20e8:	55 81       	ldd	r21, Z+5	; 0x05
    20ea:	0e 94 29 10 	call	0x2052	; 0x2052 <_ZN6String4copyEPKcj>
    20ee:	02 c0       	rjmp	.+4      	; 0x20f4 <_ZN6StringaSERKS_+0x26>
    20f0:	0e 94 de 0f 	call	0x1fbc	; 0x1fbc <_ZN6String10invalidateEv>
    20f4:	ce 01       	movw	r24, r28
    20f6:	df 91       	pop	r29
    20f8:	cf 91       	pop	r28
    20fa:	08 95       	ret

000020fc <_ZN6StringC1ERKS_>:
    20fc:	fc 01       	movw	r30, r24
    20fe:	11 82       	std	Z+1, r1	; 0x01
    2100:	10 82       	st	Z, r1
    2102:	13 82       	std	Z+3, r1	; 0x03
    2104:	12 82       	std	Z+2, r1	; 0x02
    2106:	15 82       	std	Z+5, r1	; 0x05
    2108:	14 82       	std	Z+4, r1	; 0x04
    210a:	16 82       	std	Z+6, r1	; 0x06
    210c:	0c 94 67 10 	jmp	0x20ce	; 0x20ce <_ZN6StringaSERKS_>

00002110 <_ZN6StringaSEPKc>:
    2110:	cf 93       	push	r28
    2112:	df 93       	push	r29
    2114:	d8 2f       	mov	r29, r24
    2116:	c9 2f       	mov	r28, r25
    2118:	61 15       	cp	r22, r1
    211a:	71 05       	cpc	r23, r1
    211c:	61 f0       	breq	.+24     	; 0x2136 <_ZN6StringaSEPKc+0x26>
    211e:	db 01       	movw	r26, r22
    2120:	0d 90       	ld	r0, X+
    2122:	00 20       	and	r0, r0
    2124:	e9 f7       	brne	.-6      	; 0x2120 <_ZN6StringaSEPKc+0x10>
    2126:	ad 01       	movw	r20, r26
    2128:	41 50       	subi	r20, 0x01	; 1
    212a:	51 09       	sbc	r21, r1
    212c:	46 1b       	sub	r20, r22
    212e:	57 0b       	sbc	r21, r23
    2130:	0e 94 29 10 	call	0x2052	; 0x2052 <_ZN6String4copyEPKcj>
    2134:	02 c0       	rjmp	.+4      	; 0x213a <_ZN6StringaSEPKc+0x2a>
    2136:	0e 94 de 0f 	call	0x1fbc	; 0x1fbc <_ZN6String10invalidateEv>
    213a:	8d 2f       	mov	r24, r29
    213c:	9c 2f       	mov	r25, r28
    213e:	df 91       	pop	r29
    2140:	cf 91       	pop	r28
    2142:	08 95       	ret

00002144 <_ZN6StringC1Emh>:
    2144:	0f 93       	push	r16
    2146:	1f 93       	push	r17
    2148:	cf 93       	push	r28
    214a:	df 93       	push	r29
    214c:	cd b7       	in	r28, 0x3d	; 61
    214e:	de b7       	in	r29, 0x3e	; 62
    2150:	a1 97       	sbiw	r28, 0x21	; 33
    2152:	0f b6       	in	r0, 0x3f	; 63
    2154:	f8 94       	cli
    2156:	de bf       	out	0x3e, r29	; 62
    2158:	0f be       	out	0x3f, r0	; 63
    215a:	cd bf       	out	0x3d, r28	; 61
    215c:	8c 01       	movw	r16, r24
    215e:	cb 01       	movw	r24, r22
    2160:	ba 01       	movw	r22, r20
    2162:	f8 01       	movw	r30, r16
    2164:	11 82       	std	Z+1, r1	; 0x01
    2166:	10 82       	st	Z, r1
    2168:	13 82       	std	Z+3, r1	; 0x03
    216a:	12 82       	std	Z+2, r1	; 0x02
    216c:	15 82       	std	Z+5, r1	; 0x05
    216e:	14 82       	std	Z+4, r1	; 0x04
    2170:	16 82       	std	Z+6, r1	; 0x06
    2172:	30 e0       	ldi	r19, 0x00	; 0
    2174:	ae 01       	movw	r20, r28
    2176:	4f 5f       	subi	r20, 0xFF	; 255
    2178:	5f 4f       	sbci	r21, 0xFF	; 255
    217a:	0e 94 f0 34 	call	0x69e0	; 0x69e0 <ultoa>
    217e:	be 01       	movw	r22, r28
    2180:	6f 5f       	subi	r22, 0xFF	; 255
    2182:	7f 4f       	sbci	r23, 0xFF	; 255
    2184:	c8 01       	movw	r24, r16
    2186:	0e 94 88 10 	call	0x2110	; 0x2110 <_ZN6StringaSEPKc>
    218a:	a1 96       	adiw	r28, 0x21	; 33
    218c:	0f b6       	in	r0, 0x3f	; 63
    218e:	f8 94       	cli
    2190:	de bf       	out	0x3e, r29	; 62
    2192:	0f be       	out	0x3f, r0	; 63
    2194:	cd bf       	out	0x3d, r28	; 61
    2196:	df 91       	pop	r29
    2198:	cf 91       	pop	r28
    219a:	1f 91       	pop	r17
    219c:	0f 91       	pop	r16
    219e:	08 95       	ret

000021a0 <_ZN6StringC1Elh>:
    21a0:	0f 93       	push	r16
    21a2:	1f 93       	push	r17
    21a4:	cf 93       	push	r28
    21a6:	df 93       	push	r29
    21a8:	cd b7       	in	r28, 0x3d	; 61
    21aa:	de b7       	in	r29, 0x3e	; 62
    21ac:	a2 97       	sbiw	r28, 0x22	; 34
    21ae:	0f b6       	in	r0, 0x3f	; 63
    21b0:	f8 94       	cli
    21b2:	de bf       	out	0x3e, r29	; 62
    21b4:	0f be       	out	0x3f, r0	; 63
    21b6:	cd bf       	out	0x3d, r28	; 61
    21b8:	8c 01       	movw	r16, r24
    21ba:	cb 01       	movw	r24, r22
    21bc:	ba 01       	movw	r22, r20
    21be:	f8 01       	movw	r30, r16
    21c0:	11 82       	std	Z+1, r1	; 0x01
    21c2:	10 82       	st	Z, r1
    21c4:	13 82       	std	Z+3, r1	; 0x03
    21c6:	12 82       	std	Z+2, r1	; 0x02
    21c8:	15 82       	std	Z+5, r1	; 0x05
    21ca:	14 82       	std	Z+4, r1	; 0x04
    21cc:	16 82       	std	Z+6, r1	; 0x06
    21ce:	30 e0       	ldi	r19, 0x00	; 0
    21d0:	ae 01       	movw	r20, r28
    21d2:	4f 5f       	subi	r20, 0xFF	; 255
    21d4:	5f 4f       	sbci	r21, 0xFF	; 255
    21d6:	0e 94 a7 34 	call	0x694e	; 0x694e <ltoa>
    21da:	be 01       	movw	r22, r28
    21dc:	6f 5f       	subi	r22, 0xFF	; 255
    21de:	7f 4f       	sbci	r23, 0xFF	; 255
    21e0:	c8 01       	movw	r24, r16
    21e2:	0e 94 88 10 	call	0x2110	; 0x2110 <_ZN6StringaSEPKc>
    21e6:	a2 96       	adiw	r28, 0x22	; 34
    21e8:	0f b6       	in	r0, 0x3f	; 63
    21ea:	f8 94       	cli
    21ec:	de bf       	out	0x3e, r29	; 62
    21ee:	0f be       	out	0x3f, r0	; 63
    21f0:	cd bf       	out	0x3d, r28	; 61
    21f2:	df 91       	pop	r29
    21f4:	cf 91       	pop	r28
    21f6:	1f 91       	pop	r17
    21f8:	0f 91       	pop	r16
    21fa:	08 95       	ret

000021fc <_ZN6StringC1Ejh>:
    21fc:	0f 93       	push	r16
    21fe:	1f 93       	push	r17
    2200:	cf 93       	push	r28
    2202:	df 93       	push	r29
    2204:	cd b7       	in	r28, 0x3d	; 61
    2206:	de b7       	in	r29, 0x3e	; 62
    2208:	61 97       	sbiw	r28, 0x11	; 17
    220a:	0f b6       	in	r0, 0x3f	; 63
    220c:	f8 94       	cli
    220e:	de bf       	out	0x3e, r29	; 62
    2210:	0f be       	out	0x3f, r0	; 63
    2212:	cd bf       	out	0x3d, r28	; 61
    2214:	8c 01       	movw	r16, r24
    2216:	cb 01       	movw	r24, r22
    2218:	f8 01       	movw	r30, r16
    221a:	11 82       	std	Z+1, r1	; 0x01
    221c:	10 82       	st	Z, r1
    221e:	13 82       	std	Z+3, r1	; 0x03
    2220:	12 82       	std	Z+2, r1	; 0x02
    2222:	15 82       	std	Z+5, r1	; 0x05
    2224:	14 82       	std	Z+4, r1	; 0x04
    2226:	16 82       	std	Z+6, r1	; 0x06
    2228:	50 e0       	ldi	r21, 0x00	; 0
    222a:	be 01       	movw	r22, r28
    222c:	6f 5f       	subi	r22, 0xFF	; 255
    222e:	7f 4f       	sbci	r23, 0xFF	; 255
    2230:	0e 94 15 35 	call	0x6a2a	; 0x6a2a <utoa>
    2234:	be 01       	movw	r22, r28
    2236:	6f 5f       	subi	r22, 0xFF	; 255
    2238:	7f 4f       	sbci	r23, 0xFF	; 255
    223a:	c8 01       	movw	r24, r16
    223c:	0e 94 88 10 	call	0x2110	; 0x2110 <_ZN6StringaSEPKc>
    2240:	61 96       	adiw	r28, 0x11	; 17
    2242:	0f b6       	in	r0, 0x3f	; 63
    2244:	f8 94       	cli
    2246:	de bf       	out	0x3e, r29	; 62
    2248:	0f be       	out	0x3f, r0	; 63
    224a:	cd bf       	out	0x3d, r28	; 61
    224c:	df 91       	pop	r29
    224e:	cf 91       	pop	r28
    2250:	1f 91       	pop	r17
    2252:	0f 91       	pop	r16
    2254:	08 95       	ret

00002256 <_ZN6StringC1Eih>:
    2256:	0f 93       	push	r16
    2258:	1f 93       	push	r17
    225a:	cf 93       	push	r28
    225c:	df 93       	push	r29
    225e:	cd b7       	in	r28, 0x3d	; 61
    2260:	de b7       	in	r29, 0x3e	; 62
    2262:	62 97       	sbiw	r28, 0x12	; 18
    2264:	0f b6       	in	r0, 0x3f	; 63
    2266:	f8 94       	cli
    2268:	de bf       	out	0x3e, r29	; 62
    226a:	0f be       	out	0x3f, r0	; 63
    226c:	cd bf       	out	0x3d, r28	; 61
    226e:	8c 01       	movw	r16, r24
    2270:	cb 01       	movw	r24, r22
    2272:	f8 01       	movw	r30, r16
    2274:	11 82       	std	Z+1, r1	; 0x01
    2276:	10 82       	st	Z, r1
    2278:	13 82       	std	Z+3, r1	; 0x03
    227a:	12 82       	std	Z+2, r1	; 0x02
    227c:	15 82       	std	Z+5, r1	; 0x05
    227e:	14 82       	std	Z+4, r1	; 0x04
    2280:	16 82       	std	Z+6, r1	; 0x06
    2282:	50 e0       	ldi	r21, 0x00	; 0
    2284:	be 01       	movw	r22, r28
    2286:	6f 5f       	subi	r22, 0xFF	; 255
    2288:	7f 4f       	sbci	r23, 0xFF	; 255
    228a:	0e 94 86 34 	call	0x690c	; 0x690c <itoa>
    228e:	be 01       	movw	r22, r28
    2290:	6f 5f       	subi	r22, 0xFF	; 255
    2292:	7f 4f       	sbci	r23, 0xFF	; 255
    2294:	c8 01       	movw	r24, r16
    2296:	0e 94 88 10 	call	0x2110	; 0x2110 <_ZN6StringaSEPKc>
    229a:	62 96       	adiw	r28, 0x12	; 18
    229c:	0f b6       	in	r0, 0x3f	; 63
    229e:	f8 94       	cli
    22a0:	de bf       	out	0x3e, r29	; 62
    22a2:	0f be       	out	0x3f, r0	; 63
    22a4:	cd bf       	out	0x3d, r28	; 61
    22a6:	df 91       	pop	r29
    22a8:	cf 91       	pop	r28
    22aa:	1f 91       	pop	r17
    22ac:	0f 91       	pop	r16
    22ae:	08 95       	ret

000022b0 <_ZN6StringC1Ehh>:
    22b0:	0f 93       	push	r16
    22b2:	1f 93       	push	r17
    22b4:	cf 93       	push	r28
    22b6:	df 93       	push	r29
    22b8:	cd b7       	in	r28, 0x3d	; 61
    22ba:	de b7       	in	r29, 0x3e	; 62
    22bc:	29 97       	sbiw	r28, 0x09	; 9
    22be:	0f b6       	in	r0, 0x3f	; 63
    22c0:	f8 94       	cli
    22c2:	de bf       	out	0x3e, r29	; 62
    22c4:	0f be       	out	0x3f, r0	; 63
    22c6:	cd bf       	out	0x3d, r28	; 61
    22c8:	8c 01       	movw	r16, r24
    22ca:	86 2f       	mov	r24, r22
    22cc:	f8 01       	movw	r30, r16
    22ce:	11 82       	std	Z+1, r1	; 0x01
    22d0:	10 82       	st	Z, r1
    22d2:	13 82       	std	Z+3, r1	; 0x03
    22d4:	12 82       	std	Z+2, r1	; 0x02
    22d6:	15 82       	std	Z+5, r1	; 0x05
    22d8:	14 82       	std	Z+4, r1	; 0x04
    22da:	16 82       	std	Z+6, r1	; 0x06
    22dc:	50 e0       	ldi	r21, 0x00	; 0
    22de:	be 01       	movw	r22, r28
    22e0:	6f 5f       	subi	r22, 0xFF	; 255
    22e2:	7f 4f       	sbci	r23, 0xFF	; 255
    22e4:	90 e0       	ldi	r25, 0x00	; 0
    22e6:	0e 94 15 35 	call	0x6a2a	; 0x6a2a <utoa>
    22ea:	be 01       	movw	r22, r28
    22ec:	6f 5f       	subi	r22, 0xFF	; 255
    22ee:	7f 4f       	sbci	r23, 0xFF	; 255
    22f0:	c8 01       	movw	r24, r16
    22f2:	0e 94 88 10 	call	0x2110	; 0x2110 <_ZN6StringaSEPKc>
    22f6:	29 96       	adiw	r28, 0x09	; 9
    22f8:	0f b6       	in	r0, 0x3f	; 63
    22fa:	f8 94       	cli
    22fc:	de bf       	out	0x3e, r29	; 62
    22fe:	0f be       	out	0x3f, r0	; 63
    2300:	cd bf       	out	0x3d, r28	; 61
    2302:	df 91       	pop	r29
    2304:	cf 91       	pop	r28
    2306:	1f 91       	pop	r17
    2308:	0f 91       	pop	r16
    230a:	08 95       	ret

0000230c <_ZN6StringC1Ec>:
    230c:	cf 93       	push	r28
    230e:	df 93       	push	r29
    2310:	00 d0       	rcall	.+0      	; 0x2312 <_ZN6StringC1Ec+0x6>
    2312:	cd b7       	in	r28, 0x3d	; 61
    2314:	de b7       	in	r29, 0x3e	; 62
    2316:	fc 01       	movw	r30, r24
    2318:	11 82       	std	Z+1, r1	; 0x01
    231a:	10 82       	st	Z, r1
    231c:	13 82       	std	Z+3, r1	; 0x03
    231e:	12 82       	std	Z+2, r1	; 0x02
    2320:	15 82       	std	Z+5, r1	; 0x05
    2322:	14 82       	std	Z+4, r1	; 0x04
    2324:	16 82       	std	Z+6, r1	; 0x06
    2326:	69 83       	std	Y+1, r22	; 0x01
    2328:	1a 82       	std	Y+2, r1	; 0x02
    232a:	be 01       	movw	r22, r28
    232c:	6f 5f       	subi	r22, 0xFF	; 255
    232e:	7f 4f       	sbci	r23, 0xFF	; 255
    2330:	0e 94 88 10 	call	0x2110	; 0x2110 <_ZN6StringaSEPKc>
    2334:	0f 90       	pop	r0
    2336:	0f 90       	pop	r0
    2338:	df 91       	pop	r29
    233a:	cf 91       	pop	r28
    233c:	08 95       	ret

0000233e <_ZN6String6concatEPKcj>:
    233e:	ef 92       	push	r14
    2340:	ff 92       	push	r15
    2342:	0f 93       	push	r16
    2344:	1f 93       	push	r17
    2346:	cf 93       	push	r28
    2348:	df 93       	push	r29
    234a:	ec 01       	movw	r28, r24
    234c:	7b 01       	movw	r14, r22
    234e:	0c 81       	ldd	r16, Y+4	; 0x04
    2350:	1d 81       	ldd	r17, Y+5	; 0x05
    2352:	61 15       	cp	r22, r1
    2354:	71 05       	cpc	r23, r1
    2356:	11 f4       	brne	.+4      	; 0x235c <_ZN6String6concatEPKcj+0x1e>
    2358:	80 e0       	ldi	r24, 0x00	; 0
    235a:	16 c0       	rjmp	.+44     	; 0x2388 <_ZN6String6concatEPKcj+0x4a>
    235c:	41 15       	cp	r20, r1
    235e:	51 05       	cpc	r21, r1
    2360:	91 f0       	breq	.+36     	; 0x2386 <_ZN6String6concatEPKcj+0x48>
    2362:	04 0f       	add	r16, r20
    2364:	15 1f       	adc	r17, r21
    2366:	b8 01       	movw	r22, r16
    2368:	0e 94 0a 10 	call	0x2014	; 0x2014 <_ZN6String7reserveEj>
    236c:	88 23       	and	r24, r24
    236e:	a1 f3       	breq	.-24     	; 0x2358 <_ZN6String6concatEPKcj+0x1a>
    2370:	28 81       	ld	r18, Y
    2372:	39 81       	ldd	r19, Y+1	; 0x01
    2374:	8c 81       	ldd	r24, Y+4	; 0x04
    2376:	9d 81       	ldd	r25, Y+5	; 0x05
    2378:	b7 01       	movw	r22, r14
    237a:	82 0f       	add	r24, r18
    237c:	93 1f       	adc	r25, r19
    237e:	0e 94 3d 34 	call	0x687a	; 0x687a <strcpy>
    2382:	1d 83       	std	Y+5, r17	; 0x05
    2384:	0c 83       	std	Y+4, r16	; 0x04
    2386:	81 e0       	ldi	r24, 0x01	; 1
    2388:	df 91       	pop	r29
    238a:	cf 91       	pop	r28
    238c:	1f 91       	pop	r17
    238e:	0f 91       	pop	r16
    2390:	ff 90       	pop	r15
    2392:	ef 90       	pop	r14
    2394:	08 95       	ret

00002396 <_ZN6String6concatERKS_>:
    2396:	fb 01       	movw	r30, r22
    2398:	44 81       	ldd	r20, Z+4	; 0x04
    239a:	55 81       	ldd	r21, Z+5	; 0x05
    239c:	60 81       	ld	r22, Z
    239e:	71 81       	ldd	r23, Z+1	; 0x01
    23a0:	0c 94 9f 11 	jmp	0x233e	; 0x233e <_ZN6String6concatEPKcj>

000023a4 <_ZN6String6concatEPKc>:
    23a4:	61 15       	cp	r22, r1
    23a6:	71 05       	cpc	r23, r1
    23a8:	59 f0       	breq	.+22     	; 0x23c0 <_ZN6String6concatEPKc+0x1c>
    23aa:	db 01       	movw	r26, r22
    23ac:	0d 90       	ld	r0, X+
    23ae:	00 20       	and	r0, r0
    23b0:	e9 f7       	brne	.-6      	; 0x23ac <_ZN6String6concatEPKc+0x8>
    23b2:	ad 01       	movw	r20, r26
    23b4:	41 50       	subi	r20, 0x01	; 1
    23b6:	51 09       	sbc	r21, r1
    23b8:	46 1b       	sub	r20, r22
    23ba:	57 0b       	sbc	r21, r23
    23bc:	0c 94 9f 11 	jmp	0x233e	; 0x233e <_ZN6String6concatEPKcj>
    23c0:	80 e0       	ldi	r24, 0x00	; 0
    23c2:	08 95       	ret

000023c4 <_ZN6String6concatEc>:
    23c4:	cf 93       	push	r28
    23c6:	df 93       	push	r29
    23c8:	00 d0       	rcall	.+0      	; 0x23ca <_ZN6String6concatEc+0x6>
    23ca:	cd b7       	in	r28, 0x3d	; 61
    23cc:	de b7       	in	r29, 0x3e	; 62
    23ce:	69 83       	std	Y+1, r22	; 0x01
    23d0:	1a 82       	std	Y+2, r1	; 0x02
    23d2:	41 e0       	ldi	r20, 0x01	; 1
    23d4:	50 e0       	ldi	r21, 0x00	; 0
    23d6:	be 01       	movw	r22, r28
    23d8:	6f 5f       	subi	r22, 0xFF	; 255
    23da:	7f 4f       	sbci	r23, 0xFF	; 255
    23dc:	0e 94 9f 11 	call	0x233e	; 0x233e <_ZN6String6concatEPKcj>
    23e0:	0f 90       	pop	r0
    23e2:	0f 90       	pop	r0
    23e4:	df 91       	pop	r29
    23e6:	cf 91       	pop	r28
    23e8:	08 95       	ret

000023ea <_ZN6String6concatEh>:
    23ea:	ef 92       	push	r14
    23ec:	ff 92       	push	r15
    23ee:	0f 93       	push	r16
    23f0:	1f 93       	push	r17
    23f2:	cf 93       	push	r28
    23f4:	df 93       	push	r29
    23f6:	00 d0       	rcall	.+0      	; 0x23f8 <_ZN6String6concatEh+0xe>
    23f8:	00 d0       	rcall	.+0      	; 0x23fa <_ZN6String6concatEh+0x10>
    23fa:	cd b7       	in	r28, 0x3d	; 61
    23fc:	de b7       	in	r29, 0x3e	; 62
    23fe:	7c 01       	movw	r14, r24
    2400:	86 2f       	mov	r24, r22
    2402:	4a e0       	ldi	r20, 0x0A	; 10
    2404:	50 e0       	ldi	r21, 0x00	; 0
    2406:	8e 01       	movw	r16, r28
    2408:	0f 5f       	subi	r16, 0xFF	; 255
    240a:	1f 4f       	sbci	r17, 0xFF	; 255
    240c:	b8 01       	movw	r22, r16
    240e:	90 e0       	ldi	r25, 0x00	; 0
    2410:	0e 94 86 34 	call	0x690c	; 0x690c <itoa>
    2414:	f8 01       	movw	r30, r16
    2416:	01 90       	ld	r0, Z+
    2418:	00 20       	and	r0, r0
    241a:	e9 f7       	brne	.-6      	; 0x2416 <_ZN6String6concatEh+0x2c>
    241c:	af 01       	movw	r20, r30
    241e:	41 50       	subi	r20, 0x01	; 1
    2420:	51 09       	sbc	r21, r1
    2422:	40 1b       	sub	r20, r16
    2424:	51 0b       	sbc	r21, r17
    2426:	b8 01       	movw	r22, r16
    2428:	c7 01       	movw	r24, r14
    242a:	0e 94 9f 11 	call	0x233e	; 0x233e <_ZN6String6concatEPKcj>
    242e:	0f 90       	pop	r0
    2430:	0f 90       	pop	r0
    2432:	0f 90       	pop	r0
    2434:	0f 90       	pop	r0
    2436:	df 91       	pop	r29
    2438:	cf 91       	pop	r28
    243a:	1f 91       	pop	r17
    243c:	0f 91       	pop	r16
    243e:	ff 90       	pop	r15
    2440:	ef 90       	pop	r14
    2442:	08 95       	ret

00002444 <_ZN6String6concatEi>:
    2444:	ef 92       	push	r14
    2446:	ff 92       	push	r15
    2448:	0f 93       	push	r16
    244a:	1f 93       	push	r17
    244c:	cf 93       	push	r28
    244e:	df 93       	push	r29
    2450:	cd b7       	in	r28, 0x3d	; 61
    2452:	de b7       	in	r29, 0x3e	; 62
    2454:	27 97       	sbiw	r28, 0x07	; 7
    2456:	0f b6       	in	r0, 0x3f	; 63
    2458:	f8 94       	cli
    245a:	de bf       	out	0x3e, r29	; 62
    245c:	0f be       	out	0x3f, r0	; 63
    245e:	cd bf       	out	0x3d, r28	; 61
    2460:	7c 01       	movw	r14, r24
    2462:	cb 01       	movw	r24, r22
    2464:	4a e0       	ldi	r20, 0x0A	; 10
    2466:	50 e0       	ldi	r21, 0x00	; 0
    2468:	8e 01       	movw	r16, r28
    246a:	0f 5f       	subi	r16, 0xFF	; 255
    246c:	1f 4f       	sbci	r17, 0xFF	; 255
    246e:	b8 01       	movw	r22, r16
    2470:	0e 94 86 34 	call	0x690c	; 0x690c <itoa>
    2474:	f8 01       	movw	r30, r16
    2476:	01 90       	ld	r0, Z+
    2478:	00 20       	and	r0, r0
    247a:	e9 f7       	brne	.-6      	; 0x2476 <_ZN6String6concatEi+0x32>
    247c:	af 01       	movw	r20, r30
    247e:	41 50       	subi	r20, 0x01	; 1
    2480:	51 09       	sbc	r21, r1
    2482:	40 1b       	sub	r20, r16
    2484:	51 0b       	sbc	r21, r17
    2486:	b8 01       	movw	r22, r16
    2488:	c7 01       	movw	r24, r14
    248a:	0e 94 9f 11 	call	0x233e	; 0x233e <_ZN6String6concatEPKcj>
    248e:	27 96       	adiw	r28, 0x07	; 7
    2490:	0f b6       	in	r0, 0x3f	; 63
    2492:	f8 94       	cli
    2494:	de bf       	out	0x3e, r29	; 62
    2496:	0f be       	out	0x3f, r0	; 63
    2498:	cd bf       	out	0x3d, r28	; 61
    249a:	df 91       	pop	r29
    249c:	cf 91       	pop	r28
    249e:	1f 91       	pop	r17
    24a0:	0f 91       	pop	r16
    24a2:	ff 90       	pop	r15
    24a4:	ef 90       	pop	r14
    24a6:	08 95       	ret

000024a8 <_ZN6String6concatEj>:
    24a8:	ef 92       	push	r14
    24aa:	ff 92       	push	r15
    24ac:	0f 93       	push	r16
    24ae:	1f 93       	push	r17
    24b0:	cf 93       	push	r28
    24b2:	df 93       	push	r29
    24b4:	00 d0       	rcall	.+0      	; 0x24b6 <_ZN6String6concatEj+0xe>
    24b6:	00 d0       	rcall	.+0      	; 0x24b8 <_ZN6String6concatEj+0x10>
    24b8:	00 d0       	rcall	.+0      	; 0x24ba <_ZN6String6concatEj+0x12>
    24ba:	cd b7       	in	r28, 0x3d	; 61
    24bc:	de b7       	in	r29, 0x3e	; 62
    24be:	7c 01       	movw	r14, r24
    24c0:	cb 01       	movw	r24, r22
    24c2:	4a e0       	ldi	r20, 0x0A	; 10
    24c4:	50 e0       	ldi	r21, 0x00	; 0
    24c6:	8e 01       	movw	r16, r28
    24c8:	0f 5f       	subi	r16, 0xFF	; 255
    24ca:	1f 4f       	sbci	r17, 0xFF	; 255
    24cc:	b8 01       	movw	r22, r16
    24ce:	0e 94 15 35 	call	0x6a2a	; 0x6a2a <utoa>
    24d2:	f8 01       	movw	r30, r16
    24d4:	01 90       	ld	r0, Z+
    24d6:	00 20       	and	r0, r0
    24d8:	e9 f7       	brne	.-6      	; 0x24d4 <_ZN6String6concatEj+0x2c>
    24da:	af 01       	movw	r20, r30
    24dc:	41 50       	subi	r20, 0x01	; 1
    24de:	51 09       	sbc	r21, r1
    24e0:	40 1b       	sub	r20, r16
    24e2:	51 0b       	sbc	r21, r17
    24e4:	b8 01       	movw	r22, r16
    24e6:	c7 01       	movw	r24, r14
    24e8:	0e 94 9f 11 	call	0x233e	; 0x233e <_ZN6String6concatEPKcj>
    24ec:	26 96       	adiw	r28, 0x06	; 6
    24ee:	0f b6       	in	r0, 0x3f	; 63
    24f0:	f8 94       	cli
    24f2:	de bf       	out	0x3e, r29	; 62
    24f4:	0f be       	out	0x3f, r0	; 63
    24f6:	cd bf       	out	0x3d, r28	; 61
    24f8:	df 91       	pop	r29
    24fa:	cf 91       	pop	r28
    24fc:	1f 91       	pop	r17
    24fe:	0f 91       	pop	r16
    2500:	ff 90       	pop	r15
    2502:	ef 90       	pop	r14
    2504:	08 95       	ret

00002506 <_ZN6String6concatEl>:
    2506:	ef 92       	push	r14
    2508:	ff 92       	push	r15
    250a:	0f 93       	push	r16
    250c:	1f 93       	push	r17
    250e:	cf 93       	push	r28
    2510:	df 93       	push	r29
    2512:	cd b7       	in	r28, 0x3d	; 61
    2514:	de b7       	in	r29, 0x3e	; 62
    2516:	2c 97       	sbiw	r28, 0x0c	; 12
    2518:	0f b6       	in	r0, 0x3f	; 63
    251a:	f8 94       	cli
    251c:	de bf       	out	0x3e, r29	; 62
    251e:	0f be       	out	0x3f, r0	; 63
    2520:	cd bf       	out	0x3d, r28	; 61
    2522:	7c 01       	movw	r14, r24
    2524:	cb 01       	movw	r24, r22
    2526:	ba 01       	movw	r22, r20
    2528:	2a e0       	ldi	r18, 0x0A	; 10
    252a:	30 e0       	ldi	r19, 0x00	; 0
    252c:	8e 01       	movw	r16, r28
    252e:	0f 5f       	subi	r16, 0xFF	; 255
    2530:	1f 4f       	sbci	r17, 0xFF	; 255
    2532:	a8 01       	movw	r20, r16
    2534:	0e 94 a7 34 	call	0x694e	; 0x694e <ltoa>
    2538:	f8 01       	movw	r30, r16
    253a:	01 90       	ld	r0, Z+
    253c:	00 20       	and	r0, r0
    253e:	e9 f7       	brne	.-6      	; 0x253a <_ZN6String6concatEl+0x34>
    2540:	af 01       	movw	r20, r30
    2542:	41 50       	subi	r20, 0x01	; 1
    2544:	51 09       	sbc	r21, r1
    2546:	40 1b       	sub	r20, r16
    2548:	51 0b       	sbc	r21, r17
    254a:	b8 01       	movw	r22, r16
    254c:	c7 01       	movw	r24, r14
    254e:	0e 94 9f 11 	call	0x233e	; 0x233e <_ZN6String6concatEPKcj>
    2552:	2c 96       	adiw	r28, 0x0c	; 12
    2554:	0f b6       	in	r0, 0x3f	; 63
    2556:	f8 94       	cli
    2558:	de bf       	out	0x3e, r29	; 62
    255a:	0f be       	out	0x3f, r0	; 63
    255c:	cd bf       	out	0x3d, r28	; 61
    255e:	df 91       	pop	r29
    2560:	cf 91       	pop	r28
    2562:	1f 91       	pop	r17
    2564:	0f 91       	pop	r16
    2566:	ff 90       	pop	r15
    2568:	ef 90       	pop	r14
    256a:	08 95       	ret

0000256c <_ZN6String6concatEm>:
    256c:	ef 92       	push	r14
    256e:	ff 92       	push	r15
    2570:	0f 93       	push	r16
    2572:	1f 93       	push	r17
    2574:	cf 93       	push	r28
    2576:	df 93       	push	r29
    2578:	cd b7       	in	r28, 0x3d	; 61
    257a:	de b7       	in	r29, 0x3e	; 62
    257c:	2b 97       	sbiw	r28, 0x0b	; 11
    257e:	0f b6       	in	r0, 0x3f	; 63
    2580:	f8 94       	cli
    2582:	de bf       	out	0x3e, r29	; 62
    2584:	0f be       	out	0x3f, r0	; 63
    2586:	cd bf       	out	0x3d, r28	; 61
    2588:	7c 01       	movw	r14, r24
    258a:	cb 01       	movw	r24, r22
    258c:	ba 01       	movw	r22, r20
    258e:	2a e0       	ldi	r18, 0x0A	; 10
    2590:	30 e0       	ldi	r19, 0x00	; 0
    2592:	8e 01       	movw	r16, r28
    2594:	0f 5f       	subi	r16, 0xFF	; 255
    2596:	1f 4f       	sbci	r17, 0xFF	; 255
    2598:	a8 01       	movw	r20, r16
    259a:	0e 94 f0 34 	call	0x69e0	; 0x69e0 <ultoa>
    259e:	f8 01       	movw	r30, r16
    25a0:	01 90       	ld	r0, Z+
    25a2:	00 20       	and	r0, r0
    25a4:	e9 f7       	brne	.-6      	; 0x25a0 <_ZN6String6concatEm+0x34>
    25a6:	af 01       	movw	r20, r30
    25a8:	41 50       	subi	r20, 0x01	; 1
    25aa:	51 09       	sbc	r21, r1
    25ac:	40 1b       	sub	r20, r16
    25ae:	51 0b       	sbc	r21, r17
    25b0:	b8 01       	movw	r22, r16
    25b2:	c7 01       	movw	r24, r14
    25b4:	0e 94 9f 11 	call	0x233e	; 0x233e <_ZN6String6concatEPKcj>
    25b8:	2b 96       	adiw	r28, 0x0b	; 11
    25ba:	0f b6       	in	r0, 0x3f	; 63
    25bc:	f8 94       	cli
    25be:	de bf       	out	0x3e, r29	; 62
    25c0:	0f be       	out	0x3f, r0	; 63
    25c2:	cd bf       	out	0x3d, r28	; 61
    25c4:	df 91       	pop	r29
    25c6:	cf 91       	pop	r28
    25c8:	1f 91       	pop	r17
    25ca:	0f 91       	pop	r16
    25cc:	ff 90       	pop	r15
    25ce:	ef 90       	pop	r14
    25d0:	08 95       	ret

000025d2 <_ZplRK15StringSumHelperRK6String>:
    25d2:	cf 93       	push	r28
    25d4:	df 93       	push	r29
    25d6:	d8 2f       	mov	r29, r24
    25d8:	c9 2f       	mov	r28, r25
    25da:	fb 01       	movw	r30, r22
    25dc:	44 81       	ldd	r20, Z+4	; 0x04
    25de:	55 81       	ldd	r21, Z+5	; 0x05
    25e0:	60 81       	ld	r22, Z
    25e2:	71 81       	ldd	r23, Z+1	; 0x01
    25e4:	0e 94 9f 11 	call	0x233e	; 0x233e <_ZN6String6concatEPKcj>
    25e8:	81 11       	cpse	r24, r1
    25ea:	04 c0       	rjmp	.+8      	; 0x25f4 <_ZplRK15StringSumHelperRK6String+0x22>
    25ec:	8d 2f       	mov	r24, r29
    25ee:	9c 2f       	mov	r25, r28
    25f0:	0e 94 de 0f 	call	0x1fbc	; 0x1fbc <_ZN6String10invalidateEv>
    25f4:	8d 2f       	mov	r24, r29
    25f6:	9c 2f       	mov	r25, r28
    25f8:	df 91       	pop	r29
    25fa:	cf 91       	pop	r28
    25fc:	08 95       	ret

000025fe <_ZplRK15StringSumHelperPKc>:
    25fe:	cf 93       	push	r28
    2600:	df 93       	push	r29
    2602:	d8 2f       	mov	r29, r24
    2604:	c9 2f       	mov	r28, r25
    2606:	61 15       	cp	r22, r1
    2608:	71 05       	cpc	r23, r1
    260a:	69 f0       	breq	.+26     	; 0x2626 <_ZplRK15StringSumHelperPKc+0x28>
    260c:	db 01       	movw	r26, r22
    260e:	0d 90       	ld	r0, X+
    2610:	00 20       	and	r0, r0
    2612:	e9 f7       	brne	.-6      	; 0x260e <_ZplRK15StringSumHelperPKc+0x10>
    2614:	ad 01       	movw	r20, r26
    2616:	41 50       	subi	r20, 0x01	; 1
    2618:	51 09       	sbc	r21, r1
    261a:	46 1b       	sub	r20, r22
    261c:	57 0b       	sbc	r21, r23
    261e:	0e 94 9f 11 	call	0x233e	; 0x233e <_ZN6String6concatEPKcj>
    2622:	81 11       	cpse	r24, r1
    2624:	04 c0       	rjmp	.+8      	; 0x262e <_ZplRK15StringSumHelperPKc+0x30>
    2626:	8d 2f       	mov	r24, r29
    2628:	9c 2f       	mov	r25, r28
    262a:	0e 94 de 0f 	call	0x1fbc	; 0x1fbc <_ZN6String10invalidateEv>
    262e:	8d 2f       	mov	r24, r29
    2630:	9c 2f       	mov	r25, r28
    2632:	df 91       	pop	r29
    2634:	cf 91       	pop	r28
    2636:	08 95       	ret

00002638 <_ZplRK15StringSumHelperc>:
    2638:	cf 93       	push	r28
    263a:	df 93       	push	r29
    263c:	d8 2f       	mov	r29, r24
    263e:	c9 2f       	mov	r28, r25
    2640:	0e 94 e2 11 	call	0x23c4	; 0x23c4 <_ZN6String6concatEc>
    2644:	81 11       	cpse	r24, r1
    2646:	04 c0       	rjmp	.+8      	; 0x2650 <_ZplRK15StringSumHelperc+0x18>
    2648:	8d 2f       	mov	r24, r29
    264a:	9c 2f       	mov	r25, r28
    264c:	0e 94 de 0f 	call	0x1fbc	; 0x1fbc <_ZN6String10invalidateEv>
    2650:	8d 2f       	mov	r24, r29
    2652:	9c 2f       	mov	r25, r28
    2654:	df 91       	pop	r29
    2656:	cf 91       	pop	r28
    2658:	08 95       	ret

0000265a <_ZplRK15StringSumHelperh>:
    265a:	cf 93       	push	r28
    265c:	df 93       	push	r29
    265e:	d8 2f       	mov	r29, r24
    2660:	c9 2f       	mov	r28, r25
    2662:	0e 94 f5 11 	call	0x23ea	; 0x23ea <_ZN6String6concatEh>
    2666:	81 11       	cpse	r24, r1
    2668:	04 c0       	rjmp	.+8      	; 0x2672 <_ZplRK15StringSumHelperh+0x18>
    266a:	8d 2f       	mov	r24, r29
    266c:	9c 2f       	mov	r25, r28
    266e:	0e 94 de 0f 	call	0x1fbc	; 0x1fbc <_ZN6String10invalidateEv>
    2672:	8d 2f       	mov	r24, r29
    2674:	9c 2f       	mov	r25, r28
    2676:	df 91       	pop	r29
    2678:	cf 91       	pop	r28
    267a:	08 95       	ret

0000267c <_ZplRK15StringSumHelperi>:
    267c:	cf 93       	push	r28
    267e:	df 93       	push	r29
    2680:	d8 2f       	mov	r29, r24
    2682:	c9 2f       	mov	r28, r25
    2684:	0e 94 22 12 	call	0x2444	; 0x2444 <_ZN6String6concatEi>
    2688:	81 11       	cpse	r24, r1
    268a:	04 c0       	rjmp	.+8      	; 0x2694 <_ZplRK15StringSumHelperi+0x18>
    268c:	8d 2f       	mov	r24, r29
    268e:	9c 2f       	mov	r25, r28
    2690:	0e 94 de 0f 	call	0x1fbc	; 0x1fbc <_ZN6String10invalidateEv>
    2694:	8d 2f       	mov	r24, r29
    2696:	9c 2f       	mov	r25, r28
    2698:	df 91       	pop	r29
    269a:	cf 91       	pop	r28
    269c:	08 95       	ret

0000269e <_ZplRK15StringSumHelperj>:
    269e:	cf 93       	push	r28
    26a0:	df 93       	push	r29
    26a2:	d8 2f       	mov	r29, r24
    26a4:	c9 2f       	mov	r28, r25
    26a6:	0e 94 54 12 	call	0x24a8	; 0x24a8 <_ZN6String6concatEj>
    26aa:	81 11       	cpse	r24, r1
    26ac:	04 c0       	rjmp	.+8      	; 0x26b6 <_ZplRK15StringSumHelperj+0x18>
    26ae:	8d 2f       	mov	r24, r29
    26b0:	9c 2f       	mov	r25, r28
    26b2:	0e 94 de 0f 	call	0x1fbc	; 0x1fbc <_ZN6String10invalidateEv>
    26b6:	8d 2f       	mov	r24, r29
    26b8:	9c 2f       	mov	r25, r28
    26ba:	df 91       	pop	r29
    26bc:	cf 91       	pop	r28
    26be:	08 95       	ret

000026c0 <_ZplRK15StringSumHelperl>:
    26c0:	cf 93       	push	r28
    26c2:	df 93       	push	r29
    26c4:	d8 2f       	mov	r29, r24
    26c6:	c9 2f       	mov	r28, r25
    26c8:	0e 94 83 12 	call	0x2506	; 0x2506 <_ZN6String6concatEl>
    26cc:	81 11       	cpse	r24, r1
    26ce:	04 c0       	rjmp	.+8      	; 0x26d8 <_ZplRK15StringSumHelperl+0x18>
    26d0:	8d 2f       	mov	r24, r29
    26d2:	9c 2f       	mov	r25, r28
    26d4:	0e 94 de 0f 	call	0x1fbc	; 0x1fbc <_ZN6String10invalidateEv>
    26d8:	8d 2f       	mov	r24, r29
    26da:	9c 2f       	mov	r25, r28
    26dc:	df 91       	pop	r29
    26de:	cf 91       	pop	r28
    26e0:	08 95       	ret

000026e2 <_ZplRK15StringSumHelperm>:
    26e2:	cf 93       	push	r28
    26e4:	df 93       	push	r29
    26e6:	d8 2f       	mov	r29, r24
    26e8:	c9 2f       	mov	r28, r25
    26ea:	0e 94 b6 12 	call	0x256c	; 0x256c <_ZN6String6concatEm>
    26ee:	81 11       	cpse	r24, r1
    26f0:	04 c0       	rjmp	.+8      	; 0x26fa <_ZplRK15StringSumHelperm+0x18>
    26f2:	8d 2f       	mov	r24, r29
    26f4:	9c 2f       	mov	r25, r28
    26f6:	0e 94 de 0f 	call	0x1fbc	; 0x1fbc <_ZN6String10invalidateEv>
    26fa:	8d 2f       	mov	r24, r29
    26fc:	9c 2f       	mov	r25, r28
    26fe:	df 91       	pop	r29
    2700:	cf 91       	pop	r28
    2702:	08 95       	ret

00002704 <_ZNK6String9compareToERKS_>:
    2704:	cf 93       	push	r28
    2706:	df 93       	push	r29
    2708:	dc 01       	movw	r26, r24
    270a:	ed 91       	ld	r30, X+
    270c:	fc 91       	ld	r31, X
    270e:	eb 01       	movw	r28, r22
    2710:	a8 81       	ld	r26, Y
    2712:	b9 81       	ldd	r27, Y+1	; 0x01
    2714:	30 97       	sbiw	r30, 0x00	; 0
    2716:	11 f0       	breq	.+4      	; 0x271c <_ZNK6String9compareToERKS_+0x18>
    2718:	10 97       	sbiw	r26, 0x00	; 0
    271a:	c9 f4       	brne	.+50     	; 0x274e <_ZNK6String9compareToERKS_+0x4a>
    271c:	10 97       	sbiw	r26, 0x00	; 0
    271e:	59 f0       	breq	.+22     	; 0x2736 <_ZNK6String9compareToERKS_+0x32>
    2720:	eb 01       	movw	r28, r22
    2722:	2c 81       	ldd	r18, Y+4	; 0x04
    2724:	3d 81       	ldd	r19, Y+5	; 0x05
    2726:	23 2b       	or	r18, r19
    2728:	31 f0       	breq	.+12     	; 0x2736 <_ZNK6String9compareToERKS_+0x32>
    272a:	2c 91       	ld	r18, X
    272c:	30 e0       	ldi	r19, 0x00	; 0
    272e:	31 95       	neg	r19
    2730:	21 95       	neg	r18
    2732:	31 09       	sbc	r19, r1
    2734:	14 c0       	rjmp	.+40     	; 0x275e <_ZNK6String9compareToERKS_+0x5a>
    2736:	30 97       	sbiw	r30, 0x00	; 0
    2738:	81 f0       	breq	.+32     	; 0x275a <_ZNK6String9compareToERKS_+0x56>
    273a:	dc 01       	movw	r26, r24
    273c:	14 96       	adiw	r26, 0x04	; 4
    273e:	8d 91       	ld	r24, X+
    2740:	9c 91       	ld	r25, X
    2742:	15 97       	sbiw	r26, 0x05	; 5
    2744:	89 2b       	or	r24, r25
    2746:	49 f0       	breq	.+18     	; 0x275a <_ZNK6String9compareToERKS_+0x56>
    2748:	20 81       	ld	r18, Z
    274a:	30 e0       	ldi	r19, 0x00	; 0
    274c:	08 c0       	rjmp	.+16     	; 0x275e <_ZNK6String9compareToERKS_+0x5a>
    274e:	bd 01       	movw	r22, r26
    2750:	cf 01       	movw	r24, r30
    2752:	df 91       	pop	r29
    2754:	cf 91       	pop	r28
    2756:	0c 94 34 34 	jmp	0x6868	; 0x6868 <strcmp>
    275a:	20 e0       	ldi	r18, 0x00	; 0
    275c:	30 e0       	ldi	r19, 0x00	; 0
    275e:	c9 01       	movw	r24, r18
    2760:	df 91       	pop	r29
    2762:	cf 91       	pop	r28
    2764:	08 95       	ret

00002766 <_ZNK6String6equalsERKS_>:
    2766:	fc 01       	movw	r30, r24
    2768:	44 81       	ldd	r20, Z+4	; 0x04
    276a:	55 81       	ldd	r21, Z+5	; 0x05
    276c:	fb 01       	movw	r30, r22
    276e:	24 81       	ldd	r18, Z+4	; 0x04
    2770:	35 81       	ldd	r19, Z+5	; 0x05
    2772:	42 17       	cp	r20, r18
    2774:	53 07       	cpc	r21, r19
    2776:	29 f4       	brne	.+10     	; 0x2782 <_ZNK6String6equalsERKS_+0x1c>
    2778:	0e 94 82 13 	call	0x2704	; 0x2704 <_ZNK6String9compareToERKS_>
    277c:	21 e0       	ldi	r18, 0x01	; 1
    277e:	89 2b       	or	r24, r25
    2780:	09 f0       	breq	.+2      	; 0x2784 <_ZNK6String6equalsERKS_+0x1e>
    2782:	20 e0       	ldi	r18, 0x00	; 0
    2784:	82 2f       	mov	r24, r18
    2786:	08 95       	ret

00002788 <_ZNK6String6equalsEPKc>:
    2788:	dc 01       	movw	r26, r24
    278a:	14 96       	adiw	r26, 0x04	; 4
    278c:	2d 91       	ld	r18, X+
    278e:	3c 91       	ld	r19, X
    2790:	15 97       	sbiw	r26, 0x05	; 5
    2792:	23 2b       	or	r18, r19
    2794:	39 f4       	brne	.+14     	; 0x27a4 <_ZNK6String6equalsEPKc+0x1c>
    2796:	81 e0       	ldi	r24, 0x01	; 1
    2798:	61 15       	cp	r22, r1
    279a:	71 05       	cpc	r23, r1
    279c:	11 f0       	breq	.+4      	; 0x27a2 <_ZNK6String6equalsEPKc+0x1a>
    279e:	fb 01       	movw	r30, r22
    27a0:	08 c0       	rjmp	.+16     	; 0x27b2 <_ZNK6String6equalsEPKc+0x2a>
    27a2:	08 95       	ret
    27a4:	dc 01       	movw	r26, r24
    27a6:	ed 91       	ld	r30, X+
    27a8:	fc 91       	ld	r31, X
    27aa:	61 15       	cp	r22, r1
    27ac:	71 05       	cpc	r23, r1
    27ae:	29 f4       	brne	.+10     	; 0x27ba <_ZNK6String6equalsEPKc+0x32>
    27b0:	81 e0       	ldi	r24, 0x01	; 1
    27b2:	90 81       	ld	r25, Z
    27b4:	99 23       	and	r25, r25
    27b6:	49 f0       	breq	.+18     	; 0x27ca <_ZNK6String6equalsEPKc+0x42>
    27b8:	07 c0       	rjmp	.+14     	; 0x27c8 <_ZNK6String6equalsEPKc+0x40>
    27ba:	cf 01       	movw	r24, r30
    27bc:	0e 94 34 34 	call	0x6868	; 0x6868 <strcmp>
    27c0:	9c 01       	movw	r18, r24
    27c2:	81 e0       	ldi	r24, 0x01	; 1
    27c4:	23 2b       	or	r18, r19
    27c6:	09 f0       	breq	.+2      	; 0x27ca <_ZNK6String6equalsEPKc+0x42>
    27c8:	80 e0       	ldi	r24, 0x00	; 0
    27ca:	08 95       	ret

000027cc <_ZNK6StringltERKS_>:
    27cc:	0e 94 82 13 	call	0x2704	; 0x2704 <_ZNK6String9compareToERKS_>
    27d0:	89 2f       	mov	r24, r25
    27d2:	88 1f       	adc	r24, r24
    27d4:	88 27       	eor	r24, r24
    27d6:	88 1f       	adc	r24, r24
    27d8:	08 95       	ret

000027da <_ZNK6StringgtERKS_>:
    27da:	0e 94 82 13 	call	0x2704	; 0x2704 <_ZNK6String9compareToERKS_>
    27de:	21 e0       	ldi	r18, 0x01	; 1
    27e0:	18 16       	cp	r1, r24
    27e2:	19 06       	cpc	r1, r25
    27e4:	0c f0       	brlt	.+2      	; 0x27e8 <_ZNK6StringgtERKS_+0xe>
    27e6:	20 e0       	ldi	r18, 0x00	; 0
    27e8:	82 2f       	mov	r24, r18
    27ea:	08 95       	ret

000027ec <_ZNK6StringleERKS_>:
    27ec:	0e 94 82 13 	call	0x2704	; 0x2704 <_ZNK6String9compareToERKS_>
    27f0:	21 e0       	ldi	r18, 0x01	; 1
    27f2:	18 16       	cp	r1, r24
    27f4:	19 06       	cpc	r1, r25
    27f6:	0c f4       	brge	.+2      	; 0x27fa <_ZNK6StringleERKS_+0xe>
    27f8:	20 e0       	ldi	r18, 0x00	; 0
    27fa:	82 2f       	mov	r24, r18
    27fc:	08 95       	ret

000027fe <_ZNK6StringgeERKS_>:
    27fe:	0e 94 82 13 	call	0x2704	; 0x2704 <_ZNK6String9compareToERKS_>
    2802:	89 2f       	mov	r24, r25
    2804:	80 95       	com	r24
    2806:	88 1f       	adc	r24, r24
    2808:	88 27       	eor	r24, r24
    280a:	88 1f       	adc	r24, r24
    280c:	08 95       	ret

0000280e <_ZNK6String16equalsIgnoreCaseERKS_>:
    280e:	ef 92       	push	r14
    2810:	ff 92       	push	r15
    2812:	0f 93       	push	r16
    2814:	1f 93       	push	r17
    2816:	cf 93       	push	r28
    2818:	df 93       	push	r29
    281a:	86 17       	cp	r24, r22
    281c:	97 07       	cpc	r25, r23
    281e:	09 f1       	breq	.+66     	; 0x2862 <_ZNK6String16equalsIgnoreCaseERKS_+0x54>
    2820:	fc 01       	movw	r30, r24
    2822:	24 81       	ldd	r18, Z+4	; 0x04
    2824:	35 81       	ldd	r19, Z+5	; 0x05
    2826:	fb 01       	movw	r30, r22
    2828:	44 81       	ldd	r20, Z+4	; 0x04
    282a:	55 81       	ldd	r21, Z+5	; 0x05
    282c:	24 17       	cp	r18, r20
    282e:	35 07       	cpc	r19, r21
    2830:	d1 f4       	brne	.+52     	; 0x2866 <_ZNK6String16equalsIgnoreCaseERKS_+0x58>
    2832:	23 2b       	or	r18, r19
    2834:	b1 f0       	breq	.+44     	; 0x2862 <_ZNK6String16equalsIgnoreCaseERKS_+0x54>
    2836:	c0 81       	ld	r28, Z
    2838:	d1 81       	ldd	r29, Z+1	; 0x01
    283a:	fc 01       	movw	r30, r24
    283c:	00 81       	ld	r16, Z
    283e:	11 81       	ldd	r17, Z+1	; 0x01
    2840:	0b c0       	rjmp	.+22     	; 0x2858 <_ZNK6String16equalsIgnoreCaseERKS_+0x4a>
    2842:	90 e0       	ldi	r25, 0x00	; 0
    2844:	0e 94 f1 33 	call	0x67e2	; 0x67e2 <tolower>
    2848:	7c 01       	movw	r14, r24
    284a:	89 91       	ld	r24, Y+
    284c:	90 e0       	ldi	r25, 0x00	; 0
    284e:	0e 94 f1 33 	call	0x67e2	; 0x67e2 <tolower>
    2852:	e8 16       	cp	r14, r24
    2854:	f9 06       	cpc	r15, r25
    2856:	39 f4       	brne	.+14     	; 0x2866 <_ZNK6String16equalsIgnoreCaseERKS_+0x58>
    2858:	f8 01       	movw	r30, r16
    285a:	81 91       	ld	r24, Z+
    285c:	8f 01       	movw	r16, r30
    285e:	81 11       	cpse	r24, r1
    2860:	f0 cf       	rjmp	.-32     	; 0x2842 <_ZNK6String16equalsIgnoreCaseERKS_+0x34>
    2862:	81 e0       	ldi	r24, 0x01	; 1
    2864:	01 c0       	rjmp	.+2      	; 0x2868 <_ZNK6String16equalsIgnoreCaseERKS_+0x5a>
    2866:	80 e0       	ldi	r24, 0x00	; 0
    2868:	df 91       	pop	r29
    286a:	cf 91       	pop	r28
    286c:	1f 91       	pop	r17
    286e:	0f 91       	pop	r16
    2870:	ff 90       	pop	r15
    2872:	ef 90       	pop	r14
    2874:	08 95       	ret

00002876 <_ZNK6String10startsWithERKS_j>:
    2876:	fa 01       	movw	r30, r20
    2878:	db 01       	movw	r26, r22
    287a:	14 96       	adiw	r26, 0x04	; 4
    287c:	4d 91       	ld	r20, X+
    287e:	5c 91       	ld	r21, X
    2880:	15 97       	sbiw	r26, 0x05	; 5
    2882:	dc 01       	movw	r26, r24
    2884:	14 96       	adiw	r26, 0x04	; 4
    2886:	2d 91       	ld	r18, X+
    2888:	3c 91       	ld	r19, X
    288a:	15 97       	sbiw	r26, 0x05	; 5
    288c:	24 1b       	sub	r18, r20
    288e:	35 0b       	sbc	r19, r21
    2890:	2e 17       	cp	r18, r30
    2892:	3f 07       	cpc	r19, r31
    2894:	90 f0       	brcs	.+36     	; 0x28ba <_ZNK6String10startsWithERKS_j+0x44>
    2896:	8d 91       	ld	r24, X+
    2898:	9c 91       	ld	r25, X
    289a:	00 97       	sbiw	r24, 0x00	; 0
    289c:	71 f0       	breq	.+28     	; 0x28ba <_ZNK6String10startsWithERKS_j+0x44>
    289e:	db 01       	movw	r26, r22
    28a0:	6d 91       	ld	r22, X+
    28a2:	7c 91       	ld	r23, X
    28a4:	61 15       	cp	r22, r1
    28a6:	71 05       	cpc	r23, r1
    28a8:	41 f0       	breq	.+16     	; 0x28ba <_ZNK6String10startsWithERKS_j+0x44>
    28aa:	8e 0f       	add	r24, r30
    28ac:	9f 1f       	adc	r25, r31
    28ae:	0e 94 44 34 	call	0x6888	; 0x6888 <strncmp>
    28b2:	9c 01       	movw	r18, r24
    28b4:	81 e0       	ldi	r24, 0x01	; 1
    28b6:	23 2b       	or	r18, r19
    28b8:	09 f0       	breq	.+2      	; 0x28bc <_ZNK6String10startsWithERKS_j+0x46>
    28ba:	80 e0       	ldi	r24, 0x00	; 0
    28bc:	08 95       	ret

000028be <_ZNK6String10startsWithERKS_>:
    28be:	fc 01       	movw	r30, r24
    28c0:	44 81       	ldd	r20, Z+4	; 0x04
    28c2:	55 81       	ldd	r21, Z+5	; 0x05
    28c4:	fb 01       	movw	r30, r22
    28c6:	24 81       	ldd	r18, Z+4	; 0x04
    28c8:	35 81       	ldd	r19, Z+5	; 0x05
    28ca:	42 17       	cp	r20, r18
    28cc:	53 07       	cpc	r21, r19
    28ce:	20 f0       	brcs	.+8      	; 0x28d8 <_ZNK6String10startsWithERKS_+0x1a>
    28d0:	40 e0       	ldi	r20, 0x00	; 0
    28d2:	50 e0       	ldi	r21, 0x00	; 0
    28d4:	0c 94 3b 14 	jmp	0x2876	; 0x2876 <_ZNK6String10startsWithERKS_j>
    28d8:	80 e0       	ldi	r24, 0x00	; 0
    28da:	08 95       	ret

000028dc <_ZNK6String8endsWithERKS_>:
    28dc:	fc 01       	movw	r30, r24
    28de:	84 81       	ldd	r24, Z+4	; 0x04
    28e0:	95 81       	ldd	r25, Z+5	; 0x05
    28e2:	db 01       	movw	r26, r22
    28e4:	14 96       	adiw	r26, 0x04	; 4
    28e6:	4d 91       	ld	r20, X+
    28e8:	5c 91       	ld	r21, X
    28ea:	15 97       	sbiw	r26, 0x05	; 5
    28ec:	84 17       	cp	r24, r20
    28ee:	95 07       	cpc	r25, r21
    28f0:	a0 f0       	brcs	.+40     	; 0x291a <_ZNK6String8endsWithERKS_+0x3e>
    28f2:	20 81       	ld	r18, Z
    28f4:	31 81       	ldd	r19, Z+1	; 0x01
    28f6:	21 15       	cp	r18, r1
    28f8:	31 05       	cpc	r19, r1
    28fa:	79 f0       	breq	.+30     	; 0x291a <_ZNK6String8endsWithERKS_+0x3e>
    28fc:	6d 91       	ld	r22, X+
    28fe:	7c 91       	ld	r23, X
    2900:	61 15       	cp	r22, r1
    2902:	71 05       	cpc	r23, r1
    2904:	51 f0       	breq	.+20     	; 0x291a <_ZNK6String8endsWithERKS_+0x3e>
    2906:	84 1b       	sub	r24, r20
    2908:	95 0b       	sbc	r25, r21
    290a:	82 0f       	add	r24, r18
    290c:	93 1f       	adc	r25, r19
    290e:	0e 94 34 34 	call	0x6868	; 0x6868 <strcmp>
    2912:	9c 01       	movw	r18, r24
    2914:	81 e0       	ldi	r24, 0x01	; 1
    2916:	23 2b       	or	r18, r19
    2918:	09 f0       	breq	.+2      	; 0x291c <_ZNK6String8endsWithERKS_+0x40>
    291a:	80 e0       	ldi	r24, 0x00	; 0
    291c:	08 95       	ret

0000291e <_ZN6String9setCharAtEjc>:
    291e:	dc 01       	movw	r26, r24
    2920:	14 96       	adiw	r26, 0x04	; 4
    2922:	2d 91       	ld	r18, X+
    2924:	3c 91       	ld	r19, X
    2926:	15 97       	sbiw	r26, 0x05	; 5
    2928:	62 17       	cp	r22, r18
    292a:	73 07       	cpc	r23, r19
    292c:	28 f4       	brcc	.+10     	; 0x2938 <_ZN6String9setCharAtEjc+0x1a>
    292e:	ed 91       	ld	r30, X+
    2930:	fc 91       	ld	r31, X
    2932:	e6 0f       	add	r30, r22
    2934:	f7 1f       	adc	r31, r23
    2936:	40 83       	st	Z, r20
    2938:	08 95       	ret

0000293a <_ZN6StringixEj>:
    293a:	fc 01       	movw	r30, r24
    293c:	24 81       	ldd	r18, Z+4	; 0x04
    293e:	35 81       	ldd	r19, Z+5	; 0x05
    2940:	62 17       	cp	r22, r18
    2942:	73 07       	cpc	r23, r19
    2944:	20 f4       	brcc	.+8      	; 0x294e <_ZN6StringixEj+0x14>
    2946:	80 81       	ld	r24, Z
    2948:	91 81       	ldd	r25, Z+1	; 0x01
    294a:	00 97       	sbiw	r24, 0x00	; 0
    294c:	29 f4       	brne	.+10     	; 0x2958 <_ZN6StringixEj+0x1e>
    294e:	10 92 cd 04 	sts	0x04CD, r1
    2952:	6d ec       	ldi	r22, 0xCD	; 205
    2954:	74 e0       	ldi	r23, 0x04	; 4
    2956:	02 c0       	rjmp	.+4      	; 0x295c <_ZN6StringixEj+0x22>
    2958:	68 0f       	add	r22, r24
    295a:	79 1f       	adc	r23, r25
    295c:	cb 01       	movw	r24, r22
    295e:	08 95       	ret

00002960 <_ZNK6StringixEj>:
    2960:	fc 01       	movw	r30, r24
    2962:	24 81       	ldd	r18, Z+4	; 0x04
    2964:	35 81       	ldd	r19, Z+5	; 0x05
    2966:	62 17       	cp	r22, r18
    2968:	73 07       	cpc	r23, r19
    296a:	48 f4       	brcc	.+18     	; 0x297e <_ZNK6StringixEj+0x1e>
    296c:	80 81       	ld	r24, Z
    296e:	91 81       	ldd	r25, Z+1	; 0x01
    2970:	00 97       	sbiw	r24, 0x00	; 0
    2972:	29 f0       	breq	.+10     	; 0x297e <_ZNK6StringixEj+0x1e>
    2974:	fc 01       	movw	r30, r24
    2976:	e6 0f       	add	r30, r22
    2978:	f7 1f       	adc	r31, r23
    297a:	80 81       	ld	r24, Z
    297c:	08 95       	ret
    297e:	80 e0       	ldi	r24, 0x00	; 0
    2980:	08 95       	ret

00002982 <_ZNK6String6charAtEj>:
    2982:	0c 94 b0 14 	jmp	0x2960	; 0x2960 <_ZNK6StringixEj>

00002986 <_ZNK6String8getBytesEPhjj>:
    2986:	0f 93       	push	r16
    2988:	1f 93       	push	r17
    298a:	cf 93       	push	r28
    298c:	df 93       	push	r29
    298e:	eb 01       	movw	r28, r22
    2990:	41 15       	cp	r20, r1
    2992:	51 05       	cpc	r21, r1
    2994:	e9 f0       	breq	.+58     	; 0x29d0 <_ZNK6String8getBytesEPhjj+0x4a>
    2996:	20 97       	sbiw	r28, 0x00	; 0
    2998:	d9 f0       	breq	.+54     	; 0x29d0 <_ZNK6String8getBytesEPhjj+0x4a>
    299a:	fc 01       	movw	r30, r24
    299c:	04 81       	ldd	r16, Z+4	; 0x04
    299e:	15 81       	ldd	r17, Z+5	; 0x05
    29a0:	20 17       	cp	r18, r16
    29a2:	31 07       	cpc	r19, r17
    29a4:	08 f0       	brcs	.+2      	; 0x29a8 <_ZNK6String8getBytesEPhjj+0x22>
    29a6:	13 c0       	rjmp	.+38     	; 0x29ce <_ZNK6String8getBytesEPhjj+0x48>
    29a8:	41 50       	subi	r20, 0x01	; 1
    29aa:	51 09       	sbc	r21, r1
    29ac:	02 1b       	sub	r16, r18
    29ae:	13 0b       	sbc	r17, r19
    29b0:	40 17       	cp	r20, r16
    29b2:	51 07       	cpc	r21, r17
    29b4:	08 f4       	brcc	.+2      	; 0x29b8 <_ZNK6String8getBytesEPhjj+0x32>
    29b6:	8a 01       	movw	r16, r20
    29b8:	fc 01       	movw	r30, r24
    29ba:	60 81       	ld	r22, Z
    29bc:	71 81       	ldd	r23, Z+1	; 0x01
    29be:	62 0f       	add	r22, r18
    29c0:	73 1f       	adc	r23, r19
    29c2:	a8 01       	movw	r20, r16
    29c4:	ce 01       	movw	r24, r28
    29c6:	0e 94 52 34 	call	0x68a4	; 0x68a4 <strncpy>
    29ca:	c0 0f       	add	r28, r16
    29cc:	d1 1f       	adc	r29, r17
    29ce:	18 82       	st	Y, r1
    29d0:	df 91       	pop	r29
    29d2:	cf 91       	pop	r28
    29d4:	1f 91       	pop	r17
    29d6:	0f 91       	pop	r16
    29d8:	08 95       	ret

000029da <_ZNK6String7indexOfEcj>:
    29da:	cf 93       	push	r28
    29dc:	df 93       	push	r29
    29de:	fc 01       	movw	r30, r24
    29e0:	84 81       	ldd	r24, Z+4	; 0x04
    29e2:	95 81       	ldd	r25, Z+5	; 0x05
    29e4:	48 17       	cp	r20, r24
    29e6:	59 07       	cpc	r21, r25
    29e8:	70 f4       	brcc	.+28     	; 0x2a06 <_ZNK6String7indexOfEcj+0x2c>
    29ea:	c0 81       	ld	r28, Z
    29ec:	d1 81       	ldd	r29, Z+1	; 0x01
    29ee:	70 e0       	ldi	r23, 0x00	; 0
    29f0:	ce 01       	movw	r24, r28
    29f2:	84 0f       	add	r24, r20
    29f4:	95 1f       	adc	r25, r21
    29f6:	0e 94 29 34 	call	0x6852	; 0x6852 <strchr>
    29fa:	00 97       	sbiw	r24, 0x00	; 0
    29fc:	21 f0       	breq	.+8      	; 0x2a06 <_ZNK6String7indexOfEcj+0x2c>
    29fe:	9c 01       	movw	r18, r24
    2a00:	2c 1b       	sub	r18, r28
    2a02:	3d 0b       	sbc	r19, r29
    2a04:	02 c0       	rjmp	.+4      	; 0x2a0a <_ZNK6String7indexOfEcj+0x30>
    2a06:	2f ef       	ldi	r18, 0xFF	; 255
    2a08:	3f ef       	ldi	r19, 0xFF	; 255
    2a0a:	c9 01       	movw	r24, r18
    2a0c:	df 91       	pop	r29
    2a0e:	cf 91       	pop	r28
    2a10:	08 95       	ret

00002a12 <_ZNK6String7indexOfEc>:
    2a12:	40 e0       	ldi	r20, 0x00	; 0
    2a14:	50 e0       	ldi	r21, 0x00	; 0
    2a16:	0c 94 ed 14 	jmp	0x29da	; 0x29da <_ZNK6String7indexOfEcj>

00002a1a <_ZNK6String7indexOfERKS_j>:
    2a1a:	cf 93       	push	r28
    2a1c:	df 93       	push	r29
    2a1e:	fc 01       	movw	r30, r24
    2a20:	84 81       	ldd	r24, Z+4	; 0x04
    2a22:	95 81       	ldd	r25, Z+5	; 0x05
    2a24:	48 17       	cp	r20, r24
    2a26:	59 07       	cpc	r21, r25
    2a28:	80 f4       	brcc	.+32     	; 0x2a4a <_ZNK6String7indexOfERKS_j+0x30>
    2a2a:	c0 81       	ld	r28, Z
    2a2c:	d1 81       	ldd	r29, Z+1	; 0x01
    2a2e:	fb 01       	movw	r30, r22
    2a30:	60 81       	ld	r22, Z
    2a32:	71 81       	ldd	r23, Z+1	; 0x01
    2a34:	ce 01       	movw	r24, r28
    2a36:	84 0f       	add	r24, r20
    2a38:	95 1f       	adc	r25, r21
    2a3a:	0e 94 6c 34 	call	0x68d8	; 0x68d8 <strstr>
    2a3e:	00 97       	sbiw	r24, 0x00	; 0
    2a40:	21 f0       	breq	.+8      	; 0x2a4a <_ZNK6String7indexOfERKS_j+0x30>
    2a42:	9c 01       	movw	r18, r24
    2a44:	2c 1b       	sub	r18, r28
    2a46:	3d 0b       	sbc	r19, r29
    2a48:	02 c0       	rjmp	.+4      	; 0x2a4e <_ZNK6String7indexOfERKS_j+0x34>
    2a4a:	2f ef       	ldi	r18, 0xFF	; 255
    2a4c:	3f ef       	ldi	r19, 0xFF	; 255
    2a4e:	c9 01       	movw	r24, r18
    2a50:	df 91       	pop	r29
    2a52:	cf 91       	pop	r28
    2a54:	08 95       	ret

00002a56 <_ZNK6String7indexOfERKS_>:
    2a56:	40 e0       	ldi	r20, 0x00	; 0
    2a58:	50 e0       	ldi	r21, 0x00	; 0
    2a5a:	0c 94 0d 15 	jmp	0x2a1a	; 0x2a1a <_ZNK6String7indexOfERKS_j>

00002a5e <_ZNK6String11lastIndexOfEcj>:
    2a5e:	df 92       	push	r13
    2a60:	ef 92       	push	r14
    2a62:	ff 92       	push	r15
    2a64:	0f 93       	push	r16
    2a66:	1f 93       	push	r17
    2a68:	cf 93       	push	r28
    2a6a:	df 93       	push	r29
    2a6c:	ec 01       	movw	r28, r24
    2a6e:	8c 81       	ldd	r24, Y+4	; 0x04
    2a70:	9d 81       	ldd	r25, Y+5	; 0x05
    2a72:	48 17       	cp	r20, r24
    2a74:	59 07       	cpc	r21, r25
    2a76:	18 f0       	brcs	.+6      	; 0x2a7e <_ZNK6String11lastIndexOfEcj+0x20>
    2a78:	2f ef       	ldi	r18, 0xFF	; 255
    2a7a:	3f ef       	ldi	r19, 0xFF	; 255
    2a7c:	1b c0       	rjmp	.+54     	; 0x2ab4 <_ZNK6String11lastIndexOfEcj+0x56>
    2a7e:	8a 01       	movw	r16, r20
    2a80:	0f 5f       	subi	r16, 0xFF	; 255
    2a82:	1f 4f       	sbci	r17, 0xFF	; 255
    2a84:	e8 81       	ld	r30, Y
    2a86:	f9 81       	ldd	r31, Y+1	; 0x01
    2a88:	e0 0f       	add	r30, r16
    2a8a:	f1 1f       	adc	r31, r17
    2a8c:	d0 80       	ld	r13, Z
    2a8e:	10 82       	st	Z, r1
    2a90:	e8 80       	ld	r14, Y
    2a92:	f9 80       	ldd	r15, Y+1	; 0x01
    2a94:	70 e0       	ldi	r23, 0x00	; 0
    2a96:	c7 01       	movw	r24, r14
    2a98:	0e 94 61 34 	call	0x68c2	; 0x68c2 <strrchr>
    2a9c:	f7 01       	movw	r30, r14
    2a9e:	e0 0f       	add	r30, r16
    2aa0:	f1 1f       	adc	r31, r17
    2aa2:	d0 82       	st	Z, r13
    2aa4:	00 97       	sbiw	r24, 0x00	; 0
    2aa6:	41 f3       	breq	.-48     	; 0x2a78 <_ZNK6String11lastIndexOfEcj+0x1a>
    2aa8:	28 81       	ld	r18, Y
    2aaa:	39 81       	ldd	r19, Y+1	; 0x01
    2aac:	ac 01       	movw	r20, r24
    2aae:	42 1b       	sub	r20, r18
    2ab0:	53 0b       	sbc	r21, r19
    2ab2:	9a 01       	movw	r18, r20
    2ab4:	c9 01       	movw	r24, r18
    2ab6:	df 91       	pop	r29
    2ab8:	cf 91       	pop	r28
    2aba:	1f 91       	pop	r17
    2abc:	0f 91       	pop	r16
    2abe:	ff 90       	pop	r15
    2ac0:	ef 90       	pop	r14
    2ac2:	df 90       	pop	r13
    2ac4:	08 95       	ret

00002ac6 <_ZNK6String11lastIndexOfEc>:
    2ac6:	fc 01       	movw	r30, r24
    2ac8:	44 81       	ldd	r20, Z+4	; 0x04
    2aca:	55 81       	ldd	r21, Z+5	; 0x05
    2acc:	41 50       	subi	r20, 0x01	; 1
    2ace:	51 09       	sbc	r21, r1
    2ad0:	0c 94 2f 15 	jmp	0x2a5e	; 0x2a5e <_ZNK6String11lastIndexOfEcj>

00002ad4 <_ZNK6String11lastIndexOfERKS_j>:
    2ad4:	af 92       	push	r10
    2ad6:	bf 92       	push	r11
    2ad8:	cf 92       	push	r12
    2ada:	df 92       	push	r13
    2adc:	ef 92       	push	r14
    2ade:	ff 92       	push	r15
    2ae0:	0f 93       	push	r16
    2ae2:	1f 93       	push	r17
    2ae4:	cf 93       	push	r28
    2ae6:	df 93       	push	r29
    2ae8:	6b 01       	movw	r12, r22
    2aea:	8a 01       	movw	r16, r20
    2aec:	fb 01       	movw	r30, r22
    2aee:	44 81       	ldd	r20, Z+4	; 0x04
    2af0:	55 81       	ldd	r21, Z+5	; 0x05
    2af2:	41 15       	cp	r20, r1
    2af4:	51 05       	cpc	r21, r1
    2af6:	69 f1       	breq	.+90     	; 0x2b52 <_ZNK6String11lastIndexOfERKS_j+0x7e>
    2af8:	fc 01       	movw	r30, r24
    2afa:	24 81       	ldd	r18, Z+4	; 0x04
    2afc:	35 81       	ldd	r19, Z+5	; 0x05
    2afe:	21 15       	cp	r18, r1
    2b00:	31 05       	cpc	r19, r1
    2b02:	39 f1       	breq	.+78     	; 0x2b52 <_ZNK6String11lastIndexOfERKS_j+0x7e>
    2b04:	24 17       	cp	r18, r20
    2b06:	35 07       	cpc	r19, r21
    2b08:	20 f1       	brcs	.+72     	; 0x2b52 <_ZNK6String11lastIndexOfERKS_j+0x7e>
    2b0a:	02 17       	cp	r16, r18
    2b0c:	13 07       	cpc	r17, r19
    2b0e:	18 f0       	brcs	.+6      	; 0x2b16 <_ZNK6String11lastIndexOfERKS_j+0x42>
    2b10:	89 01       	movw	r16, r18
    2b12:	01 50       	subi	r16, 0x01	; 1
    2b14:	11 09       	sbc	r17, r1
    2b16:	fc 01       	movw	r30, r24
    2b18:	e0 80       	ld	r14, Z
    2b1a:	f1 80       	ldd	r15, Z+1	; 0x01
    2b1c:	c7 01       	movw	r24, r14
    2b1e:	cf ef       	ldi	r28, 0xFF	; 255
    2b20:	df ef       	ldi	r29, 0xFF	; 255
    2b22:	57 01       	movw	r10, r14
    2b24:	a0 0e       	add	r10, r16
    2b26:	b1 1e       	adc	r11, r17
    2b28:	10 c0       	rjmp	.+32     	; 0x2b4a <_ZNK6String11lastIndexOfERKS_j+0x76>
    2b2a:	f6 01       	movw	r30, r12
    2b2c:	60 81       	ld	r22, Z
    2b2e:	71 81       	ldd	r23, Z+1	; 0x01
    2b30:	0e 94 6c 34 	call	0x68d8	; 0x68d8 <strstr>
    2b34:	00 97       	sbiw	r24, 0x00	; 0
    2b36:	79 f0       	breq	.+30     	; 0x2b56 <_ZNK6String11lastIndexOfERKS_j+0x82>
    2b38:	9c 01       	movw	r18, r24
    2b3a:	2e 19       	sub	r18, r14
    2b3c:	3f 09       	sbc	r19, r15
    2b3e:	02 17       	cp	r16, r18
    2b40:	13 07       	cpc	r17, r19
    2b42:	08 f4       	brcc	.+2      	; 0x2b46 <_ZNK6String11lastIndexOfERKS_j+0x72>
    2b44:	9e 01       	movw	r18, r28
    2b46:	01 96       	adiw	r24, 0x01	; 1
    2b48:	e9 01       	movw	r28, r18
    2b4a:	a8 16       	cp	r10, r24
    2b4c:	b9 06       	cpc	r11, r25
    2b4e:	68 f7       	brcc	.-38     	; 0x2b2a <_ZNK6String11lastIndexOfERKS_j+0x56>
    2b50:	02 c0       	rjmp	.+4      	; 0x2b56 <_ZNK6String11lastIndexOfERKS_j+0x82>
    2b52:	cf ef       	ldi	r28, 0xFF	; 255
    2b54:	df ef       	ldi	r29, 0xFF	; 255
    2b56:	ce 01       	movw	r24, r28
    2b58:	df 91       	pop	r29
    2b5a:	cf 91       	pop	r28
    2b5c:	1f 91       	pop	r17
    2b5e:	0f 91       	pop	r16
    2b60:	ff 90       	pop	r15
    2b62:	ef 90       	pop	r14
    2b64:	df 90       	pop	r13
    2b66:	cf 90       	pop	r12
    2b68:	bf 90       	pop	r11
    2b6a:	af 90       	pop	r10
    2b6c:	08 95       	ret

00002b6e <_ZNK6String11lastIndexOfERKS_>:
    2b6e:	fc 01       	movw	r30, r24
    2b70:	44 81       	ldd	r20, Z+4	; 0x04
    2b72:	55 81       	ldd	r21, Z+5	; 0x05
    2b74:	fb 01       	movw	r30, r22
    2b76:	24 81       	ldd	r18, Z+4	; 0x04
    2b78:	35 81       	ldd	r19, Z+5	; 0x05
    2b7a:	42 1b       	sub	r20, r18
    2b7c:	53 0b       	sbc	r21, r19
    2b7e:	0c 94 6a 15 	jmp	0x2ad4	; 0x2ad4 <_ZNK6String11lastIndexOfERKS_j>

00002b82 <_ZNK6String9substringEjj>:
    2b82:	bf 92       	push	r11
    2b84:	cf 92       	push	r12
    2b86:	df 92       	push	r13
    2b88:	ef 92       	push	r14
    2b8a:	ff 92       	push	r15
    2b8c:	0f 93       	push	r16
    2b8e:	1f 93       	push	r17
    2b90:	cf 93       	push	r28
    2b92:	df 93       	push	r29
    2b94:	6c 01       	movw	r12, r24
    2b96:	7b 01       	movw	r14, r22
    2b98:	ea 01       	movw	r28, r20
    2b9a:	89 01       	movw	r16, r18
    2b9c:	24 17       	cp	r18, r20
    2b9e:	35 07       	cpc	r19, r21
    2ba0:	20 f4       	brcc	.+8      	; 0x2baa <_ZNK6String9substringEjj+0x28>
    2ba2:	8d 2f       	mov	r24, r29
    2ba4:	e9 01       	movw	r28, r18
    2ba6:	04 2f       	mov	r16, r20
    2ba8:	18 2f       	mov	r17, r24
    2baa:	63 e3       	ldi	r22, 0x33	; 51
    2bac:	71 e0       	ldi	r23, 0x01	; 1
    2bae:	c6 01       	movw	r24, r12
    2bb0:	0e 94 4a 10 	call	0x2094	; 0x2094 <_ZN6StringC1EPKc>
    2bb4:	d7 01       	movw	r26, r14
    2bb6:	14 96       	adiw	r26, 0x04	; 4
    2bb8:	8d 91       	ld	r24, X+
    2bba:	9c 91       	ld	r25, X
    2bbc:	15 97       	sbiw	r26, 0x05	; 5
    2bbe:	8c 17       	cp	r24, r28
    2bc0:	9d 07       	cpc	r25, r29
    2bc2:	c8 f0       	brcs	.+50     	; 0x2bf6 <_ZNK6String9substringEjj+0x74>
    2bc4:	80 17       	cp	r24, r16
    2bc6:	91 07       	cpc	r25, r17
    2bc8:	08 f4       	brcc	.+2      	; 0x2bcc <_ZNK6String9substringEjj+0x4a>
    2bca:	8c 01       	movw	r16, r24
    2bcc:	d7 01       	movw	r26, r14
    2bce:	ed 91       	ld	r30, X+
    2bd0:	fc 91       	ld	r31, X
    2bd2:	11 97       	sbiw	r26, 0x01	; 1
    2bd4:	e0 0f       	add	r30, r16
    2bd6:	f1 1f       	adc	r31, r17
    2bd8:	b0 80       	ld	r11, Z
    2bda:	10 82       	st	Z, r1
    2bdc:	6d 91       	ld	r22, X+
    2bde:	7c 91       	ld	r23, X
    2be0:	6c 0f       	add	r22, r28
    2be2:	7d 1f       	adc	r23, r29
    2be4:	c6 01       	movw	r24, r12
    2be6:	0e 94 88 10 	call	0x2110	; 0x2110 <_ZN6StringaSEPKc>
    2bea:	d7 01       	movw	r26, r14
    2bec:	ed 91       	ld	r30, X+
    2bee:	fc 91       	ld	r31, X
    2bf0:	e0 0f       	add	r30, r16
    2bf2:	f1 1f       	adc	r31, r17
    2bf4:	b0 82       	st	Z, r11
    2bf6:	c6 01       	movw	r24, r12
    2bf8:	df 91       	pop	r29
    2bfa:	cf 91       	pop	r28
    2bfc:	1f 91       	pop	r17
    2bfe:	0f 91       	pop	r16
    2c00:	ff 90       	pop	r15
    2c02:	ef 90       	pop	r14
    2c04:	df 90       	pop	r13
    2c06:	cf 90       	pop	r12
    2c08:	bf 90       	pop	r11
    2c0a:	08 95       	ret

00002c0c <_ZNK6String9substringEj>:
    2c0c:	cf 93       	push	r28
    2c0e:	df 93       	push	r29
    2c10:	ec 01       	movw	r28, r24
    2c12:	fb 01       	movw	r30, r22
    2c14:	24 81       	ldd	r18, Z+4	; 0x04
    2c16:	35 81       	ldd	r19, Z+5	; 0x05
    2c18:	0e 94 c1 15 	call	0x2b82	; 0x2b82 <_ZNK6String9substringEjj>
    2c1c:	ce 01       	movw	r24, r28
    2c1e:	df 91       	pop	r29
    2c20:	cf 91       	pop	r28
    2c22:	08 95       	ret

00002c24 <_ZN6String7replaceEcc>:
    2c24:	dc 01       	movw	r26, r24
    2c26:	ed 91       	ld	r30, X+
    2c28:	fc 91       	ld	r31, X
    2c2a:	30 97       	sbiw	r30, 0x00	; 0
    2c2c:	29 f4       	brne	.+10     	; 0x2c38 <_ZN6String7replaceEcc+0x14>
    2c2e:	08 95       	ret
    2c30:	86 13       	cpse	r24, r22
    2c32:	01 c0       	rjmp	.+2      	; 0x2c36 <_ZN6String7replaceEcc+0x12>
    2c34:	40 83       	st	Z, r20
    2c36:	31 96       	adiw	r30, 0x01	; 1
    2c38:	80 81       	ld	r24, Z
    2c3a:	81 11       	cpse	r24, r1
    2c3c:	f9 cf       	rjmp	.-14     	; 0x2c30 <_ZN6String7replaceEcc+0xc>
    2c3e:	08 95       	ret

00002c40 <_ZN6String7replaceERKS_S1_>:
    2c40:	2f 92       	push	r2
    2c42:	3f 92       	push	r3
    2c44:	4f 92       	push	r4
    2c46:	5f 92       	push	r5
    2c48:	6f 92       	push	r6
    2c4a:	7f 92       	push	r7
    2c4c:	8f 92       	push	r8
    2c4e:	9f 92       	push	r9
    2c50:	af 92       	push	r10
    2c52:	bf 92       	push	r11
    2c54:	cf 92       	push	r12
    2c56:	df 92       	push	r13
    2c58:	ef 92       	push	r14
    2c5a:	ff 92       	push	r15
    2c5c:	0f 93       	push	r16
    2c5e:	1f 93       	push	r17
    2c60:	cf 93       	push	r28
    2c62:	df 93       	push	r29
    2c64:	8c 01       	movw	r16, r24
    2c66:	5b 01       	movw	r10, r22
    2c68:	7a 01       	movw	r14, r20
    2c6a:	dc 01       	movw	r26, r24
    2c6c:	14 96       	adiw	r26, 0x04	; 4
    2c6e:	6d 90       	ld	r6, X+
    2c70:	7c 90       	ld	r7, X
    2c72:	15 97       	sbiw	r26, 0x05	; 5
    2c74:	61 14       	cp	r6, r1
    2c76:	71 04       	cpc	r7, r1
    2c78:	09 f4       	brne	.+2      	; 0x2c7c <_ZN6String7replaceERKS_S1_+0x3c>
    2c7a:	e1 c0       	rjmp	.+450    	; 0x2e3e <_ZN6String7replaceERKS_S1_+0x1fe>
    2c7c:	fb 01       	movw	r30, r22
    2c7e:	44 80       	ldd	r4, Z+4	; 0x04
    2c80:	55 80       	ldd	r5, Z+5	; 0x05
    2c82:	41 14       	cp	r4, r1
    2c84:	51 04       	cpc	r5, r1
    2c86:	09 f4       	brne	.+2      	; 0x2c8a <_ZN6String7replaceERKS_S1_+0x4a>
    2c88:	da c0       	rjmp	.+436    	; 0x2e3e <_ZN6String7replaceERKS_S1_+0x1fe>
    2c8a:	da 01       	movw	r26, r20
    2c8c:	14 96       	adiw	r26, 0x04	; 4
    2c8e:	cd 90       	ld	r12, X+
    2c90:	dc 90       	ld	r13, X
    2c92:	15 97       	sbiw	r26, 0x05	; 5
    2c94:	c4 18       	sub	r12, r4
    2c96:	d5 08       	sbc	r13, r5
    2c98:	fc 01       	movw	r30, r24
    2c9a:	c0 81       	ld	r28, Z
    2c9c:	d1 81       	ldd	r29, Z+1	; 0x01
    2c9e:	c1 14       	cp	r12, r1
    2ca0:	d1 04       	cpc	r13, r1
    2ca2:	e1 f4       	brne	.+56     	; 0x2cdc <_ZN6String7replaceERKS_S1_+0x9c>
    2ca4:	11 c0       	rjmp	.+34     	; 0x2cc8 <_ZN6String7replaceERKS_S1_+0x88>
    2ca6:	d7 01       	movw	r26, r14
    2ca8:	6c 91       	ld	r22, X
    2caa:	11 96       	adiw	r26, 0x01	; 1
    2cac:	7c 91       	ld	r23, X
    2cae:	11 97       	sbiw	r26, 0x01	; 1
    2cb0:	14 96       	adiw	r26, 0x04	; 4
    2cb2:	4d 91       	ld	r20, X+
    2cb4:	5c 91       	ld	r21, X
    2cb6:	15 97       	sbiw	r26, 0x05	; 5
    2cb8:	c8 01       	movw	r24, r16
    2cba:	0e 94 0e 34 	call	0x681c	; 0x681c <memcpy>
    2cbe:	f7 01       	movw	r30, r14
    2cc0:	c4 81       	ldd	r28, Z+4	; 0x04
    2cc2:	d5 81       	ldd	r29, Z+5	; 0x05
    2cc4:	c0 0f       	add	r28, r16
    2cc6:	d1 1f       	adc	r29, r17
    2cc8:	d5 01       	movw	r26, r10
    2cca:	6d 91       	ld	r22, X+
    2ccc:	7c 91       	ld	r23, X
    2cce:	ce 01       	movw	r24, r28
    2cd0:	0e 94 6c 34 	call	0x68d8	; 0x68d8 <strstr>
    2cd4:	8c 01       	movw	r16, r24
    2cd6:	00 97       	sbiw	r24, 0x00	; 0
    2cd8:	31 f7       	brne	.-52     	; 0x2ca6 <_ZN6String7replaceERKS_S1_+0x66>
    2cda:	b1 c0       	rjmp	.+354    	; 0x2e3e <_ZN6String7replaceERKS_S1_+0x1fe>
    2cdc:	d7 fe       	sbrs	r13, 7
    2cde:	02 c0       	rjmp	.+4      	; 0x2ce4 <_ZN6String7replaceERKS_S1_+0xa4>
    2ce0:	4e 01       	movw	r8, r28
    2ce2:	2f c0       	rjmp	.+94     	; 0x2d42 <_ZN6String7replaceERKS_S1_+0x102>
    2ce4:	fb 01       	movw	r30, r22
    2ce6:	20 80       	ld	r2, Z
    2ce8:	31 80       	ldd	r3, Z+1	; 0x01
    2cea:	43 01       	movw	r8, r6
    2cec:	4e c0       	rjmp	.+156    	; 0x2d8a <_ZN6String7replaceERKS_S1_+0x14a>
    2cee:	23 01       	movw	r4, r6
    2cf0:	4c 1a       	sub	r4, r28
    2cf2:	5d 0a       	sbc	r5, r29
    2cf4:	a2 01       	movw	r20, r4
    2cf6:	be 01       	movw	r22, r28
    2cf8:	c4 01       	movw	r24, r8
    2cfa:	0e 94 0e 34 	call	0x681c	; 0x681c <memcpy>
    2cfe:	e4 01       	movw	r28, r8
    2d00:	c4 0d       	add	r28, r4
    2d02:	d5 1d       	adc	r29, r5
    2d04:	d7 01       	movw	r26, r14
    2d06:	6c 91       	ld	r22, X
    2d08:	11 96       	adiw	r26, 0x01	; 1
    2d0a:	7c 91       	ld	r23, X
    2d0c:	11 97       	sbiw	r26, 0x01	; 1
    2d0e:	14 96       	adiw	r26, 0x04	; 4
    2d10:	4d 91       	ld	r20, X+
    2d12:	5c 91       	ld	r21, X
    2d14:	15 97       	sbiw	r26, 0x05	; 5
    2d16:	ce 01       	movw	r24, r28
    2d18:	0e 94 0e 34 	call	0x681c	; 0x681c <memcpy>
    2d1c:	f7 01       	movw	r30, r14
    2d1e:	84 80       	ldd	r8, Z+4	; 0x04
    2d20:	95 80       	ldd	r9, Z+5	; 0x05
    2d22:	8c 0e       	add	r8, r28
    2d24:	9d 1e       	adc	r9, r29
    2d26:	d5 01       	movw	r26, r10
    2d28:	14 96       	adiw	r26, 0x04	; 4
    2d2a:	cd 91       	ld	r28, X+
    2d2c:	dc 91       	ld	r29, X
    2d2e:	15 97       	sbiw	r26, 0x05	; 5
    2d30:	c6 0d       	add	r28, r6
    2d32:	d7 1d       	adc	r29, r7
    2d34:	f8 01       	movw	r30, r16
    2d36:	84 81       	ldd	r24, Z+4	; 0x04
    2d38:	95 81       	ldd	r25, Z+5	; 0x05
    2d3a:	8c 0d       	add	r24, r12
    2d3c:	9d 1d       	adc	r25, r13
    2d3e:	95 83       	std	Z+5, r25	; 0x05
    2d40:	84 83       	std	Z+4, r24	; 0x04
    2d42:	d5 01       	movw	r26, r10
    2d44:	6d 91       	ld	r22, X+
    2d46:	7c 91       	ld	r23, X
    2d48:	ce 01       	movw	r24, r28
    2d4a:	0e 94 6c 34 	call	0x68d8	; 0x68d8 <strstr>
    2d4e:	3c 01       	movw	r6, r24
    2d50:	00 97       	sbiw	r24, 0x00	; 0
    2d52:	69 f6       	brne	.-102    	; 0x2cee <_ZN6String7replaceERKS_S1_+0xae>
    2d54:	be 01       	movw	r22, r28
    2d56:	c4 01       	movw	r24, r8
    2d58:	df 91       	pop	r29
    2d5a:	cf 91       	pop	r28
    2d5c:	1f 91       	pop	r17
    2d5e:	0f 91       	pop	r16
    2d60:	ff 90       	pop	r15
    2d62:	ef 90       	pop	r14
    2d64:	df 90       	pop	r13
    2d66:	cf 90       	pop	r12
    2d68:	bf 90       	pop	r11
    2d6a:	af 90       	pop	r10
    2d6c:	9f 90       	pop	r9
    2d6e:	8f 90       	pop	r8
    2d70:	7f 90       	pop	r7
    2d72:	6f 90       	pop	r6
    2d74:	5f 90       	pop	r5
    2d76:	4f 90       	pop	r4
    2d78:	3f 90       	pop	r3
    2d7a:	2f 90       	pop	r2
    2d7c:	0c 94 3d 34 	jmp	0x687a	; 0x687a <strcpy>
    2d80:	ec 01       	movw	r28, r24
    2d82:	c4 0d       	add	r28, r4
    2d84:	d5 1d       	adc	r29, r5
    2d86:	8c 0c       	add	r8, r12
    2d88:	9d 1c       	adc	r9, r13
    2d8a:	b1 01       	movw	r22, r2
    2d8c:	ce 01       	movw	r24, r28
    2d8e:	0e 94 6c 34 	call	0x68d8	; 0x68d8 <strstr>
    2d92:	00 97       	sbiw	r24, 0x00	; 0
    2d94:	a9 f7       	brne	.-22     	; 0x2d80 <_ZN6String7replaceERKS_S1_+0x140>
    2d96:	86 14       	cp	r8, r6
    2d98:	97 04       	cpc	r9, r7
    2d9a:	09 f4       	brne	.+2      	; 0x2d9e <_ZN6String7replaceERKS_S1_+0x15e>
    2d9c:	50 c0       	rjmp	.+160    	; 0x2e3e <_ZN6String7replaceERKS_S1_+0x1fe>
    2d9e:	f8 01       	movw	r30, r16
    2da0:	82 81       	ldd	r24, Z+2	; 0x02
    2da2:	93 81       	ldd	r25, Z+3	; 0x03
    2da4:	88 15       	cp	r24, r8
    2da6:	99 05       	cpc	r25, r9
    2da8:	98 f4       	brcc	.+38     	; 0x2dd0 <_ZN6String7replaceERKS_S1_+0x190>
    2daa:	b4 01       	movw	r22, r8
    2dac:	c8 01       	movw	r24, r16
    2dae:	0e 94 f0 0f 	call	0x1fe0	; 0x1fe0 <_ZN6String12changeBufferEj>
    2db2:	88 23       	and	r24, r24
    2db4:	09 f4       	brne	.+2      	; 0x2db8 <_ZN6String7replaceERKS_S1_+0x178>
    2db6:	43 c0       	rjmp	.+134    	; 0x2e3e <_ZN6String7replaceERKS_S1_+0x1fe>
    2db8:	0b c0       	rjmp	.+22     	; 0x2dd0 <_ZN6String7replaceERKS_S1_+0x190>
    2dba:	d7 fd       	sbrc	r29, 7
    2dbc:	40 c0       	rjmp	.+128    	; 0x2e3e <_ZN6String7replaceERKS_S1_+0x1fe>
    2dbe:	ae 01       	movw	r20, r28
    2dc0:	b5 01       	movw	r22, r10
    2dc2:	c8 01       	movw	r24, r16
    2dc4:	0e 94 6a 15 	call	0x2ad4	; 0x2ad4 <_ZNK6String11lastIndexOfERKS_j>
    2dc8:	ec 01       	movw	r28, r24
    2dca:	97 ff       	sbrs	r25, 7
    2dcc:	07 c0       	rjmp	.+14     	; 0x2ddc <_ZN6String7replaceERKS_S1_+0x19c>
    2dce:	37 c0       	rjmp	.+110    	; 0x2e3e <_ZN6String7replaceERKS_S1_+0x1fe>
    2dd0:	d8 01       	movw	r26, r16
    2dd2:	14 96       	adiw	r26, 0x04	; 4
    2dd4:	cd 91       	ld	r28, X+
    2dd6:	dc 91       	ld	r29, X
    2dd8:	15 97       	sbiw	r26, 0x05	; 5
    2dda:	2f c0       	rjmp	.+94     	; 0x2e3a <_ZN6String7replaceERKS_S1_+0x1fa>
    2ddc:	f8 01       	movw	r30, r16
    2dde:	80 81       	ld	r24, Z
    2de0:	91 81       	ldd	r25, Z+1	; 0x01
    2de2:	d5 01       	movw	r26, r10
    2de4:	14 96       	adiw	r26, 0x04	; 4
    2de6:	2d 91       	ld	r18, X+
    2de8:	3c 91       	ld	r19, X
    2dea:	15 97       	sbiw	r26, 0x05	; 5
    2dec:	2c 0f       	add	r18, r28
    2dee:	3d 1f       	adc	r19, r29
    2df0:	82 0f       	add	r24, r18
    2df2:	93 1f       	adc	r25, r19
    2df4:	44 81       	ldd	r20, Z+4	; 0x04
    2df6:	55 81       	ldd	r21, Z+5	; 0x05
    2df8:	42 1b       	sub	r20, r18
    2dfa:	53 0b       	sbc	r21, r19
    2dfc:	bc 01       	movw	r22, r24
    2dfe:	8c 0d       	add	r24, r12
    2e00:	9d 1d       	adc	r25, r13
    2e02:	0e 94 17 34 	call	0x682e	; 0x682e <memmove>
    2e06:	f8 01       	movw	r30, r16
    2e08:	84 81       	ldd	r24, Z+4	; 0x04
    2e0a:	95 81       	ldd	r25, Z+5	; 0x05
    2e0c:	8c 0d       	add	r24, r12
    2e0e:	9d 1d       	adc	r25, r13
    2e10:	95 83       	std	Z+5, r25	; 0x05
    2e12:	84 83       	std	Z+4, r24	; 0x04
    2e14:	01 90       	ld	r0, Z+
    2e16:	f0 81       	ld	r31, Z
    2e18:	e0 2d       	mov	r30, r0
    2e1a:	e8 0f       	add	r30, r24
    2e1c:	f9 1f       	adc	r31, r25
    2e1e:	10 82       	st	Z, r1
    2e20:	d8 01       	movw	r26, r16
    2e22:	2d 91       	ld	r18, X+
    2e24:	3c 91       	ld	r19, X
    2e26:	2c 0f       	add	r18, r28
    2e28:	3d 1f       	adc	r19, r29
    2e2a:	f7 01       	movw	r30, r14
    2e2c:	60 81       	ld	r22, Z
    2e2e:	71 81       	ldd	r23, Z+1	; 0x01
    2e30:	44 81       	ldd	r20, Z+4	; 0x04
    2e32:	55 81       	ldd	r21, Z+5	; 0x05
    2e34:	c9 01       	movw	r24, r18
    2e36:	0e 94 0e 34 	call	0x681c	; 0x681c <memcpy>
    2e3a:	21 97       	sbiw	r28, 0x01	; 1
    2e3c:	be cf       	rjmp	.-132    	; 0x2dba <_ZN6String7replaceERKS_S1_+0x17a>
    2e3e:	df 91       	pop	r29
    2e40:	cf 91       	pop	r28
    2e42:	1f 91       	pop	r17
    2e44:	0f 91       	pop	r16
    2e46:	ff 90       	pop	r15
    2e48:	ef 90       	pop	r14
    2e4a:	df 90       	pop	r13
    2e4c:	cf 90       	pop	r12
    2e4e:	bf 90       	pop	r11
    2e50:	af 90       	pop	r10
    2e52:	9f 90       	pop	r9
    2e54:	8f 90       	pop	r8
    2e56:	7f 90       	pop	r7
    2e58:	6f 90       	pop	r6
    2e5a:	5f 90       	pop	r5
    2e5c:	4f 90       	pop	r4
    2e5e:	3f 90       	pop	r3
    2e60:	2f 90       	pop	r2
    2e62:	08 95       	ret

00002e64 <_ZN6String11toLowerCaseEv>:
    2e64:	cf 93       	push	r28
    2e66:	df 93       	push	r29
    2e68:	fc 01       	movw	r30, r24
    2e6a:	c0 81       	ld	r28, Z
    2e6c:	d1 81       	ldd	r29, Z+1	; 0x01
    2e6e:	20 97       	sbiw	r28, 0x00	; 0
    2e70:	29 f4       	brne	.+10     	; 0x2e7c <_ZN6String11toLowerCaseEv+0x18>
    2e72:	07 c0       	rjmp	.+14     	; 0x2e82 <_ZN6String11toLowerCaseEv+0x1e>
    2e74:	90 e0       	ldi	r25, 0x00	; 0
    2e76:	0e 94 f1 33 	call	0x67e2	; 0x67e2 <tolower>
    2e7a:	89 93       	st	Y+, r24
    2e7c:	88 81       	ld	r24, Y
    2e7e:	81 11       	cpse	r24, r1
    2e80:	f9 cf       	rjmp	.-14     	; 0x2e74 <_ZN6String11toLowerCaseEv+0x10>
    2e82:	df 91       	pop	r29
    2e84:	cf 91       	pop	r28
    2e86:	08 95       	ret

00002e88 <_ZN6String11toUpperCaseEv>:
    2e88:	cf 93       	push	r28
    2e8a:	df 93       	push	r29
    2e8c:	fc 01       	movw	r30, r24
    2e8e:	c0 81       	ld	r28, Z
    2e90:	d1 81       	ldd	r29, Z+1	; 0x01
    2e92:	20 97       	sbiw	r28, 0x00	; 0
    2e94:	29 f4       	brne	.+10     	; 0x2ea0 <_ZN6String11toUpperCaseEv+0x18>
    2e96:	07 c0       	rjmp	.+14     	; 0x2ea6 <_ZN6String11toUpperCaseEv+0x1e>
    2e98:	90 e0       	ldi	r25, 0x00	; 0
    2e9a:	0e 94 f9 33 	call	0x67f2	; 0x67f2 <toupper>
    2e9e:	89 93       	st	Y+, r24
    2ea0:	88 81       	ld	r24, Y
    2ea2:	81 11       	cpse	r24, r1
    2ea4:	f9 cf       	rjmp	.-14     	; 0x2e98 <_ZN6String11toUpperCaseEv+0x10>
    2ea6:	df 91       	pop	r29
    2ea8:	cf 91       	pop	r28
    2eaa:	08 95       	ret

00002eac <_ZN6String4trimEv>:
    2eac:	af 92       	push	r10
    2eae:	bf 92       	push	r11
    2eb0:	cf 92       	push	r12
    2eb2:	df 92       	push	r13
    2eb4:	ef 92       	push	r14
    2eb6:	ff 92       	push	r15
    2eb8:	0f 93       	push	r16
    2eba:	1f 93       	push	r17
    2ebc:	cf 93       	push	r28
    2ebe:	df 93       	push	r29
    2ec0:	6c 01       	movw	r12, r24
    2ec2:	dc 01       	movw	r26, r24
    2ec4:	ed 90       	ld	r14, X+
    2ec6:	fc 90       	ld	r15, X
    2ec8:	11 97       	sbiw	r26, 0x01	; 1
    2eca:	e1 14       	cp	r14, r1
    2ecc:	f1 04       	cpc	r15, r1
    2ece:	09 f4       	brne	.+2      	; 0x2ed2 <_ZN6String4trimEv+0x26>
    2ed0:	42 c0       	rjmp	.+132    	; 0x2f56 <_ZN6String4trimEv+0xaa>
    2ed2:	14 96       	adiw	r26, 0x04	; 4
    2ed4:	0d 91       	ld	r16, X+
    2ed6:	1c 91       	ld	r17, X
    2ed8:	15 97       	sbiw	r26, 0x05	; 5
    2eda:	01 15       	cp	r16, r1
    2edc:	11 05       	cpc	r17, r1
    2ede:	d9 f1       	breq	.+118    	; 0x2f56 <_ZN6String4trimEv+0xaa>
    2ee0:	57 01       	movw	r10, r14
    2ee2:	e5 01       	movw	r28, r10
    2ee4:	bf ef       	ldi	r27, 0xFF	; 255
    2ee6:	ab 1a       	sub	r10, r27
    2ee8:	bb 0a       	sbc	r11, r27
    2eea:	88 81       	ld	r24, Y
    2eec:	90 e0       	ldi	r25, 0x00	; 0
    2eee:	0e 94 e9 33 	call	0x67d2	; 0x67d2 <isspace>
    2ef2:	89 2b       	or	r24, r25
    2ef4:	b1 f7       	brne	.-20     	; 0x2ee2 <_ZN6String4trimEv+0x36>
    2ef6:	01 50       	subi	r16, 0x01	; 1
    2ef8:	11 09       	sbc	r17, r1
    2efa:	0e 0d       	add	r16, r14
    2efc:	1f 1d       	adc	r17, r15
    2efe:	f8 01       	movw	r30, r16
    2f00:	80 81       	ld	r24, Z
    2f02:	90 e0       	ldi	r25, 0x00	; 0
    2f04:	0e 94 e9 33 	call	0x67d2	; 0x67d2 <isspace>
    2f08:	89 2b       	or	r24, r25
    2f0a:	69 f4       	brne	.+26     	; 0x2f26 <_ZN6String4trimEv+0x7a>
    2f0c:	0f 5f       	subi	r16, 0xFF	; 255
    2f0e:	1f 4f       	sbci	r17, 0xFF	; 255
    2f10:	0c 1b       	sub	r16, r28
    2f12:	1d 0b       	sbc	r17, r29
    2f14:	d6 01       	movw	r26, r12
    2f16:	15 96       	adiw	r26, 0x05	; 5
    2f18:	1c 93       	st	X, r17
    2f1a:	0e 93       	st	-X, r16
    2f1c:	14 97       	sbiw	r26, 0x04	; 4
    2f1e:	ec 16       	cp	r14, r28
    2f20:	fd 06       	cpc	r15, r29
    2f22:	50 f4       	brcc	.+20     	; 0x2f38 <_ZN6String4trimEv+0x8c>
    2f24:	04 c0       	rjmp	.+8      	; 0x2f2e <_ZN6String4trimEv+0x82>
    2f26:	0c 17       	cp	r16, r28
    2f28:	1d 07       	cpc	r17, r29
    2f2a:	90 f4       	brcc	.+36     	; 0x2f50 <_ZN6String4trimEv+0xa4>
    2f2c:	ef cf       	rjmp	.-34     	; 0x2f0c <_ZN6String4trimEv+0x60>
    2f2e:	a8 01       	movw	r20, r16
    2f30:	be 01       	movw	r22, r28
    2f32:	c7 01       	movw	r24, r14
    2f34:	0e 94 0e 34 	call	0x681c	; 0x681c <memcpy>
    2f38:	d6 01       	movw	r26, r12
    2f3a:	ed 91       	ld	r30, X+
    2f3c:	fc 91       	ld	r31, X
    2f3e:	11 97       	sbiw	r26, 0x01	; 1
    2f40:	14 96       	adiw	r26, 0x04	; 4
    2f42:	8d 91       	ld	r24, X+
    2f44:	9c 91       	ld	r25, X
    2f46:	15 97       	sbiw	r26, 0x05	; 5
    2f48:	e8 0f       	add	r30, r24
    2f4a:	f9 1f       	adc	r31, r25
    2f4c:	10 82       	st	Z, r1
    2f4e:	03 c0       	rjmp	.+6      	; 0x2f56 <_ZN6String4trimEv+0xaa>
    2f50:	01 50       	subi	r16, 0x01	; 1
    2f52:	11 09       	sbc	r17, r1
    2f54:	d4 cf       	rjmp	.-88     	; 0x2efe <_ZN6String4trimEv+0x52>
    2f56:	df 91       	pop	r29
    2f58:	cf 91       	pop	r28
    2f5a:	1f 91       	pop	r17
    2f5c:	0f 91       	pop	r16
    2f5e:	ff 90       	pop	r15
    2f60:	ef 90       	pop	r14
    2f62:	df 90       	pop	r13
    2f64:	cf 90       	pop	r12
    2f66:	bf 90       	pop	r11
    2f68:	af 90       	pop	r10
    2f6a:	08 95       	ret

00002f6c <_ZNK6String5toIntEv>:
    2f6c:	fc 01       	movw	r30, r24
    2f6e:	80 81       	ld	r24, Z
    2f70:	91 81       	ldd	r25, Z+1	; 0x01
    2f72:	00 97       	sbiw	r24, 0x00	; 0
    2f74:	11 f0       	breq	.+4      	; 0x2f7a <_ZNK6String5toIntEv+0xe>
    2f76:	0c 94 c2 33 	jmp	0x6784	; 0x6784 <atol>
    2f7a:	60 e0       	ldi	r22, 0x00	; 0
    2f7c:	70 e0       	ldi	r23, 0x00	; 0
    2f7e:	80 e0       	ldi	r24, 0x00	; 0
    2f80:	90 e0       	ldi	r25, 0x00	; 0
    2f82:	08 95       	ret

00002f84 <_Znwj>:
    2f84:	0c 94 65 31 	jmp	0x62ca	; 0x62ca <malloc>

00002f88 <_ZdlPv>:
    2f88:	0c 94 00 32 	jmp	0x6400	; 0x6400 <free>

00002f8c <__cxa_guard_acquire>:
    2f8c:	21 e0       	ldi	r18, 0x01	; 1
    2f8e:	30 e0       	ldi	r19, 0x00	; 0
    2f90:	fc 01       	movw	r30, r24
    2f92:	80 81       	ld	r24, Z
    2f94:	88 23       	and	r24, r24
    2f96:	11 f0       	breq	.+4      	; 0x2f9c <__cxa_guard_acquire+0x10>
    2f98:	20 e0       	ldi	r18, 0x00	; 0
    2f9a:	30 e0       	ldi	r19, 0x00	; 0
    2f9c:	c9 01       	movw	r24, r18
    2f9e:	08 95       	ret

00002fa0 <__cxa_guard_release>:
    2fa0:	21 e0       	ldi	r18, 0x01	; 1
    2fa2:	fc 01       	movw	r30, r24
    2fa4:	20 83       	st	Z, r18
    2fa6:	08 95       	ret

00002fa8 <__cxa_guard_abort>:
    2fa8:	08 95       	ret

00002faa <__cxa_pure_virtual>:
    2faa:	08 95       	ret

00002fac <__vector_16>:
    2fac:	1f 92       	push	r1
    2fae:	0f 92       	push	r0
    2fb0:	0f b6       	in	r0, 0x3f	; 63
    2fb2:	0f 92       	push	r0
    2fb4:	11 24       	eor	r1, r1
    2fb6:	2f 93       	push	r18
    2fb8:	3f 93       	push	r19
    2fba:	8f 93       	push	r24
    2fbc:	9f 93       	push	r25
    2fbe:	af 93       	push	r26
    2fc0:	bf 93       	push	r27
    2fc2:	80 91 ce 04 	lds	r24, 0x04CE
    2fc6:	90 91 cf 04 	lds	r25, 0x04CF
    2fca:	a0 91 d0 04 	lds	r26, 0x04D0
    2fce:	b0 91 d1 04 	lds	r27, 0x04D1
    2fd2:	30 91 d6 04 	lds	r19, 0x04D6
    2fd6:	23 2f       	mov	r18, r19
    2fd8:	2d 5f       	subi	r18, 0xFD	; 253
    2fda:	2d 37       	cpi	r18, 0x7D	; 125
    2fdc:	20 f4       	brcc	.+8      	; 0x2fe6 <__vector_16+0x3a>
    2fde:	01 96       	adiw	r24, 0x01	; 1
    2fe0:	a1 1d       	adc	r26, r1
    2fe2:	b1 1d       	adc	r27, r1
    2fe4:	05 c0       	rjmp	.+10     	; 0x2ff0 <__vector_16+0x44>
    2fe6:	23 2f       	mov	r18, r19
    2fe8:	2a 57       	subi	r18, 0x7A	; 122
    2fea:	02 96       	adiw	r24, 0x02	; 2
    2fec:	a1 1d       	adc	r26, r1
    2fee:	b1 1d       	adc	r27, r1
    2ff0:	20 93 d6 04 	sts	0x04D6, r18
    2ff4:	80 93 ce 04 	sts	0x04CE, r24
    2ff8:	90 93 cf 04 	sts	0x04CF, r25
    2ffc:	a0 93 d0 04 	sts	0x04D0, r26
    3000:	b0 93 d1 04 	sts	0x04D1, r27
    3004:	80 91 d2 04 	lds	r24, 0x04D2
    3008:	90 91 d3 04 	lds	r25, 0x04D3
    300c:	a0 91 d4 04 	lds	r26, 0x04D4
    3010:	b0 91 d5 04 	lds	r27, 0x04D5
    3014:	01 96       	adiw	r24, 0x01	; 1
    3016:	a1 1d       	adc	r26, r1
    3018:	b1 1d       	adc	r27, r1
    301a:	80 93 d2 04 	sts	0x04D2, r24
    301e:	90 93 d3 04 	sts	0x04D3, r25
    3022:	a0 93 d4 04 	sts	0x04D4, r26
    3026:	b0 93 d5 04 	sts	0x04D5, r27
    302a:	bf 91       	pop	r27
    302c:	af 91       	pop	r26
    302e:	9f 91       	pop	r25
    3030:	8f 91       	pop	r24
    3032:	3f 91       	pop	r19
    3034:	2f 91       	pop	r18
    3036:	0f 90       	pop	r0
    3038:	0f be       	out	0x3f, r0	; 63
    303a:	0f 90       	pop	r0
    303c:	1f 90       	pop	r1
    303e:	18 95       	reti

00003040 <millis>:
    3040:	0f 93       	push	r16
    3042:	1f 93       	push	r17
    3044:	8f b7       	in	r24, 0x3f	; 63
    3046:	f8 94       	cli
    3048:	00 91 ce 04 	lds	r16, 0x04CE
    304c:	10 91 cf 04 	lds	r17, 0x04CF
    3050:	20 91 d0 04 	lds	r18, 0x04D0
    3054:	30 91 d1 04 	lds	r19, 0x04D1
    3058:	8f bf       	out	0x3f, r24	; 63
    305a:	b8 01       	movw	r22, r16
    305c:	c9 01       	movw	r24, r18
    305e:	1f 91       	pop	r17
    3060:	0f 91       	pop	r16
    3062:	08 95       	ret

00003064 <micros>:
    3064:	0f 93       	push	r16
    3066:	1f 93       	push	r17
    3068:	9f b7       	in	r25, 0x3f	; 63
    306a:	f8 94       	cli
    306c:	00 91 d2 04 	lds	r16, 0x04D2
    3070:	10 91 d3 04 	lds	r17, 0x04D3
    3074:	20 91 d4 04 	lds	r18, 0x04D4
    3078:	30 91 d5 04 	lds	r19, 0x04D5
    307c:	86 b5       	in	r24, 0x26	; 38
    307e:	a8 9b       	sbis	0x15, 0	; 21
    3080:	06 c0       	rjmp	.+12     	; 0x308e <micros+0x2a>
    3082:	8f 3f       	cpi	r24, 0xFF	; 255
    3084:	21 f0       	breq	.+8      	; 0x308e <micros+0x2a>
    3086:	0f 5f       	subi	r16, 0xFF	; 255
    3088:	1f 4f       	sbci	r17, 0xFF	; 255
    308a:	2f 4f       	sbci	r18, 0xFF	; 255
    308c:	3f 4f       	sbci	r19, 0xFF	; 255
    308e:	9f bf       	out	0x3f, r25	; 63
    3090:	32 2f       	mov	r19, r18
    3092:	21 2f       	mov	r18, r17
    3094:	10 2f       	mov	r17, r16
    3096:	00 27       	eor	r16, r16
    3098:	08 0f       	add	r16, r24
    309a:	11 1d       	adc	r17, r1
    309c:	21 1d       	adc	r18, r1
    309e:	31 1d       	adc	r19, r1
    30a0:	42 e0       	ldi	r20, 0x02	; 2
    30a2:	00 0f       	add	r16, r16
    30a4:	11 1f       	adc	r17, r17
    30a6:	22 1f       	adc	r18, r18
    30a8:	33 1f       	adc	r19, r19
    30aa:	4a 95       	dec	r20
    30ac:	d1 f7       	brne	.-12     	; 0x30a2 <micros+0x3e>
    30ae:	b8 01       	movw	r22, r16
    30b0:	c9 01       	movw	r24, r18
    30b2:	1f 91       	pop	r17
    30b4:	0f 91       	pop	r16
    30b6:	08 95       	ret

000030b8 <delay>:
    30b8:	cf 92       	push	r12
    30ba:	df 92       	push	r13
    30bc:	ef 92       	push	r14
    30be:	ff 92       	push	r15
    30c0:	cf 93       	push	r28
    30c2:	df 93       	push	r29
    30c4:	6b 01       	movw	r12, r22
    30c6:	7c 01       	movw	r14, r24
    30c8:	0e 94 32 18 	call	0x3064	; 0x3064 <micros>
    30cc:	eb 01       	movw	r28, r22
    30ce:	0e c0       	rjmp	.+28     	; 0x30ec <delay+0x34>
    30d0:	0e 94 32 18 	call	0x3064	; 0x3064 <micros>
    30d4:	6c 1b       	sub	r22, r28
    30d6:	7d 0b       	sbc	r23, r29
    30d8:	68 3e       	cpi	r22, 0xE8	; 232
    30da:	73 40       	sbci	r23, 0x03	; 3
    30dc:	38 f0       	brcs	.+14     	; 0x30ec <delay+0x34>
    30de:	81 e0       	ldi	r24, 0x01	; 1
    30e0:	c8 1a       	sub	r12, r24
    30e2:	d1 08       	sbc	r13, r1
    30e4:	e1 08       	sbc	r14, r1
    30e6:	f1 08       	sbc	r15, r1
    30e8:	c8 51       	subi	r28, 0x18	; 24
    30ea:	dc 4f       	sbci	r29, 0xFC	; 252
    30ec:	c1 14       	cp	r12, r1
    30ee:	d1 04       	cpc	r13, r1
    30f0:	e1 04       	cpc	r14, r1
    30f2:	f1 04       	cpc	r15, r1
    30f4:	69 f7       	brne	.-38     	; 0x30d0 <delay+0x18>
    30f6:	df 91       	pop	r29
    30f8:	cf 91       	pop	r28
    30fa:	ff 90       	pop	r15
    30fc:	ef 90       	pop	r14
    30fe:	df 90       	pop	r13
    3100:	cf 90       	pop	r12
    3102:	08 95       	ret

00003104 <delayMicroseconds>:
    3104:	01 97       	sbiw	r24, 0x01	; 1
    3106:	39 f0       	breq	.+14     	; 0x3116 <delayMicroseconds+0x12>
    3108:	88 0f       	add	r24, r24
    310a:	99 1f       	adc	r25, r25
    310c:	88 0f       	add	r24, r24
    310e:	99 1f       	adc	r25, r25
    3110:	02 97       	sbiw	r24, 0x02	; 2
    3112:	01 97       	sbiw	r24, 0x01	; 1
    3114:	f1 f7       	brne	.-4      	; 0x3112 <delayMicroseconds+0xe>
    3116:	08 95       	ret

00003118 <init>:
    3118:	78 94       	sei
    311a:	84 b5       	in	r24, 0x24	; 36
    311c:	82 60       	ori	r24, 0x02	; 2
    311e:	84 bd       	out	0x24, r24	; 36
    3120:	84 b5       	in	r24, 0x24	; 36
    3122:	81 60       	ori	r24, 0x01	; 1
    3124:	84 bd       	out	0x24, r24	; 36
    3126:	85 b5       	in	r24, 0x25	; 37
    3128:	82 60       	ori	r24, 0x02	; 2
    312a:	85 bd       	out	0x25, r24	; 37
    312c:	85 b5       	in	r24, 0x25	; 37
    312e:	81 60       	ori	r24, 0x01	; 1
    3130:	85 bd       	out	0x25, r24	; 37
    3132:	ee e6       	ldi	r30, 0x6E	; 110
    3134:	f0 e0       	ldi	r31, 0x00	; 0
    3136:	80 81       	ld	r24, Z
    3138:	81 60       	ori	r24, 0x01	; 1
    313a:	80 83       	st	Z, r24
    313c:	e1 e8       	ldi	r30, 0x81	; 129
    313e:	f0 e0       	ldi	r31, 0x00	; 0
    3140:	10 82       	st	Z, r1
    3142:	80 81       	ld	r24, Z
    3144:	82 60       	ori	r24, 0x02	; 2
    3146:	80 83       	st	Z, r24
    3148:	80 81       	ld	r24, Z
    314a:	81 60       	ori	r24, 0x01	; 1
    314c:	80 83       	st	Z, r24
    314e:	e0 e8       	ldi	r30, 0x80	; 128
    3150:	f0 e0       	ldi	r31, 0x00	; 0
    3152:	80 81       	ld	r24, Z
    3154:	81 60       	ori	r24, 0x01	; 1
    3156:	80 83       	st	Z, r24
    3158:	e1 eb       	ldi	r30, 0xB1	; 177
    315a:	f0 e0       	ldi	r31, 0x00	; 0
    315c:	80 81       	ld	r24, Z
    315e:	84 60       	ori	r24, 0x04	; 4
    3160:	80 83       	st	Z, r24
    3162:	e0 eb       	ldi	r30, 0xB0	; 176
    3164:	f0 e0       	ldi	r31, 0x00	; 0
    3166:	80 81       	ld	r24, Z
    3168:	81 60       	ori	r24, 0x01	; 1
    316a:	80 83       	st	Z, r24
    316c:	ea e7       	ldi	r30, 0x7A	; 122
    316e:	f0 e0       	ldi	r31, 0x00	; 0
    3170:	80 81       	ld	r24, Z
    3172:	84 60       	ori	r24, 0x04	; 4
    3174:	80 83       	st	Z, r24
    3176:	80 81       	ld	r24, Z
    3178:	82 60       	ori	r24, 0x02	; 2
    317a:	80 83       	st	Z, r24
    317c:	80 81       	ld	r24, Z
    317e:	81 60       	ori	r24, 0x01	; 1
    3180:	80 83       	st	Z, r24
    3182:	80 81       	ld	r24, Z
    3184:	80 68       	ori	r24, 0x80	; 128
    3186:	80 83       	st	Z, r24
    3188:	10 92 c1 00 	sts	0x00C1, r1
    318c:	08 95       	ret

0000318e <turnOffPWM>:
    318e:	83 30       	cpi	r24, 0x03	; 3
    3190:	69 f0       	breq	.+26     	; 0x31ac <turnOffPWM+0x1e>
    3192:	28 f4       	brcc	.+10     	; 0x319e <turnOffPWM+0x10>
    3194:	81 30       	cpi	r24, 0x01	; 1
    3196:	a1 f0       	breq	.+40     	; 0x31c0 <turnOffPWM+0x32>
    3198:	82 30       	cpi	r24, 0x02	; 2
    319a:	11 f5       	brne	.+68     	; 0x31e0 <turnOffPWM+0x52>
    319c:	14 c0       	rjmp	.+40     	; 0x31c6 <turnOffPWM+0x38>
    319e:	86 30       	cpi	r24, 0x06	; 6
    31a0:	b1 f0       	breq	.+44     	; 0x31ce <turnOffPWM+0x40>
    31a2:	87 30       	cpi	r24, 0x07	; 7
    31a4:	c1 f0       	breq	.+48     	; 0x31d6 <turnOffPWM+0x48>
    31a6:	84 30       	cpi	r24, 0x04	; 4
    31a8:	d9 f4       	brne	.+54     	; 0x31e0 <turnOffPWM+0x52>
    31aa:	04 c0       	rjmp	.+8      	; 0x31b4 <turnOffPWM+0x26>
    31ac:	80 91 80 00 	lds	r24, 0x0080
    31b0:	8f 77       	andi	r24, 0x7F	; 127
    31b2:	03 c0       	rjmp	.+6      	; 0x31ba <turnOffPWM+0x2c>
    31b4:	80 91 80 00 	lds	r24, 0x0080
    31b8:	8f 7d       	andi	r24, 0xDF	; 223
    31ba:	80 93 80 00 	sts	0x0080, r24
    31be:	08 95       	ret
    31c0:	84 b5       	in	r24, 0x24	; 36
    31c2:	8f 77       	andi	r24, 0x7F	; 127
    31c4:	02 c0       	rjmp	.+4      	; 0x31ca <turnOffPWM+0x3c>
    31c6:	84 b5       	in	r24, 0x24	; 36
    31c8:	8f 7d       	andi	r24, 0xDF	; 223
    31ca:	84 bd       	out	0x24, r24	; 36
    31cc:	08 95       	ret
    31ce:	80 91 b0 00 	lds	r24, 0x00B0
    31d2:	8f 77       	andi	r24, 0x7F	; 127
    31d4:	03 c0       	rjmp	.+6      	; 0x31dc <turnOffPWM+0x4e>
    31d6:	80 91 b0 00 	lds	r24, 0x00B0
    31da:	8f 7d       	andi	r24, 0xDF	; 223
    31dc:	80 93 b0 00 	sts	0x00B0, r24
    31e0:	08 95       	ret

000031e2 <pinMode>:
    31e2:	cf 93       	push	r28
    31e4:	df 93       	push	r29
    31e6:	90 e0       	ldi	r25, 0x00	; 0
    31e8:	fc 01       	movw	r30, r24
    31ea:	e4 58       	subi	r30, 0x84	; 132
    31ec:	ff 4f       	sbci	r31, 0xFF	; 255
    31ee:	44 91       	lpm	r20, Z+
    31f0:	fc 01       	movw	r30, r24
    31f2:	e0 57       	subi	r30, 0x70	; 112
    31f4:	ff 4f       	sbci	r31, 0xFF	; 255
    31f6:	84 91       	lpm	r24, Z+
    31f8:	88 23       	and	r24, r24
    31fa:	41 f1       	breq	.+80     	; 0x324c <pinMode+0x6a>
    31fc:	90 e0       	ldi	r25, 0x00	; 0
    31fe:	88 0f       	add	r24, r24
    3200:	99 1f       	adc	r25, r25
    3202:	fc 01       	movw	r30, r24
    3204:	e8 54       	subi	r30, 0x48	; 72
    3206:	ff 4f       	sbci	r31, 0xFF	; 255
    3208:	25 91       	lpm	r18, Z+
    320a:	34 91       	lpm	r19, Z+
    320c:	d9 01       	movw	r26, r18
    320e:	82 55       	subi	r24, 0x52	; 82
    3210:	9f 4f       	sbci	r25, 0xFF	; 255
    3212:	fc 01       	movw	r30, r24
    3214:	85 91       	lpm	r24, Z+
    3216:	94 91       	lpm	r25, Z+
    3218:	c8 2f       	mov	r28, r24
    321a:	d9 2f       	mov	r29, r25
    321c:	9f b7       	in	r25, 0x3f	; 63
    321e:	f8 94       	cli
    3220:	8c 91       	ld	r24, X
    3222:	61 11       	cpse	r22, r1
    3224:	06 c0       	rjmp	.+12     	; 0x3232 <pinMode+0x50>
    3226:	40 95       	com	r20
    3228:	84 23       	and	r24, r20
    322a:	8c 93       	st	X, r24
    322c:	88 81       	ld	r24, Y
    322e:	84 23       	and	r24, r20
    3230:	08 c0       	rjmp	.+16     	; 0x3242 <pinMode+0x60>
    3232:	62 30       	cpi	r22, 0x02	; 2
    3234:	41 f4       	brne	.+16     	; 0x3246 <pinMode+0x64>
    3236:	24 2f       	mov	r18, r20
    3238:	20 95       	com	r18
    323a:	82 23       	and	r24, r18
    323c:	8c 93       	st	X, r24
    323e:	88 81       	ld	r24, Y
    3240:	84 2b       	or	r24, r20
    3242:	88 83       	st	Y, r24
    3244:	02 c0       	rjmp	.+4      	; 0x324a <pinMode+0x68>
    3246:	84 2b       	or	r24, r20
    3248:	8c 93       	st	X, r24
    324a:	9f bf       	out	0x3f, r25	; 63
    324c:	df 91       	pop	r29
    324e:	cf 91       	pop	r28
    3250:	08 95       	ret

00003252 <digitalWrite>:
    3252:	0f 93       	push	r16
    3254:	1f 93       	push	r17
    3256:	cf 93       	push	r28
    3258:	df 93       	push	r29
    325a:	1f 92       	push	r1
    325c:	cd b7       	in	r28, 0x3d	; 61
    325e:	de b7       	in	r29, 0x3e	; 62
    3260:	28 2f       	mov	r18, r24
    3262:	30 e0       	ldi	r19, 0x00	; 0
    3264:	f9 01       	movw	r30, r18
    3266:	e8 59       	subi	r30, 0x98	; 152
    3268:	ff 4f       	sbci	r31, 0xFF	; 255
    326a:	84 91       	lpm	r24, Z+
    326c:	f9 01       	movw	r30, r18
    326e:	e4 58       	subi	r30, 0x84	; 132
    3270:	ff 4f       	sbci	r31, 0xFF	; 255
    3272:	14 91       	lpm	r17, Z+
    3274:	f9 01       	movw	r30, r18
    3276:	e0 57       	subi	r30, 0x70	; 112
    3278:	ff 4f       	sbci	r31, 0xFF	; 255
    327a:	04 91       	lpm	r16, Z+
    327c:	00 23       	and	r16, r16
    327e:	d1 f0       	breq	.+52     	; 0x32b4 <digitalWrite+0x62>
    3280:	88 23       	and	r24, r24
    3282:	21 f0       	breq	.+8      	; 0x328c <digitalWrite+0x3a>
    3284:	69 83       	std	Y+1, r22	; 0x01
    3286:	0e 94 c7 18 	call	0x318e	; 0x318e <turnOffPWM>
    328a:	69 81       	ldd	r22, Y+1	; 0x01
    328c:	e0 2f       	mov	r30, r16
    328e:	f0 e0       	ldi	r31, 0x00	; 0
    3290:	ee 0f       	add	r30, r30
    3292:	ff 1f       	adc	r31, r31
    3294:	e2 55       	subi	r30, 0x52	; 82
    3296:	ff 4f       	sbci	r31, 0xFF	; 255
    3298:	85 91       	lpm	r24, Z+
    329a:	94 91       	lpm	r25, Z+
    329c:	dc 01       	movw	r26, r24
    329e:	9f b7       	in	r25, 0x3f	; 63
    32a0:	f8 94       	cli
    32a2:	8c 91       	ld	r24, X
    32a4:	61 11       	cpse	r22, r1
    32a6:	03 c0       	rjmp	.+6      	; 0x32ae <digitalWrite+0x5c>
    32a8:	10 95       	com	r17
    32aa:	81 23       	and	r24, r17
    32ac:	01 c0       	rjmp	.+2      	; 0x32b0 <digitalWrite+0x5e>
    32ae:	81 2b       	or	r24, r17
    32b0:	8c 93       	st	X, r24
    32b2:	9f bf       	out	0x3f, r25	; 63
    32b4:	0f 90       	pop	r0
    32b6:	df 91       	pop	r29
    32b8:	cf 91       	pop	r28
    32ba:	1f 91       	pop	r17
    32bc:	0f 91       	pop	r16
    32be:	08 95       	ret

000032c0 <digitalRead>:
    32c0:	cf 93       	push	r28
    32c2:	df 93       	push	r29
    32c4:	28 2f       	mov	r18, r24
    32c6:	30 e0       	ldi	r19, 0x00	; 0
    32c8:	f9 01       	movw	r30, r18
    32ca:	e8 59       	subi	r30, 0x98	; 152
    32cc:	ff 4f       	sbci	r31, 0xFF	; 255
    32ce:	84 91       	lpm	r24, Z+
    32d0:	f9 01       	movw	r30, r18
    32d2:	e4 58       	subi	r30, 0x84	; 132
    32d4:	ff 4f       	sbci	r31, 0xFF	; 255
    32d6:	d4 91       	lpm	r29, Z+
    32d8:	f9 01       	movw	r30, r18
    32da:	e0 57       	subi	r30, 0x70	; 112
    32dc:	ff 4f       	sbci	r31, 0xFF	; 255
    32de:	c4 91       	lpm	r28, Z+
    32e0:	cc 23       	and	r28, r28
    32e2:	89 f0       	breq	.+34     	; 0x3306 <digitalRead+0x46>
    32e4:	81 11       	cpse	r24, r1
    32e6:	0e 94 c7 18 	call	0x318e	; 0x318e <turnOffPWM>
    32ea:	ec 2f       	mov	r30, r28
    32ec:	f0 e0       	ldi	r31, 0x00	; 0
    32ee:	ee 0f       	add	r30, r30
    32f0:	ff 1f       	adc	r31, r31
    32f2:	ec 55       	subi	r30, 0x5C	; 92
    32f4:	ff 4f       	sbci	r31, 0xFF	; 255
    32f6:	85 91       	lpm	r24, Z+
    32f8:	94 91       	lpm	r25, Z+
    32fa:	dc 01       	movw	r26, r24
    32fc:	8c 91       	ld	r24, X
    32fe:	8d 23       	and	r24, r29
    3300:	21 e0       	ldi	r18, 0x01	; 1
    3302:	30 e0       	ldi	r19, 0x00	; 0
    3304:	11 f4       	brne	.+4      	; 0x330a <digitalRead+0x4a>
    3306:	20 e0       	ldi	r18, 0x00	; 0
    3308:	30 e0       	ldi	r19, 0x00	; 0
    330a:	c9 01       	movw	r24, r18
    330c:	df 91       	pop	r29
    330e:	cf 91       	pop	r28
    3310:	08 95       	ret

00003312 <_Z5closeh>:
    3312:	cf 93       	push	r28
    3314:	c8 2f       	mov	r28, r24
    3316:	40 e1       	ldi	r20, 0x10	; 16
    3318:	68 2f       	mov	r22, r24
    331a:	89 ed       	ldi	r24, 0xD9	; 217
    331c:	94 e0       	ldi	r25, 0x04	; 4
    331e:	0e 94 a1 1e 	call	0x3d42	; 0x3d42 <_ZN10W5100Class9execCmdSnEh7SockCMD>
    3322:	6f ef       	ldi	r22, 0xFF	; 255
    3324:	8c 2f       	mov	r24, r28
    3326:	cf 91       	pop	r28
    3328:	0c 94 21 30 	jmp	0x6042	; 0x6042 <_ZN10W5100Class9writeSnIREhh>

0000332c <_Z6sockethhjh>:
    332c:	ef 92       	push	r14
    332e:	ff 92       	push	r15
    3330:	1f 93       	push	r17
    3332:	cf 93       	push	r28
    3334:	df 93       	push	r29
    3336:	00 d0       	rcall	.+0      	; 0x3338 <_Z6sockethhjh+0xc>
    3338:	cd b7       	in	r28, 0x3d	; 61
    333a:	de b7       	in	r29, 0x3e	; 62
    333c:	18 2f       	mov	r17, r24
    333e:	7a 01       	movw	r14, r20
    3340:	86 2f       	mov	r24, r22
    3342:	81 50       	subi	r24, 0x01	; 1
    3344:	85 30       	cpi	r24, 0x05	; 5
    3346:	48 f5       	brcc	.+82     	; 0x339a <_Z6sockethhjh+0x6e>
    3348:	81 2f       	mov	r24, r17
    334a:	2a 83       	std	Y+2, r18	; 0x02
    334c:	69 83       	std	Y+1, r22	; 0x01
    334e:	0e 94 89 19 	call	0x3312	; 0x3312 <_Z5closeh>
    3352:	2a 81       	ldd	r18, Y+2	; 0x02
    3354:	69 81       	ldd	r22, Y+1	; 0x01
    3356:	42 2f       	mov	r20, r18
    3358:	46 2b       	or	r20, r22
    335a:	60 e0       	ldi	r22, 0x00	; 0
    335c:	70 e0       	ldi	r23, 0x00	; 0
    335e:	81 2f       	mov	r24, r17
    3360:	0e 94 17 30 	call	0x602e	; 0x602e <_ZN10W5100Class7writeSnEhjh>
    3364:	e1 14       	cp	r14, r1
    3366:	f1 04       	cpc	r15, r1
    3368:	11 f0       	breq	.+4      	; 0x336e <_Z6sockethhjh+0x42>
    336a:	b7 01       	movw	r22, r14
    336c:	0b c0       	rjmp	.+22     	; 0x3384 <_Z6sockethhjh+0x58>
    336e:	20 91 d7 04 	lds	r18, 0x04D7
    3372:	30 91 d8 04 	lds	r19, 0x04D8
    3376:	b9 01       	movw	r22, r18
    3378:	6f 5f       	subi	r22, 0xFF	; 255
    337a:	7f 4f       	sbci	r23, 0xFF	; 255
    337c:	70 93 d8 04 	sts	0x04D8, r23
    3380:	60 93 d7 04 	sts	0x04D7, r22
    3384:	81 2f       	mov	r24, r17
    3386:	0e 94 48 30 	call	0x6090	; 0x6090 <_ZN10W5100Class11writeSnPORTEhj>
    338a:	41 e0       	ldi	r20, 0x01	; 1
    338c:	61 2f       	mov	r22, r17
    338e:	89 ed       	ldi	r24, 0xD9	; 217
    3390:	94 e0       	ldi	r25, 0x04	; 4
    3392:	0e 94 a1 1e 	call	0x3d42	; 0x3d42 <_ZN10W5100Class9execCmdSnEh7SockCMD>
    3396:	81 e0       	ldi	r24, 0x01	; 1
    3398:	01 c0       	rjmp	.+2      	; 0x339c <_Z6sockethhjh+0x70>
    339a:	80 e0       	ldi	r24, 0x00	; 0
    339c:	0f 90       	pop	r0
    339e:	0f 90       	pop	r0
    33a0:	df 91       	pop	r29
    33a2:	cf 91       	pop	r28
    33a4:	1f 91       	pop	r17
    33a6:	ff 90       	pop	r15
    33a8:	ef 90       	pop	r14
    33aa:	08 95       	ret

000033ac <_Z6listenh>:
    33ac:	cf 93       	push	r28
    33ae:	c8 2f       	mov	r28, r24
    33b0:	63 e0       	ldi	r22, 0x03	; 3
    33b2:	70 e0       	ldi	r23, 0x00	; 0
    33b4:	0e 94 0b 30 	call	0x6016	; 0x6016 <_ZN10W5100Class6readSnEhj>
    33b8:	83 31       	cpi	r24, 0x13	; 19
    33ba:	41 f4       	brne	.+16     	; 0x33cc <_Z6listenh+0x20>
    33bc:	42 e0       	ldi	r20, 0x02	; 2
    33be:	6c 2f       	mov	r22, r28
    33c0:	89 ed       	ldi	r24, 0xD9	; 217
    33c2:	94 e0       	ldi	r25, 0x04	; 4
    33c4:	0e 94 a1 1e 	call	0x3d42	; 0x3d42 <_ZN10W5100Class9execCmdSnEh7SockCMD>
    33c8:	81 e0       	ldi	r24, 0x01	; 1
    33ca:	01 c0       	rjmp	.+2      	; 0x33ce <_Z6listenh+0x22>
    33cc:	80 e0       	ldi	r24, 0x00	; 0
    33ce:	cf 91       	pop	r28
    33d0:	08 95       	ret

000033d2 <_Z7connecthPhj>:
    33d2:	1f 93       	push	r17
    33d4:	cf 93       	push	r28
    33d6:	df 93       	push	r29
    33d8:	18 2f       	mov	r17, r24
    33da:	fb 01       	movw	r30, r22
    33dc:	ea 01       	movw	r28, r20
    33de:	80 81       	ld	r24, Z
    33e0:	8f 3f       	cpi	r24, 0xFF	; 255
    33e2:	51 f4       	brne	.+20     	; 0x33f8 <_Z7connecthPhj+0x26>
    33e4:	81 81       	ldd	r24, Z+1	; 0x01
    33e6:	8f 3f       	cpi	r24, 0xFF	; 255
    33e8:	91 f4       	brne	.+36     	; 0x340e <_Z7connecthPhj+0x3c>
    33ea:	82 81       	ldd	r24, Z+2	; 0x02
    33ec:	8f 3f       	cpi	r24, 0xFF	; 255
    33ee:	79 f4       	brne	.+30     	; 0x340e <_Z7connecthPhj+0x3c>
    33f0:	83 81       	ldd	r24, Z+3	; 0x03
    33f2:	8f 3f       	cpi	r24, 0xFF	; 255
    33f4:	61 f4       	brne	.+24     	; 0x340e <_Z7connecthPhj+0x3c>
    33f6:	1d c0       	rjmp	.+58     	; 0x3432 <_Z7connecthPhj+0x60>
    33f8:	81 11       	cpse	r24, r1
    33fa:	09 c0       	rjmp	.+18     	; 0x340e <_Z7connecthPhj+0x3c>
    33fc:	81 81       	ldd	r24, Z+1	; 0x01
    33fe:	81 11       	cpse	r24, r1
    3400:	06 c0       	rjmp	.+12     	; 0x340e <_Z7connecthPhj+0x3c>
    3402:	82 81       	ldd	r24, Z+2	; 0x02
    3404:	81 11       	cpse	r24, r1
    3406:	03 c0       	rjmp	.+6      	; 0x340e <_Z7connecthPhj+0x3c>
    3408:	83 81       	ldd	r24, Z+3	; 0x03
    340a:	88 23       	and	r24, r24
    340c:	91 f0       	breq	.+36     	; 0x3432 <_Z7connecthPhj+0x60>
    340e:	20 97       	sbiw	r28, 0x00	; 0
    3410:	81 f0       	breq	.+32     	; 0x3432 <_Z7connecthPhj+0x60>
    3412:	bf 01       	movw	r22, r30
    3414:	81 2f       	mov	r24, r17
    3416:	0e 94 02 30 	call	0x6004	; 0x6004 <_ZN10W5100Class11writeSnDIPREhPh>
    341a:	be 01       	movw	r22, r28
    341c:	81 2f       	mov	r24, r17
    341e:	0e 94 26 30 	call	0x604c	; 0x604c <_ZN10W5100Class12writeSnDPORTEhj>
    3422:	44 e0       	ldi	r20, 0x04	; 4
    3424:	61 2f       	mov	r22, r17
    3426:	89 ed       	ldi	r24, 0xD9	; 217
    3428:	94 e0       	ldi	r25, 0x04	; 4
    342a:	0e 94 a1 1e 	call	0x3d42	; 0x3d42 <_ZN10W5100Class9execCmdSnEh7SockCMD>
    342e:	81 e0       	ldi	r24, 0x01	; 1
    3430:	01 c0       	rjmp	.+2      	; 0x3434 <_Z7connecthPhj+0x62>
    3432:	80 e0       	ldi	r24, 0x00	; 0
    3434:	df 91       	pop	r29
    3436:	cf 91       	pop	r28
    3438:	1f 91       	pop	r17
    343a:	08 95       	ret

0000343c <_Z10disconnecth>:
    343c:	48 e0       	ldi	r20, 0x08	; 8
    343e:	68 2f       	mov	r22, r24
    3440:	89 ed       	ldi	r24, 0xD9	; 217
    3442:	94 e0       	ldi	r25, 0x04	; 4
    3444:	0c 94 a1 1e 	jmp	0x3d42	; 0x3d42 <_ZN10W5100Class9execCmdSnEh7SockCMD>

00003448 <_Z4sendhPKhj>:
    3448:	df 92       	push	r13
    344a:	ef 92       	push	r14
    344c:	ff 92       	push	r15
    344e:	0f 93       	push	r16
    3450:	1f 93       	push	r17
    3452:	cf 93       	push	r28
    3454:	df 93       	push	r29
    3456:	d8 2e       	mov	r13, r24
    3458:	8b 01       	movw	r16, r22
    345a:	ea 01       	movw	r28, r20
    345c:	41 30       	cpi	r20, 0x01	; 1
    345e:	88 e0       	ldi	r24, 0x08	; 8
    3460:	58 07       	cpc	r21, r24
    3462:	10 f0       	brcs	.+4      	; 0x3468 <_Z4sendhPKhj+0x20>
    3464:	c0 e0       	ldi	r28, 0x00	; 0
    3466:	d8 e0       	ldi	r29, 0x08	; 8
    3468:	6d 2d       	mov	r22, r13
    346a:	89 ed       	ldi	r24, 0xD9	; 217
    346c:	94 e0       	ldi	r25, 0x04	; 4
    346e:	0e 94 c9 1d 	call	0x3b92	; 0x3b92 <_ZN10W5100Class13getTXFreeSizeEh>
    3472:	7c 01       	movw	r14, r24
    3474:	63 e0       	ldi	r22, 0x03	; 3
    3476:	70 e0       	ldi	r23, 0x00	; 0
    3478:	8d 2d       	mov	r24, r13
    347a:	0e 94 0b 30 	call	0x6016	; 0x6016 <_ZN10W5100Class6readSnEhj>
    347e:	87 31       	cpi	r24, 0x17	; 23
    3480:	11 f0       	breq	.+4      	; 0x3486 <_Z4sendhPKhj+0x3e>
    3482:	8c 31       	cpi	r24, 0x1C	; 28
    3484:	21 f4       	brne	.+8      	; 0x348e <_Z4sendhPKhj+0x46>
    3486:	ec 16       	cp	r14, r28
    3488:	fd 06       	cpc	r15, r29
    348a:	70 f3       	brcs	.-36     	; 0x3468 <_Z4sendhPKhj+0x20>
    348c:	02 c0       	rjmp	.+4      	; 0x3492 <_Z4sendhPKhj+0x4a>
    348e:	c0 e0       	ldi	r28, 0x00	; 0
    3490:	d0 e0       	ldi	r29, 0x00	; 0
    3492:	9e 01       	movw	r18, r28
    3494:	a8 01       	movw	r20, r16
    3496:	6d 2d       	mov	r22, r13
    3498:	89 ed       	ldi	r24, 0xD9	; 217
    349a:	94 e0       	ldi	r25, 0x04	; 4
    349c:	0e 94 a2 1d 	call	0x3b44	; 0x3b44 <_ZN10W5100Class20send_data_processingEhPKhj>
    34a0:	40 e2       	ldi	r20, 0x20	; 32
    34a2:	6d 2d       	mov	r22, r13
    34a4:	89 ed       	ldi	r24, 0xD9	; 217
    34a6:	94 e0       	ldi	r25, 0x04	; 4
    34a8:	0e 94 a1 1e 	call	0x3d42	; 0x3d42 <_ZN10W5100Class9execCmdSnEh7SockCMD>
    34ac:	0d c0       	rjmp	.+26     	; 0x34c8 <_Z4sendhPKhj+0x80>
    34ae:	63 e0       	ldi	r22, 0x03	; 3
    34b0:	70 e0       	ldi	r23, 0x00	; 0
    34b2:	8d 2d       	mov	r24, r13
    34b4:	0e 94 0b 30 	call	0x6016	; 0x6016 <_ZN10W5100Class6readSnEhj>
    34b8:	81 11       	cpse	r24, r1
    34ba:	06 c0       	rjmp	.+12     	; 0x34c8 <_Z4sendhPKhj+0x80>
    34bc:	8d 2d       	mov	r24, r13
    34be:	0e 94 89 19 	call	0x3312	; 0x3312 <_Z5closeh>
    34c2:	c0 e0       	ldi	r28, 0x00	; 0
    34c4:	d0 e0       	ldi	r29, 0x00	; 0
    34c6:	09 c0       	rjmp	.+18     	; 0x34da <_Z4sendhPKhj+0x92>
    34c8:	8d 2d       	mov	r24, r13
    34ca:	0e 94 13 30 	call	0x6026	; 0x6026 <_ZN10W5100Class8readSnIREh>
    34ce:	84 ff       	sbrs	r24, 4
    34d0:	ee cf       	rjmp	.-36     	; 0x34ae <_Z4sendhPKhj+0x66>
    34d2:	60 e1       	ldi	r22, 0x10	; 16
    34d4:	8d 2d       	mov	r24, r13
    34d6:	0e 94 21 30 	call	0x6042	; 0x6042 <_ZN10W5100Class9writeSnIREhh>
    34da:	ce 01       	movw	r24, r28
    34dc:	df 91       	pop	r29
    34de:	cf 91       	pop	r28
    34e0:	1f 91       	pop	r17
    34e2:	0f 91       	pop	r16
    34e4:	ff 90       	pop	r15
    34e6:	ef 90       	pop	r14
    34e8:	df 90       	pop	r13
    34ea:	08 95       	ret

000034ec <_Z4recvhPhi>:
    34ec:	df 92       	push	r13
    34ee:	ef 92       	push	r14
    34f0:	ff 92       	push	r15
    34f2:	0f 93       	push	r16
    34f4:	1f 93       	push	r17
    34f6:	cf 93       	push	r28
    34f8:	df 93       	push	r29
    34fa:	d8 2e       	mov	r13, r24
    34fc:	7b 01       	movw	r14, r22
    34fe:	8a 01       	movw	r16, r20
    3500:	68 2f       	mov	r22, r24
    3502:	89 ed       	ldi	r24, 0xD9	; 217
    3504:	94 e0       	ldi	r25, 0x04	; 4
    3506:	0e 94 ad 1d 	call	0x3b5a	; 0x3b5a <_ZN10W5100Class17getRXReceivedSizeEh>
    350a:	ec 01       	movw	r28, r24
    350c:	00 97       	sbiw	r24, 0x00	; 0
    350e:	71 f4       	brne	.+28     	; 0x352c <_Z4recvhPhi+0x40>
    3510:	63 e0       	ldi	r22, 0x03	; 3
    3512:	70 e0       	ldi	r23, 0x00	; 0
    3514:	8d 2d       	mov	r24, r13
    3516:	0e 94 0b 30 	call	0x6016	; 0x6016 <_ZN10W5100Class6readSnEhj>
    351a:	84 31       	cpi	r24, 0x14	; 20
    351c:	e1 f0       	breq	.+56     	; 0x3556 <_Z4recvhPhi+0x6a>
    351e:	88 23       	and	r24, r24
    3520:	d1 f0       	breq	.+52     	; 0x3556 <_Z4recvhPhi+0x6a>
    3522:	8c 31       	cpi	r24, 0x1C	; 28
    3524:	c1 f0       	breq	.+48     	; 0x3556 <_Z4recvhPhi+0x6a>
    3526:	cf ef       	ldi	r28, 0xFF	; 255
    3528:	df ef       	ldi	r29, 0xFF	; 255
    352a:	15 c0       	rjmp	.+42     	; 0x3556 <_Z4recvhPhi+0x6a>
    352c:	08 17       	cp	r16, r24
    352e:	19 07       	cpc	r17, r25
    3530:	0c f4       	brge	.+2      	; 0x3534 <_Z4recvhPhi+0x48>
    3532:	e8 01       	movw	r28, r16
    3534:	1c 16       	cp	r1, r28
    3536:	1d 06       	cpc	r1, r29
    3538:	74 f4       	brge	.+28     	; 0x3556 <_Z4recvhPhi+0x6a>
    353a:	00 e0       	ldi	r16, 0x00	; 0
    353c:	9e 01       	movw	r18, r28
    353e:	a7 01       	movw	r20, r14
    3540:	6d 2d       	mov	r22, r13
    3542:	89 ed       	ldi	r24, 0xD9	; 217
    3544:	94 e0       	ldi	r25, 0x04	; 4
    3546:	0e 94 51 1e 	call	0x3ca2	; 0x3ca2 <_ZN10W5100Class20recv_data_processingEhPhjh>
    354a:	40 e4       	ldi	r20, 0x40	; 64
    354c:	6d 2d       	mov	r22, r13
    354e:	89 ed       	ldi	r24, 0xD9	; 217
    3550:	94 e0       	ldi	r25, 0x04	; 4
    3552:	0e 94 a1 1e 	call	0x3d42	; 0x3d42 <_ZN10W5100Class9execCmdSnEh7SockCMD>
    3556:	ce 01       	movw	r24, r28
    3558:	df 91       	pop	r29
    355a:	cf 91       	pop	r28
    355c:	1f 91       	pop	r17
    355e:	0f 91       	pop	r16
    3560:	ff 90       	pop	r15
    3562:	ef 90       	pop	r14
    3564:	df 90       	pop	r13
    3566:	08 95       	ret

00003568 <_Z4peekhPh>:
    3568:	0f 93       	push	r16
    356a:	ab 01       	movw	r20, r22
    356c:	01 e0       	ldi	r16, 0x01	; 1
    356e:	21 e0       	ldi	r18, 0x01	; 1
    3570:	30 e0       	ldi	r19, 0x00	; 0
    3572:	68 2f       	mov	r22, r24
    3574:	89 ed       	ldi	r24, 0xD9	; 217
    3576:	94 e0       	ldi	r25, 0x04	; 4
    3578:	0e 94 51 1e 	call	0x3ca2	; 0x3ca2 <_ZN10W5100Class20recv_data_processingEhPhjh>
    357c:	81 e0       	ldi	r24, 0x01	; 1
    357e:	90 e0       	ldi	r25, 0x00	; 0
    3580:	0f 91       	pop	r16
    3582:	08 95       	ret

00003584 <_Z6sendtohPKhjPhj>:
    3584:	df 92       	push	r13
    3586:	ef 92       	push	r14
    3588:	ff 92       	push	r15
    358a:	0f 93       	push	r16
    358c:	1f 93       	push	r17
    358e:	cf 93       	push	r28
    3590:	df 93       	push	r29
    3592:	d8 2e       	mov	r13, r24
    3594:	7b 01       	movw	r14, r22
    3596:	f9 01       	movw	r30, r18
    3598:	80 81       	ld	r24, Z
    359a:	81 11       	cpse	r24, r1
    359c:	09 c0       	rjmp	.+18     	; 0x35b0 <_Z6sendtohPKhjPhj+0x2c>
    359e:	81 81       	ldd	r24, Z+1	; 0x01
    35a0:	81 11       	cpse	r24, r1
    35a2:	06 c0       	rjmp	.+12     	; 0x35b0 <_Z6sendtohPKhjPhj+0x2c>
    35a4:	82 81       	ldd	r24, Z+2	; 0x02
    35a6:	81 11       	cpse	r24, r1
    35a8:	03 c0       	rjmp	.+6      	; 0x35b0 <_Z6sendtohPKhjPhj+0x2c>
    35aa:	83 81       	ldd	r24, Z+3	; 0x03
    35ac:	88 23       	and	r24, r24
    35ae:	b1 f1       	breq	.+108    	; 0x361c <_Z6sendtohPKhjPhj+0x98>
    35b0:	01 15       	cp	r16, r1
    35b2:	11 05       	cpc	r17, r1
    35b4:	99 f1       	breq	.+102    	; 0x361c <_Z6sendtohPKhjPhj+0x98>
    35b6:	ea 01       	movw	r28, r20
    35b8:	41 30       	cpi	r20, 0x01	; 1
    35ba:	88 e0       	ldi	r24, 0x08	; 8
    35bc:	58 07       	cpc	r21, r24
    35be:	10 f0       	brcs	.+4      	; 0x35c4 <_Z6sendtohPKhjPhj+0x40>
    35c0:	c0 e0       	ldi	r28, 0x00	; 0
    35c2:	d8 e0       	ldi	r29, 0x08	; 8
    35c4:	20 97       	sbiw	r28, 0x00	; 0
    35c6:	61 f1       	breq	.+88     	; 0x3620 <_Z6sendtohPKhjPhj+0x9c>
    35c8:	bf 01       	movw	r22, r30
    35ca:	8d 2d       	mov	r24, r13
    35cc:	0e 94 02 30 	call	0x6004	; 0x6004 <_ZN10W5100Class11writeSnDIPREhPh>
    35d0:	b8 01       	movw	r22, r16
    35d2:	8d 2d       	mov	r24, r13
    35d4:	0e 94 26 30 	call	0x604c	; 0x604c <_ZN10W5100Class12writeSnDPORTEhj>
    35d8:	9e 01       	movw	r18, r28
    35da:	a7 01       	movw	r20, r14
    35dc:	6d 2d       	mov	r22, r13
    35de:	89 ed       	ldi	r24, 0xD9	; 217
    35e0:	94 e0       	ldi	r25, 0x04	; 4
    35e2:	0e 94 a2 1d 	call	0x3b44	; 0x3b44 <_ZN10W5100Class20send_data_processingEhPKhj>
    35e6:	40 e2       	ldi	r20, 0x20	; 32
    35e8:	6d 2d       	mov	r22, r13
    35ea:	89 ed       	ldi	r24, 0xD9	; 217
    35ec:	94 e0       	ldi	r25, 0x04	; 4
    35ee:	0e 94 a1 1e 	call	0x3d42	; 0x3d42 <_ZN10W5100Class9execCmdSnEh7SockCMD>
    35f2:	0a c0       	rjmp	.+20     	; 0x3608 <_Z6sendtohPKhjPhj+0x84>
    35f4:	8d 2d       	mov	r24, r13
    35f6:	0e 94 13 30 	call	0x6026	; 0x6026 <_ZN10W5100Class8readSnIREh>
    35fa:	83 ff       	sbrs	r24, 3
    35fc:	05 c0       	rjmp	.+10     	; 0x3608 <_Z6sendtohPKhjPhj+0x84>
    35fe:	68 e1       	ldi	r22, 0x18	; 24
    3600:	8d 2d       	mov	r24, r13
    3602:	0e 94 21 30 	call	0x6042	; 0x6042 <_ZN10W5100Class9writeSnIREhh>
    3606:	0a c0       	rjmp	.+20     	; 0x361c <_Z6sendtohPKhjPhj+0x98>
    3608:	8d 2d       	mov	r24, r13
    360a:	0e 94 13 30 	call	0x6026	; 0x6026 <_ZN10W5100Class8readSnIREh>
    360e:	84 ff       	sbrs	r24, 4
    3610:	f1 cf       	rjmp	.-30     	; 0x35f4 <_Z6sendtohPKhjPhj+0x70>
    3612:	60 e1       	ldi	r22, 0x10	; 16
    3614:	8d 2d       	mov	r24, r13
    3616:	0e 94 21 30 	call	0x6042	; 0x6042 <_ZN10W5100Class9writeSnIREhh>
    361a:	02 c0       	rjmp	.+4      	; 0x3620 <_Z6sendtohPKhjPhj+0x9c>
    361c:	c0 e0       	ldi	r28, 0x00	; 0
    361e:	d0 e0       	ldi	r29, 0x00	; 0
    3620:	ce 01       	movw	r24, r28
    3622:	df 91       	pop	r29
    3624:	cf 91       	pop	r28
    3626:	1f 91       	pop	r17
    3628:	0f 91       	pop	r16
    362a:	ff 90       	pop	r15
    362c:	ef 90       	pop	r14
    362e:	df 90       	pop	r13
    3630:	08 95       	ret

00003632 <_Z8recvfromhPhjS_Pj>:
    3632:	7f 92       	push	r7
    3634:	8f 92       	push	r8
    3636:	9f 92       	push	r9
    3638:	af 92       	push	r10
    363a:	bf 92       	push	r11
    363c:	cf 92       	push	r12
    363e:	df 92       	push	r13
    3640:	ef 92       	push	r14
    3642:	ff 92       	push	r15
    3644:	0f 93       	push	r16
    3646:	1f 93       	push	r17
    3648:	cf 93       	push	r28
    364a:	df 93       	push	r29
    364c:	cd b7       	in	r28, 0x3d	; 61
    364e:	de b7       	in	r29, 0x3e	; 62
    3650:	28 97       	sbiw	r28, 0x08	; 8
    3652:	0f b6       	in	r0, 0x3f	; 63
    3654:	f8 94       	cli
    3656:	de bf       	out	0x3e, r29	; 62
    3658:	0f be       	out	0x3f, r0	; 63
    365a:	cd bf       	out	0x3d, r28	; 61
    365c:	78 2e       	mov	r7, r24
    365e:	5b 01       	movw	r10, r22
    3660:	79 01       	movw	r14, r18
    3662:	48 01       	movw	r8, r16
    3664:	45 2b       	or	r20, r21
    3666:	09 f4       	brne	.+2      	; 0x366a <_Z8recvfromhPhjS_Pj+0x38>
    3668:	8a c0       	rjmp	.+276    	; 0x377e <_Z8recvfromhPhjS_Pj+0x14c>
    366a:	68 e2       	ldi	r22, 0x28	; 40
    366c:	70 e0       	ldi	r23, 0x00	; 0
    366e:	0e 94 0b 30 	call	0x6016	; 0x6016 <_ZN10W5100Class6readSnEhj>
    3672:	18 2f       	mov	r17, r24
    3674:	69 e2       	ldi	r22, 0x29	; 41
    3676:	70 e0       	ldi	r23, 0x00	; 0
    3678:	87 2d       	mov	r24, r7
    367a:	0e 94 0b 30 	call	0x6016	; 0x6016 <_ZN10W5100Class6readSnEhj>
    367e:	d1 2e       	mov	r13, r17
    3680:	c1 2c       	mov	r12, r1
    3682:	c8 2a       	or	r12, r24
    3684:	60 e0       	ldi	r22, 0x00	; 0
    3686:	70 e0       	ldi	r23, 0x00	; 0
    3688:	87 2d       	mov	r24, r7
    368a:	0e 94 0b 30 	call	0x6016	; 0x6016 <_ZN10W5100Class6readSnEhj>
    368e:	87 70       	andi	r24, 0x07	; 7
    3690:	83 30       	cpi	r24, 0x03	; 3
    3692:	49 f1       	breq	.+82     	; 0x36e6 <_Z8recvfromhPhjS_Pj+0xb4>
    3694:	84 30       	cpi	r24, 0x04	; 4
    3696:	09 f4       	brne	.+2      	; 0x369a <_Z8recvfromhPhjS_Pj+0x68>
    3698:	43 c0       	rjmp	.+134    	; 0x3720 <_Z8recvfromhPhjS_Pj+0xee>
    369a:	82 30       	cpi	r24, 0x02	; 2
    369c:	09 f0       	breq	.+2      	; 0x36a0 <_Z8recvfromhPhjS_Pj+0x6e>
    369e:	66 c0       	rjmp	.+204    	; 0x376c <_Z8recvfromhPhjS_Pj+0x13a>
    36a0:	08 e0       	ldi	r16, 0x08	; 8
    36a2:	10 e0       	ldi	r17, 0x00	; 0
    36a4:	9e 01       	movw	r18, r28
    36a6:	2f 5f       	subi	r18, 0xFF	; 255
    36a8:	3f 4f       	sbci	r19, 0xFF	; 255
    36aa:	a6 01       	movw	r20, r12
    36ac:	67 2d       	mov	r22, r7
    36ae:	89 ed       	ldi	r24, 0xD9	; 217
    36b0:	94 e0       	ldi	r25, 0x04	; 4
    36b2:	0e 94 15 1e 	call	0x3c2a	; 0x3c2a <_ZN10W5100Class9read_dataEhPVhS1_j>
    36b6:	88 e0       	ldi	r24, 0x08	; 8
    36b8:	c8 0e       	add	r12, r24
    36ba:	d1 1c       	adc	r13, r1
    36bc:	89 81       	ldd	r24, Y+1	; 0x01
    36be:	f7 01       	movw	r30, r14
    36c0:	80 83       	st	Z, r24
    36c2:	8a 81       	ldd	r24, Y+2	; 0x02
    36c4:	81 83       	std	Z+1, r24	; 0x01
    36c6:	8b 81       	ldd	r24, Y+3	; 0x03
    36c8:	82 83       	std	Z+2, r24	; 0x02
    36ca:	8c 81       	ldd	r24, Y+4	; 0x04
    36cc:	83 83       	std	Z+3, r24	; 0x03
    36ce:	3d 81       	ldd	r19, Y+5	; 0x05
    36d0:	20 e0       	ldi	r18, 0x00	; 0
    36d2:	8e 81       	ldd	r24, Y+6	; 0x06
    36d4:	28 0f       	add	r18, r24
    36d6:	31 1d       	adc	r19, r1
    36d8:	f4 01       	movw	r30, r8
    36da:	31 83       	std	Z+1, r19	; 0x01
    36dc:	20 83       	st	Z, r18
    36de:	ff 80       	ldd	r15, Y+7	; 0x07
    36e0:	e1 2c       	mov	r14, r1
    36e2:	88 85       	ldd	r24, Y+8	; 0x08
    36e4:	1a c0       	rjmp	.+52     	; 0x371a <_Z8recvfromhPhjS_Pj+0xe8>
    36e6:	06 e0       	ldi	r16, 0x06	; 6
    36e8:	10 e0       	ldi	r17, 0x00	; 0
    36ea:	9e 01       	movw	r18, r28
    36ec:	2f 5f       	subi	r18, 0xFF	; 255
    36ee:	3f 4f       	sbci	r19, 0xFF	; 255
    36f0:	a6 01       	movw	r20, r12
    36f2:	67 2d       	mov	r22, r7
    36f4:	89 ed       	ldi	r24, 0xD9	; 217
    36f6:	94 e0       	ldi	r25, 0x04	; 4
    36f8:	0e 94 15 1e 	call	0x3c2a	; 0x3c2a <_ZN10W5100Class9read_dataEhPVhS1_j>
    36fc:	f6 e0       	ldi	r31, 0x06	; 6
    36fe:	cf 0e       	add	r12, r31
    3700:	d1 1c       	adc	r13, r1
    3702:	89 81       	ldd	r24, Y+1	; 0x01
    3704:	f7 01       	movw	r30, r14
    3706:	80 83       	st	Z, r24
    3708:	8a 81       	ldd	r24, Y+2	; 0x02
    370a:	81 83       	std	Z+1, r24	; 0x01
    370c:	8b 81       	ldd	r24, Y+3	; 0x03
    370e:	82 83       	std	Z+2, r24	; 0x02
    3710:	8c 81       	ldd	r24, Y+4	; 0x04
    3712:	83 83       	std	Z+3, r24	; 0x03
    3714:	fd 80       	ldd	r15, Y+5	; 0x05
    3716:	e1 2c       	mov	r14, r1
    3718:	8e 81       	ldd	r24, Y+6	; 0x06
    371a:	e8 0e       	add	r14, r24
    371c:	f1 1c       	adc	r15, r1
    371e:	17 c0       	rjmp	.+46     	; 0x374e <_Z8recvfromhPhjS_Pj+0x11c>
    3720:	02 e0       	ldi	r16, 0x02	; 2
    3722:	10 e0       	ldi	r17, 0x00	; 0
    3724:	9e 01       	movw	r18, r28
    3726:	2f 5f       	subi	r18, 0xFF	; 255
    3728:	3f 4f       	sbci	r19, 0xFF	; 255
    372a:	a6 01       	movw	r20, r12
    372c:	67 2d       	mov	r22, r7
    372e:	89 ed       	ldi	r24, 0xD9	; 217
    3730:	94 e0       	ldi	r25, 0x04	; 4
    3732:	0e 94 15 1e 	call	0x3c2a	; 0x3c2a <_ZN10W5100Class9read_dataEhPVhS1_j>
    3736:	f2 e0       	ldi	r31, 0x02	; 2
    3738:	cf 0e       	add	r12, r31
    373a:	d1 1c       	adc	r13, r1
    373c:	39 81       	ldd	r19, Y+1	; 0x01
    373e:	20 e0       	ldi	r18, 0x00	; 0
    3740:	ea 80       	ldd	r14, Y+2	; 0x02
    3742:	f1 2c       	mov	r15, r1
    3744:	82 e0       	ldi	r24, 0x02	; 2
    3746:	e8 1a       	sub	r14, r24
    3748:	f1 08       	sbc	r15, r1
    374a:	e2 0e       	add	r14, r18
    374c:	f3 1e       	adc	r15, r19
    374e:	87 01       	movw	r16, r14
    3750:	95 01       	movw	r18, r10
    3752:	a6 01       	movw	r20, r12
    3754:	67 2d       	mov	r22, r7
    3756:	89 ed       	ldi	r24, 0xD9	; 217
    3758:	94 e0       	ldi	r25, 0x04	; 4
    375a:	0e 94 15 1e 	call	0x3c2a	; 0x3c2a <_ZN10W5100Class9read_dataEhPVhS1_j>
    375e:	b6 01       	movw	r22, r12
    3760:	6e 0d       	add	r22, r14
    3762:	7f 1d       	adc	r23, r15
    3764:	87 2d       	mov	r24, r7
    3766:	0e 94 37 30 	call	0x606e	; 0x606e <_ZN10W5100Class12writeSnRX_RDEhj>
    376a:	02 c0       	rjmp	.+4      	; 0x3770 <_Z8recvfromhPhjS_Pj+0x13e>
    376c:	e1 2c       	mov	r14, r1
    376e:	f1 2c       	mov	r15, r1
    3770:	40 e4       	ldi	r20, 0x40	; 64
    3772:	67 2d       	mov	r22, r7
    3774:	89 ed       	ldi	r24, 0xD9	; 217
    3776:	94 e0       	ldi	r25, 0x04	; 4
    3778:	0e 94 a1 1e 	call	0x3d42	; 0x3d42 <_ZN10W5100Class9execCmdSnEh7SockCMD>
    377c:	02 c0       	rjmp	.+4      	; 0x3782 <_Z8recvfromhPhjS_Pj+0x150>
    377e:	e1 2c       	mov	r14, r1
    3780:	f1 2c       	mov	r15, r1
    3782:	c7 01       	movw	r24, r14
    3784:	28 96       	adiw	r28, 0x08	; 8
    3786:	0f b6       	in	r0, 0x3f	; 63
    3788:	f8 94       	cli
    378a:	de bf       	out	0x3e, r29	; 62
    378c:	0f be       	out	0x3f, r0	; 63
    378e:	cd bf       	out	0x3d, r28	; 61
    3790:	df 91       	pop	r29
    3792:	cf 91       	pop	r28
    3794:	1f 91       	pop	r17
    3796:	0f 91       	pop	r16
    3798:	ff 90       	pop	r15
    379a:	ef 90       	pop	r14
    379c:	df 90       	pop	r13
    379e:	cf 90       	pop	r12
    37a0:	bf 90       	pop	r11
    37a2:	af 90       	pop	r10
    37a4:	9f 90       	pop	r9
    37a6:	8f 90       	pop	r8
    37a8:	7f 90       	pop	r7
    37aa:	08 95       	ret

000037ac <_Z8igmpsendhPKhj>:
    37ac:	1f 93       	push	r17
    37ae:	cf 93       	push	r28
    37b0:	df 93       	push	r29
    37b2:	18 2f       	mov	r17, r24
    37b4:	41 30       	cpi	r20, 0x01	; 1
    37b6:	88 e0       	ldi	r24, 0x08	; 8
    37b8:	58 07       	cpc	r21, r24
    37ba:	28 f4       	brcc	.+10     	; 0x37c6 <_Z8igmpsendhPKhj+0x1a>
    37bc:	41 15       	cp	r20, r1
    37be:	51 05       	cpc	r21, r1
    37c0:	51 f1       	breq	.+84     	; 0x3816 <_Z8igmpsendhPKhj+0x6a>
    37c2:	ea 01       	movw	r28, r20
    37c4:	02 c0       	rjmp	.+4      	; 0x37ca <_Z8igmpsendhPKhj+0x1e>
    37c6:	c0 e0       	ldi	r28, 0x00	; 0
    37c8:	d8 e0       	ldi	r29, 0x08	; 8
    37ca:	9e 01       	movw	r18, r28
    37cc:	ab 01       	movw	r20, r22
    37ce:	61 2f       	mov	r22, r17
    37d0:	89 ed       	ldi	r24, 0xD9	; 217
    37d2:	94 e0       	ldi	r25, 0x04	; 4
    37d4:	0e 94 a2 1d 	call	0x3b44	; 0x3b44 <_ZN10W5100Class20send_data_processingEhPKhj>
    37d8:	40 e2       	ldi	r20, 0x20	; 32
    37da:	61 2f       	mov	r22, r17
    37dc:	89 ed       	ldi	r24, 0xD9	; 217
    37de:	94 e0       	ldi	r25, 0x04	; 4
    37e0:	0e 94 a1 1e 	call	0x3d42	; 0x3d42 <_ZN10W5100Class9execCmdSnEh7SockCMD>
    37e4:	0e c0       	rjmp	.+28     	; 0x3802 <_Z8igmpsendhPKhj+0x56>
    37e6:	63 e0       	ldi	r22, 0x03	; 3
    37e8:	70 e0       	ldi	r23, 0x00	; 0
    37ea:	81 2f       	mov	r24, r17
    37ec:	0e 94 0b 30 	call	0x6016	; 0x6016 <_ZN10W5100Class6readSnEhj>
    37f0:	81 2f       	mov	r24, r17
    37f2:	0e 94 13 30 	call	0x6026	; 0x6026 <_ZN10W5100Class8readSnIREh>
    37f6:	83 ff       	sbrs	r24, 3
    37f8:	04 c0       	rjmp	.+8      	; 0x3802 <_Z8igmpsendhPKhj+0x56>
    37fa:	81 2f       	mov	r24, r17
    37fc:	0e 94 89 19 	call	0x3312	; 0x3312 <_Z5closeh>
    3800:	0a c0       	rjmp	.+20     	; 0x3816 <_Z8igmpsendhPKhj+0x6a>
    3802:	81 2f       	mov	r24, r17
    3804:	0e 94 13 30 	call	0x6026	; 0x6026 <_ZN10W5100Class8readSnIREh>
    3808:	84 ff       	sbrs	r24, 4
    380a:	ed cf       	rjmp	.-38     	; 0x37e6 <_Z8igmpsendhPKhj+0x3a>
    380c:	60 e1       	ldi	r22, 0x10	; 16
    380e:	81 2f       	mov	r24, r17
    3810:	0e 94 21 30 	call	0x6042	; 0x6042 <_ZN10W5100Class9writeSnIREhh>
    3814:	02 c0       	rjmp	.+4      	; 0x381a <_Z8igmpsendhPKhj+0x6e>
    3816:	c0 e0       	ldi	r28, 0x00	; 0
    3818:	d0 e0       	ldi	r29, 0x00	; 0
    381a:	ce 01       	movw	r24, r28
    381c:	df 91       	pop	r29
    381e:	cf 91       	pop	r28
    3820:	1f 91       	pop	r17
    3822:	08 95       	ret

00003824 <_Z10bufferDatahjPKhj>:
    3824:	af 92       	push	r10
    3826:	bf 92       	push	r11
    3828:	cf 92       	push	r12
    382a:	df 92       	push	r13
    382c:	ef 92       	push	r14
    382e:	ff 92       	push	r15
    3830:	0f 93       	push	r16
    3832:	1f 93       	push	r17
    3834:	cf 93       	push	r28
    3836:	df 93       	push	r29
    3838:	b8 2e       	mov	r11, r24
    383a:	7b 01       	movw	r14, r22
    383c:	6a 01       	movw	r12, r20
    383e:	e9 01       	movw	r28, r18
    3840:	68 2f       	mov	r22, r24
    3842:	89 ed       	ldi	r24, 0xD9	; 217
    3844:	94 e0       	ldi	r25, 0x04	; 4
    3846:	0e 94 c9 1d 	call	0x3b92	; 0x3b92 <_ZN10W5100Class13getTXFreeSizeEh>
    384a:	8c 17       	cp	r24, r28
    384c:	9d 07       	cpc	r25, r29
    384e:	40 f4       	brcc	.+16     	; 0x3860 <_Z10bufferDatahjPKhj+0x3c>
    3850:	6b 2d       	mov	r22, r11
    3852:	89 ed       	ldi	r24, 0xD9	; 217
    3854:	94 e0       	ldi	r25, 0x04	; 4
    3856:	0e 94 c9 1d 	call	0x3b92	; 0x3b92 <_ZN10W5100Class13getTXFreeSizeEh>
    385a:	a8 2e       	mov	r10, r24
    385c:	c9 2f       	mov	r28, r25
    385e:	02 c0       	rjmp	.+4      	; 0x3864 <_Z10bufferDatahjPKhj+0x40>
    3860:	ac 2e       	mov	r10, r28
    3862:	cd 2f       	mov	r28, r29
    3864:	0a 2d       	mov	r16, r10
    3866:	1c 2f       	mov	r17, r28
    3868:	96 01       	movw	r18, r12
    386a:	a7 01       	movw	r20, r14
    386c:	6b 2d       	mov	r22, r11
    386e:	89 ed       	ldi	r24, 0xD9	; 217
    3870:	94 e0       	ldi	r25, 0x04	; 4
    3872:	0e 94 40 1d 	call	0x3a80	; 0x3a80 <_ZN10W5100Class27send_data_processing_offsetEhjPKhj>
    3876:	8a 2d       	mov	r24, r10
    3878:	9c 2f       	mov	r25, r28
    387a:	df 91       	pop	r29
    387c:	cf 91       	pop	r28
    387e:	1f 91       	pop	r17
    3880:	0f 91       	pop	r16
    3882:	ff 90       	pop	r15
    3884:	ef 90       	pop	r14
    3886:	df 90       	pop	r13
    3888:	cf 90       	pop	r12
    388a:	bf 90       	pop	r11
    388c:	af 90       	pop	r10
    388e:	08 95       	ret

00003890 <_Z8startUDPhPhj>:
    3890:	1f 93       	push	r17
    3892:	cf 93       	push	r28
    3894:	df 93       	push	r29
    3896:	18 2f       	mov	r17, r24
    3898:	fb 01       	movw	r30, r22
    389a:	ea 01       	movw	r28, r20
    389c:	80 81       	ld	r24, Z
    389e:	81 11       	cpse	r24, r1
    38a0:	09 c0       	rjmp	.+18     	; 0x38b4 <_Z8startUDPhPhj+0x24>
    38a2:	81 81       	ldd	r24, Z+1	; 0x01
    38a4:	81 11       	cpse	r24, r1
    38a6:	06 c0       	rjmp	.+12     	; 0x38b4 <_Z8startUDPhPhj+0x24>
    38a8:	82 81       	ldd	r24, Z+2	; 0x02
    38aa:	81 11       	cpse	r24, r1
    38ac:	03 c0       	rjmp	.+6      	; 0x38b4 <_Z8startUDPhPhj+0x24>
    38ae:	83 81       	ldd	r24, Z+3	; 0x03
    38b0:	88 23       	and	r24, r24
    38b2:	69 f0       	breq	.+26     	; 0x38ce <_Z8startUDPhPhj+0x3e>
    38b4:	20 97       	sbiw	r28, 0x00	; 0
    38b6:	59 f0       	breq	.+22     	; 0x38ce <_Z8startUDPhPhj+0x3e>
    38b8:	bf 01       	movw	r22, r30
    38ba:	81 2f       	mov	r24, r17
    38bc:	0e 94 02 30 	call	0x6004	; 0x6004 <_ZN10W5100Class11writeSnDIPREhPh>
    38c0:	be 01       	movw	r22, r28
    38c2:	81 2f       	mov	r24, r17
    38c4:	0e 94 26 30 	call	0x604c	; 0x604c <_ZN10W5100Class12writeSnDPORTEhj>
    38c8:	21 e0       	ldi	r18, 0x01	; 1
    38ca:	30 e0       	ldi	r19, 0x00	; 0
    38cc:	02 c0       	rjmp	.+4      	; 0x38d2 <_Z8startUDPhPhj+0x42>
    38ce:	20 e0       	ldi	r18, 0x00	; 0
    38d0:	30 e0       	ldi	r19, 0x00	; 0
    38d2:	c9 01       	movw	r24, r18
    38d4:	df 91       	pop	r29
    38d6:	cf 91       	pop	r28
    38d8:	1f 91       	pop	r17
    38da:	08 95       	ret

000038dc <_Z7sendUDPh>:
    38dc:	cf 93       	push	r28
    38de:	c8 2f       	mov	r28, r24
    38e0:	40 e2       	ldi	r20, 0x20	; 32
    38e2:	68 2f       	mov	r22, r24
    38e4:	89 ed       	ldi	r24, 0xD9	; 217
    38e6:	94 e0       	ldi	r25, 0x04	; 4
    38e8:	0e 94 a1 1e 	call	0x3d42	; 0x3d42 <_ZN10W5100Class9execCmdSnEh7SockCMD>
    38ec:	0c c0       	rjmp	.+24     	; 0x3906 <_Z7sendUDPh+0x2a>
    38ee:	8c 2f       	mov	r24, r28
    38f0:	0e 94 13 30 	call	0x6026	; 0x6026 <_ZN10W5100Class8readSnIREh>
    38f4:	83 ff       	sbrs	r24, 3
    38f6:	07 c0       	rjmp	.+14     	; 0x3906 <_Z7sendUDPh+0x2a>
    38f8:	68 e1       	ldi	r22, 0x18	; 24
    38fa:	8c 2f       	mov	r24, r28
    38fc:	0e 94 21 30 	call	0x6042	; 0x6042 <_ZN10W5100Class9writeSnIREhh>
    3900:	20 e0       	ldi	r18, 0x00	; 0
    3902:	30 e0       	ldi	r19, 0x00	; 0
    3904:	0b c0       	rjmp	.+22     	; 0x391c <_Z7sendUDPh+0x40>
    3906:	8c 2f       	mov	r24, r28
    3908:	0e 94 13 30 	call	0x6026	; 0x6026 <_ZN10W5100Class8readSnIREh>
    390c:	84 ff       	sbrs	r24, 4
    390e:	ef cf       	rjmp	.-34     	; 0x38ee <_Z7sendUDPh+0x12>
    3910:	60 e1       	ldi	r22, 0x10	; 16
    3912:	8c 2f       	mov	r24, r28
    3914:	0e 94 21 30 	call	0x6042	; 0x6042 <_ZN10W5100Class9writeSnIREhh>
    3918:	21 e0       	ldi	r18, 0x01	; 1
    391a:	30 e0       	ldi	r19, 0x00	; 0
    391c:	c9 01       	movw	r24, r18
    391e:	cf 91       	pop	r28
    3920:	08 95       	ret

00003922 <_ZN10W5100Class5writeEjh>:
    3922:	1f 93       	push	r17
    3924:	cf 93       	push	r28
    3926:	df 93       	push	r29
    3928:	00 d0       	rcall	.+0      	; 0x392a <_ZN10W5100Class5writeEjh+0x8>
    392a:	cd b7       	in	r28, 0x3d	; 61
    392c:	de b7       	in	r29, 0x3e	; 62
    392e:	18 2f       	mov	r17, r24
    3930:	6a 83       	std	Y+2, r22	; 0x02
    3932:	99 83       	std	Y+1, r25	; 0x01
    3934:	0e 94 5f 30 	call	0x60be	; 0x60be <_ZN10W5100Class5setSSEv>
    3938:	80 ef       	ldi	r24, 0xF0	; 240
    393a:	0e 94 59 30 	call	0x60b2	; 0x60b2 <_ZN8SPIClass8transferEh>
    393e:	99 81       	ldd	r25, Y+1	; 0x01
    3940:	89 2f       	mov	r24, r25
    3942:	0e 94 59 30 	call	0x60b2	; 0x60b2 <_ZN8SPIClass8transferEh>
    3946:	81 2f       	mov	r24, r17
    3948:	0e 94 59 30 	call	0x60b2	; 0x60b2 <_ZN8SPIClass8transferEh>
    394c:	6a 81       	ldd	r22, Y+2	; 0x02
    394e:	86 2f       	mov	r24, r22
    3950:	0e 94 59 30 	call	0x60b2	; 0x60b2 <_ZN8SPIClass8transferEh>
    3954:	0e 94 61 30 	call	0x60c2	; 0x60c2 <_ZN10W5100Class7resetSSEv>
    3958:	81 e0       	ldi	r24, 0x01	; 1
    395a:	0f 90       	pop	r0
    395c:	0f 90       	pop	r0
    395e:	df 91       	pop	r29
    3960:	cf 91       	pop	r28
    3962:	1f 91       	pop	r17
    3964:	08 95       	ret

00003966 <_ZN10W5100Class4initEv>:
    3966:	cf 93       	push	r28
    3968:	df 93       	push	r29
    396a:	ec 01       	movw	r28, r24
    396c:	6c e2       	ldi	r22, 0x2C	; 44
    396e:	71 e0       	ldi	r23, 0x01	; 1
    3970:	80 e0       	ldi	r24, 0x00	; 0
    3972:	90 e0       	ldi	r25, 0x00	; 0
    3974:	0e 94 5c 18 	call	0x30b8	; 0x30b8 <delay>
    3978:	0e 94 3e 28 	call	0x507c	; 0x507c <_ZN8SPIClass5beginEv>
    397c:	22 9a       	sbi	0x04, 2	; 4
    397e:	60 e8       	ldi	r22, 0x80	; 128
    3980:	80 e0       	ldi	r24, 0x00	; 0
    3982:	90 e0       	ldi	r25, 0x00	; 0
    3984:	0e 94 91 1c 	call	0x3922	; 0x3922 <_ZN10W5100Class5writeEjh>
    3988:	65 e5       	ldi	r22, 0x55	; 85
    398a:	8b e1       	ldi	r24, 0x1B	; 27
    398c:	90 e0       	ldi	r25, 0x00	; 0
    398e:	0e 94 91 1c 	call	0x3922	; 0x3922 <_ZN10W5100Class5writeEjh>
    3992:	65 e5       	ldi	r22, 0x55	; 85
    3994:	8a e1       	ldi	r24, 0x1A	; 26
    3996:	90 e0       	ldi	r25, 0x00	; 0
    3998:	0e 94 91 1c 	call	0x3922	; 0x3922 <_ZN10W5100Class5writeEjh>
    399c:	80 e0       	ldi	r24, 0x00	; 0
    399e:	90 e4       	ldi	r25, 0x40	; 64
    39a0:	99 83       	std	Y+1, r25	; 0x01
    39a2:	88 83       	st	Y, r24
    39a4:	80 e0       	ldi	r24, 0x00	; 0
    39a6:	90 e6       	ldi	r25, 0x60	; 96
    39a8:	99 87       	std	Y+9, r25	; 0x09
    39aa:	88 87       	std	Y+8, r24	; 0x08
    39ac:	80 e0       	ldi	r24, 0x00	; 0
    39ae:	98 e4       	ldi	r25, 0x48	; 72
    39b0:	9b 83       	std	Y+3, r25	; 0x03
    39b2:	8a 83       	std	Y+2, r24	; 0x02
    39b4:	80 e0       	ldi	r24, 0x00	; 0
    39b6:	98 e6       	ldi	r25, 0x68	; 104
    39b8:	9b 87       	std	Y+11, r25	; 0x0b
    39ba:	8a 87       	std	Y+10, r24	; 0x0a
    39bc:	80 e0       	ldi	r24, 0x00	; 0
    39be:	90 e5       	ldi	r25, 0x50	; 80
    39c0:	9d 83       	std	Y+5, r25	; 0x05
    39c2:	8c 83       	std	Y+4, r24	; 0x04
    39c4:	80 e0       	ldi	r24, 0x00	; 0
    39c6:	90 e7       	ldi	r25, 0x70	; 112
    39c8:	9d 87       	std	Y+13, r25	; 0x0d
    39ca:	8c 87       	std	Y+12, r24	; 0x0c
    39cc:	80 e0       	ldi	r24, 0x00	; 0
    39ce:	98 e5       	ldi	r25, 0x58	; 88
    39d0:	9f 83       	std	Y+7, r25	; 0x07
    39d2:	8e 83       	std	Y+6, r24	; 0x06
    39d4:	80 e0       	ldi	r24, 0x00	; 0
    39d6:	98 e7       	ldi	r25, 0x78	; 120
    39d8:	9f 87       	std	Y+15, r25	; 0x0f
    39da:	8e 87       	std	Y+14, r24	; 0x0e
    39dc:	df 91       	pop	r29
    39de:	cf 91       	pop	r28
    39e0:	08 95       	ret

000039e2 <_ZN10W5100Class5writeEjPKhj>:
    39e2:	cf 92       	push	r12
    39e4:	df 92       	push	r13
    39e6:	ef 92       	push	r14
    39e8:	ff 92       	push	r15
    39ea:	0f 93       	push	r16
    39ec:	1f 93       	push	r17
    39ee:	cf 93       	push	r28
    39f0:	df 93       	push	r29
    39f2:	ec 01       	movw	r28, r24
    39f4:	7a 01       	movw	r14, r20
    39f6:	8b 01       	movw	r16, r22
    39f8:	6a 01       	movw	r12, r20
    39fa:	c8 0e       	add	r12, r24
    39fc:	d9 1e       	adc	r13, r25
    39fe:	13 c0       	rjmp	.+38     	; 0x3a26 <_ZN10W5100Class5writeEjPKhj+0x44>
    3a00:	0e 94 5f 30 	call	0x60be	; 0x60be <_ZN10W5100Class5setSSEv>
    3a04:	80 ef       	ldi	r24, 0xF0	; 240
    3a06:	0e 94 59 30 	call	0x60b2	; 0x60b2 <_ZN8SPIClass8transferEh>
    3a0a:	8d 2f       	mov	r24, r29
    3a0c:	0e 94 59 30 	call	0x60b2	; 0x60b2 <_ZN8SPIClass8transferEh>
    3a10:	8c 2f       	mov	r24, r28
    3a12:	0e 94 59 30 	call	0x60b2	; 0x60b2 <_ZN8SPIClass8transferEh>
    3a16:	21 96       	adiw	r28, 0x01	; 1
    3a18:	f8 01       	movw	r30, r16
    3a1a:	81 91       	ld	r24, Z+
    3a1c:	8f 01       	movw	r16, r30
    3a1e:	0e 94 59 30 	call	0x60b2	; 0x60b2 <_ZN8SPIClass8transferEh>
    3a22:	0e 94 61 30 	call	0x60c2	; 0x60c2 <_ZN10W5100Class7resetSSEv>
    3a26:	cc 15       	cp	r28, r12
    3a28:	dd 05       	cpc	r29, r13
    3a2a:	51 f7       	brne	.-44     	; 0x3a00 <_ZN10W5100Class5writeEjPKhj+0x1e>
    3a2c:	c7 01       	movw	r24, r14
    3a2e:	df 91       	pop	r29
    3a30:	cf 91       	pop	r28
    3a32:	1f 91       	pop	r17
    3a34:	0f 91       	pop	r16
    3a36:	ff 90       	pop	r15
    3a38:	ef 90       	pop	r14
    3a3a:	df 90       	pop	r13
    3a3c:	cf 90       	pop	r12
    3a3e:	08 95       	ret

00003a40 <_ZN10W5100Class4readEj>:
    3a40:	1f 93       	push	r17
    3a42:	cf 93       	push	r28
    3a44:	df 93       	push	r29
    3a46:	1f 92       	push	r1
    3a48:	cd b7       	in	r28, 0x3d	; 61
    3a4a:	de b7       	in	r29, 0x3e	; 62
    3a4c:	18 2f       	mov	r17, r24
    3a4e:	99 83       	std	Y+1, r25	; 0x01
    3a50:	0e 94 5f 30 	call	0x60be	; 0x60be <_ZN10W5100Class5setSSEv>
    3a54:	8f e0       	ldi	r24, 0x0F	; 15
    3a56:	0e 94 59 30 	call	0x60b2	; 0x60b2 <_ZN8SPIClass8transferEh>
    3a5a:	99 81       	ldd	r25, Y+1	; 0x01
    3a5c:	89 2f       	mov	r24, r25
    3a5e:	0e 94 59 30 	call	0x60b2	; 0x60b2 <_ZN8SPIClass8transferEh>
    3a62:	81 2f       	mov	r24, r17
    3a64:	0e 94 59 30 	call	0x60b2	; 0x60b2 <_ZN8SPIClass8transferEh>
    3a68:	80 e0       	ldi	r24, 0x00	; 0
    3a6a:	0e 94 59 30 	call	0x60b2	; 0x60b2 <_ZN8SPIClass8transferEh>
    3a6e:	89 83       	std	Y+1, r24	; 0x01
    3a70:	0e 94 61 30 	call	0x60c2	; 0x60c2 <_ZN10W5100Class7resetSSEv>
    3a74:	89 81       	ldd	r24, Y+1	; 0x01
    3a76:	0f 90       	pop	r0
    3a78:	df 91       	pop	r29
    3a7a:	cf 91       	pop	r28
    3a7c:	1f 91       	pop	r17
    3a7e:	08 95       	ret

00003a80 <_ZN10W5100Class27send_data_processing_offsetEhjPKhj>:
    3a80:	8f 92       	push	r8
    3a82:	9f 92       	push	r9
    3a84:	af 92       	push	r10
    3a86:	bf 92       	push	r11
    3a88:	cf 92       	push	r12
    3a8a:	df 92       	push	r13
    3a8c:	ef 92       	push	r14
    3a8e:	ff 92       	push	r15
    3a90:	0f 93       	push	r16
    3a92:	1f 93       	push	r17
    3a94:	cf 93       	push	r28
    3a96:	df 93       	push	r29
    3a98:	7c 01       	movw	r14, r24
    3a9a:	96 2e       	mov	r9, r22
    3a9c:	ea 01       	movw	r28, r20
    3a9e:	59 01       	movw	r10, r18
    3aa0:	64 e2       	ldi	r22, 0x24	; 36
    3aa2:	70 e0       	ldi	r23, 0x00	; 0
    3aa4:	89 2d       	mov	r24, r9
    3aa6:	0e 94 0b 30 	call	0x6016	; 0x6016 <_ZN10W5100Class6readSnEhj>
    3aaa:	88 2e       	mov	r8, r24
    3aac:	65 e2       	ldi	r22, 0x25	; 37
    3aae:	70 e0       	ldi	r23, 0x00	; 0
    3ab0:	89 2d       	mov	r24, r9
    3ab2:	0e 94 0b 30 	call	0x6016	; 0x6016 <_ZN10W5100Class6readSnEhj>
    3ab6:	d8 2c       	mov	r13, r8
    3ab8:	c1 2c       	mov	r12, r1
    3aba:	c8 2a       	or	r12, r24
    3abc:	cc 0e       	add	r12, r28
    3abe:	dd 1e       	adc	r13, r29
    3ac0:	96 01       	movw	r18, r12
    3ac2:	37 70       	andi	r19, 0x07	; 7
    3ac4:	62 e0       	ldi	r22, 0x02	; 2
    3ac6:	96 9e       	mul	r9, r22
    3ac8:	e0 0c       	add	r14, r0
    3aca:	f1 1c       	adc	r15, r1
    3acc:	11 24       	eor	r1, r1
    3ace:	f7 01       	movw	r30, r14
    3ad0:	80 81       	ld	r24, Z
    3ad2:	91 81       	ldd	r25, Z+1	; 0x01
    3ad4:	82 0f       	add	r24, r18
    3ad6:	93 1f       	adc	r25, r19
    3ad8:	a9 01       	movw	r20, r18
    3ada:	40 0f       	add	r20, r16
    3adc:	51 1f       	adc	r21, r17
    3ade:	41 30       	cpi	r20, 0x01	; 1
    3ae0:	58 40       	sbci	r21, 0x08	; 8
    3ae2:	90 f0       	brcs	.+36     	; 0x3b08 <_ZN10W5100Class27send_data_processing_offsetEhjPKhj+0x88>
    3ae4:	c0 e0       	ldi	r28, 0x00	; 0
    3ae6:	d8 e0       	ldi	r29, 0x08	; 8
    3ae8:	c2 1b       	sub	r28, r18
    3aea:	d3 0b       	sbc	r29, r19
    3aec:	ae 01       	movw	r20, r28
    3aee:	b5 01       	movw	r22, r10
    3af0:	0e 94 f1 1c 	call	0x39e2	; 0x39e2 <_ZN10W5100Class5writeEjPKhj>
    3af4:	a8 01       	movw	r20, r16
    3af6:	4c 1b       	sub	r20, r28
    3af8:	5d 0b       	sbc	r21, r29
    3afa:	b5 01       	movw	r22, r10
    3afc:	6c 0f       	add	r22, r28
    3afe:	7d 1f       	adc	r23, r29
    3b00:	f7 01       	movw	r30, r14
    3b02:	80 81       	ld	r24, Z
    3b04:	91 81       	ldd	r25, Z+1	; 0x01
    3b06:	02 c0       	rjmp	.+4      	; 0x3b0c <_ZN10W5100Class27send_data_processing_offsetEhjPKhj+0x8c>
    3b08:	a8 01       	movw	r20, r16
    3b0a:	b5 01       	movw	r22, r10
    3b0c:	0e 94 f1 1c 	call	0x39e2	; 0x39e2 <_ZN10W5100Class5writeEjPKhj>
    3b10:	0c 0d       	add	r16, r12
    3b12:	1d 1d       	adc	r17, r13
    3b14:	41 2f       	mov	r20, r17
    3b16:	64 e2       	ldi	r22, 0x24	; 36
    3b18:	70 e0       	ldi	r23, 0x00	; 0
    3b1a:	89 2d       	mov	r24, r9
    3b1c:	0e 94 17 30 	call	0x602e	; 0x602e <_ZN10W5100Class7writeSnEhjh>
    3b20:	40 2f       	mov	r20, r16
    3b22:	65 e2       	ldi	r22, 0x25	; 37
    3b24:	70 e0       	ldi	r23, 0x00	; 0
    3b26:	89 2d       	mov	r24, r9
    3b28:	df 91       	pop	r29
    3b2a:	cf 91       	pop	r28
    3b2c:	1f 91       	pop	r17
    3b2e:	0f 91       	pop	r16
    3b30:	ff 90       	pop	r15
    3b32:	ef 90       	pop	r14
    3b34:	df 90       	pop	r13
    3b36:	cf 90       	pop	r12
    3b38:	bf 90       	pop	r11
    3b3a:	af 90       	pop	r10
    3b3c:	9f 90       	pop	r9
    3b3e:	8f 90       	pop	r8
    3b40:	0c 94 17 30 	jmp	0x602e	; 0x602e <_ZN10W5100Class7writeSnEhjh>

00003b44 <_ZN10W5100Class20send_data_processingEhPKhj>:
    3b44:	0f 93       	push	r16
    3b46:	1f 93       	push	r17
    3b48:	89 01       	movw	r16, r18
    3b4a:	9a 01       	movw	r18, r20
    3b4c:	40 e0       	ldi	r20, 0x00	; 0
    3b4e:	50 e0       	ldi	r21, 0x00	; 0
    3b50:	0e 94 40 1d 	call	0x3a80	; 0x3a80 <_ZN10W5100Class27send_data_processing_offsetEhjPKhj>
    3b54:	1f 91       	pop	r17
    3b56:	0f 91       	pop	r16
    3b58:	08 95       	ret

00003b5a <_ZN10W5100Class17getRXReceivedSizeEh>:
    3b5a:	ff 92       	push	r15
    3b5c:	0f 93       	push	r16
    3b5e:	1f 93       	push	r17
    3b60:	cf 93       	push	r28
    3b62:	df 93       	push	r29
    3b64:	f6 2e       	mov	r15, r22
    3b66:	c0 e0       	ldi	r28, 0x00	; 0
    3b68:	d0 e0       	ldi	r29, 0x00	; 0
    3b6a:	8f 2d       	mov	r24, r15
    3b6c:	0e 94 63 30 	call	0x60c6	; 0x60c6 <_ZN10W5100Class12readSnRX_RSREh>
    3b70:	8c 01       	movw	r16, r24
    3b72:	00 97       	sbiw	r24, 0x00	; 0
    3b74:	21 f0       	breq	.+8      	; 0x3b7e <_ZN10W5100Class17getRXReceivedSizeEh+0x24>
    3b76:	8f 2d       	mov	r24, r15
    3b78:	0e 94 63 30 	call	0x60c6	; 0x60c6 <_ZN10W5100Class12readSnRX_RSREh>
    3b7c:	ec 01       	movw	r28, r24
    3b7e:	c0 17       	cp	r28, r16
    3b80:	d1 07       	cpc	r29, r17
    3b82:	99 f7       	brne	.-26     	; 0x3b6a <_ZN10W5100Class17getRXReceivedSizeEh+0x10>
    3b84:	ce 01       	movw	r24, r28
    3b86:	df 91       	pop	r29
    3b88:	cf 91       	pop	r28
    3b8a:	1f 91       	pop	r17
    3b8c:	0f 91       	pop	r16
    3b8e:	ff 90       	pop	r15
    3b90:	08 95       	ret

00003b92 <_ZN10W5100Class13getTXFreeSizeEh>:
    3b92:	ff 92       	push	r15
    3b94:	0f 93       	push	r16
    3b96:	1f 93       	push	r17
    3b98:	cf 93       	push	r28
    3b9a:	df 93       	push	r29
    3b9c:	f6 2e       	mov	r15, r22
    3b9e:	c0 e0       	ldi	r28, 0x00	; 0
    3ba0:	d0 e0       	ldi	r29, 0x00	; 0
    3ba2:	8f 2d       	mov	r24, r15
    3ba4:	0e 94 77 30 	call	0x60ee	; 0x60ee <_ZN10W5100Class12readSnTX_FSREh>
    3ba8:	8c 01       	movw	r16, r24
    3baa:	00 97       	sbiw	r24, 0x00	; 0
    3bac:	21 f0       	breq	.+8      	; 0x3bb6 <_ZN10W5100Class13getTXFreeSizeEh+0x24>
    3bae:	8f 2d       	mov	r24, r15
    3bb0:	0e 94 77 30 	call	0x60ee	; 0x60ee <_ZN10W5100Class12readSnTX_FSREh>
    3bb4:	ec 01       	movw	r28, r24
    3bb6:	c0 17       	cp	r28, r16
    3bb8:	d1 07       	cpc	r29, r17
    3bba:	99 f7       	brne	.-26     	; 0x3ba2 <_ZN10W5100Class13getTXFreeSizeEh+0x10>
    3bbc:	ce 01       	movw	r24, r28
    3bbe:	df 91       	pop	r29
    3bc0:	cf 91       	pop	r28
    3bc2:	1f 91       	pop	r17
    3bc4:	0f 91       	pop	r16
    3bc6:	ff 90       	pop	r15
    3bc8:	08 95       	ret

00003bca <_ZN10W5100Class4readEjPhj>:
    3bca:	cf 92       	push	r12
    3bcc:	df 92       	push	r13
    3bce:	ef 92       	push	r14
    3bd0:	ff 92       	push	r15
    3bd2:	0f 93       	push	r16
    3bd4:	1f 93       	push	r17
    3bd6:	cf 93       	push	r28
    3bd8:	df 93       	push	r29
    3bda:	ec 01       	movw	r28, r24
    3bdc:	7a 01       	movw	r14, r20
    3bde:	8b 01       	movw	r16, r22
    3be0:	6a 01       	movw	r12, r20
    3be2:	c8 0e       	add	r12, r24
    3be4:	d9 1e       	adc	r13, r25
    3be6:	14 c0       	rjmp	.+40     	; 0x3c10 <_ZN10W5100Class4readEjPhj+0x46>
    3be8:	0e 94 5f 30 	call	0x60be	; 0x60be <_ZN10W5100Class5setSSEv>
    3bec:	8f e0       	ldi	r24, 0x0F	; 15
    3bee:	0e 94 59 30 	call	0x60b2	; 0x60b2 <_ZN8SPIClass8transferEh>
    3bf2:	8d 2f       	mov	r24, r29
    3bf4:	0e 94 59 30 	call	0x60b2	; 0x60b2 <_ZN8SPIClass8transferEh>
    3bf8:	8c 2f       	mov	r24, r28
    3bfa:	0e 94 59 30 	call	0x60b2	; 0x60b2 <_ZN8SPIClass8transferEh>
    3bfe:	21 96       	adiw	r28, 0x01	; 1
    3c00:	80 e0       	ldi	r24, 0x00	; 0
    3c02:	0e 94 59 30 	call	0x60b2	; 0x60b2 <_ZN8SPIClass8transferEh>
    3c06:	f8 01       	movw	r30, r16
    3c08:	81 93       	st	Z+, r24
    3c0a:	8f 01       	movw	r16, r30
    3c0c:	0e 94 61 30 	call	0x60c2	; 0x60c2 <_ZN10W5100Class7resetSSEv>
    3c10:	cc 15       	cp	r28, r12
    3c12:	dd 05       	cpc	r29, r13
    3c14:	49 f7       	brne	.-46     	; 0x3be8 <_ZN10W5100Class4readEjPhj+0x1e>
    3c16:	c7 01       	movw	r24, r14
    3c18:	df 91       	pop	r29
    3c1a:	cf 91       	pop	r28
    3c1c:	1f 91       	pop	r17
    3c1e:	0f 91       	pop	r16
    3c20:	ff 90       	pop	r15
    3c22:	ef 90       	pop	r14
    3c24:	df 90       	pop	r13
    3c26:	cf 90       	pop	r12
    3c28:	08 95       	ret

00003c2a <_ZN10W5100Class9read_dataEhPVhS1_j>:
    3c2a:	cf 92       	push	r12
    3c2c:	df 92       	push	r13
    3c2e:	ef 92       	push	r14
    3c30:	ff 92       	push	r15
    3c32:	0f 93       	push	r16
    3c34:	1f 93       	push	r17
    3c36:	cf 93       	push	r28
    3c38:	df 93       	push	r29
    3c3a:	69 01       	movw	r12, r18
    3c3c:	57 70       	andi	r21, 0x07	; 7
    3c3e:	7c 01       	movw	r14, r24
    3c40:	22 e0       	ldi	r18, 0x02	; 2
    3c42:	62 9f       	mul	r22, r18
    3c44:	e0 0c       	add	r14, r0
    3c46:	f1 1c       	adc	r15, r1
    3c48:	11 24       	eor	r1, r1
    3c4a:	88 e0       	ldi	r24, 0x08	; 8
    3c4c:	e8 0e       	add	r14, r24
    3c4e:	f1 1c       	adc	r15, r1
    3c50:	f7 01       	movw	r30, r14
    3c52:	80 81       	ld	r24, Z
    3c54:	91 81       	ldd	r25, Z+1	; 0x01
    3c56:	84 0f       	add	r24, r20
    3c58:	95 1f       	adc	r25, r21
    3c5a:	98 01       	movw	r18, r16
    3c5c:	24 0f       	add	r18, r20
    3c5e:	35 1f       	adc	r19, r21
    3c60:	21 30       	cpi	r18, 0x01	; 1
    3c62:	38 40       	sbci	r19, 0x08	; 8
    3c64:	90 f0       	brcs	.+36     	; 0x3c8a <_ZN10W5100Class9read_dataEhPVhS1_j+0x60>
    3c66:	c0 e0       	ldi	r28, 0x00	; 0
    3c68:	d8 e0       	ldi	r29, 0x08	; 8
    3c6a:	c4 1b       	sub	r28, r20
    3c6c:	d5 0b       	sbc	r29, r21
    3c6e:	ae 01       	movw	r20, r28
    3c70:	b6 01       	movw	r22, r12
    3c72:	0e 94 e5 1d 	call	0x3bca	; 0x3bca <_ZN10W5100Class4readEjPhj>
    3c76:	a8 01       	movw	r20, r16
    3c78:	4c 1b       	sub	r20, r28
    3c7a:	5d 0b       	sbc	r21, r29
    3c7c:	b6 01       	movw	r22, r12
    3c7e:	6c 0f       	add	r22, r28
    3c80:	7d 1f       	adc	r23, r29
    3c82:	f7 01       	movw	r30, r14
    3c84:	80 81       	ld	r24, Z
    3c86:	91 81       	ldd	r25, Z+1	; 0x01
    3c88:	02 c0       	rjmp	.+4      	; 0x3c8e <_ZN10W5100Class9read_dataEhPVhS1_j+0x64>
    3c8a:	a8 01       	movw	r20, r16
    3c8c:	b6 01       	movw	r22, r12
    3c8e:	df 91       	pop	r29
    3c90:	cf 91       	pop	r28
    3c92:	1f 91       	pop	r17
    3c94:	0f 91       	pop	r16
    3c96:	ff 90       	pop	r15
    3c98:	ef 90       	pop	r14
    3c9a:	df 90       	pop	r13
    3c9c:	cf 90       	pop	r12
    3c9e:	0c 94 e5 1d 	jmp	0x3bca	; 0x3bca <_ZN10W5100Class4readEjPhj>

00003ca2 <_ZN10W5100Class20recv_data_processingEhPhjh>:
    3ca2:	8f 92       	push	r8
    3ca4:	9f 92       	push	r9
    3ca6:	af 92       	push	r10
    3ca8:	bf 92       	push	r11
    3caa:	cf 92       	push	r12
    3cac:	df 92       	push	r13
    3cae:	ef 92       	push	r14
    3cb0:	ff 92       	push	r15
    3cb2:	0f 93       	push	r16
    3cb4:	1f 93       	push	r17
    3cb6:	cf 93       	push	r28
    3cb8:	df 93       	push	r29
    3cba:	6c 01       	movw	r12, r24
    3cbc:	96 2e       	mov	r9, r22
    3cbe:	5a 01       	movw	r10, r20
    3cc0:	e9 01       	movw	r28, r18
    3cc2:	80 2e       	mov	r8, r16
    3cc4:	68 e2       	ldi	r22, 0x28	; 40
    3cc6:	70 e0       	ldi	r23, 0x00	; 0
    3cc8:	89 2d       	mov	r24, r9
    3cca:	0e 94 0b 30 	call	0x6016	; 0x6016 <_ZN10W5100Class6readSnEhj>
    3cce:	f8 2e       	mov	r15, r24
    3cd0:	69 e2       	ldi	r22, 0x29	; 41
    3cd2:	70 e0       	ldi	r23, 0x00	; 0
    3cd4:	89 2d       	mov	r24, r9
    3cd6:	0e 94 0b 30 	call	0x6016	; 0x6016 <_ZN10W5100Class6readSnEhj>
    3cda:	ff 2d       	mov	r31, r15
    3cdc:	e0 e0       	ldi	r30, 0x00	; 0
    3cde:	7f 01       	movw	r14, r30
    3ce0:	e8 2a       	or	r14, r24
    3ce2:	8e 01       	movw	r16, r28
    3ce4:	95 01       	movw	r18, r10
    3ce6:	a7 01       	movw	r20, r14
    3ce8:	69 2d       	mov	r22, r9
    3cea:	c6 01       	movw	r24, r12
    3cec:	0e 94 15 1e 	call	0x3c2a	; 0x3c2a <_ZN10W5100Class9read_dataEhPVhS1_j>
    3cf0:	81 10       	cpse	r8, r1
    3cf2:	1a c0       	rjmp	.+52     	; 0x3d28 <_ZN10W5100Class20recv_data_processingEhPhjh+0x86>
    3cf4:	ce 0d       	add	r28, r14
    3cf6:	df 1d       	adc	r29, r15
    3cf8:	4d 2f       	mov	r20, r29
    3cfa:	68 e2       	ldi	r22, 0x28	; 40
    3cfc:	70 e0       	ldi	r23, 0x00	; 0
    3cfe:	89 2d       	mov	r24, r9
    3d00:	0e 94 17 30 	call	0x602e	; 0x602e <_ZN10W5100Class7writeSnEhjh>
    3d04:	4c 2f       	mov	r20, r28
    3d06:	69 e2       	ldi	r22, 0x29	; 41
    3d08:	70 e0       	ldi	r23, 0x00	; 0
    3d0a:	89 2d       	mov	r24, r9
    3d0c:	df 91       	pop	r29
    3d0e:	cf 91       	pop	r28
    3d10:	1f 91       	pop	r17
    3d12:	0f 91       	pop	r16
    3d14:	ff 90       	pop	r15
    3d16:	ef 90       	pop	r14
    3d18:	df 90       	pop	r13
    3d1a:	cf 90       	pop	r12
    3d1c:	bf 90       	pop	r11
    3d1e:	af 90       	pop	r10
    3d20:	9f 90       	pop	r9
    3d22:	8f 90       	pop	r8
    3d24:	0c 94 17 30 	jmp	0x602e	; 0x602e <_ZN10W5100Class7writeSnEhjh>
    3d28:	df 91       	pop	r29
    3d2a:	cf 91       	pop	r28
    3d2c:	1f 91       	pop	r17
    3d2e:	0f 91       	pop	r16
    3d30:	ff 90       	pop	r15
    3d32:	ef 90       	pop	r14
    3d34:	df 90       	pop	r13
    3d36:	cf 90       	pop	r12
    3d38:	bf 90       	pop	r11
    3d3a:	af 90       	pop	r10
    3d3c:	9f 90       	pop	r9
    3d3e:	8f 90       	pop	r8
    3d40:	08 95       	ret

00003d42 <_ZN10W5100Class9execCmdSnEh7SockCMD>:
    3d42:	cf 93       	push	r28
    3d44:	c6 2f       	mov	r28, r22
    3d46:	61 e0       	ldi	r22, 0x01	; 1
    3d48:	70 e0       	ldi	r23, 0x00	; 0
    3d4a:	8c 2f       	mov	r24, r28
    3d4c:	0e 94 17 30 	call	0x602e	; 0x602e <_ZN10W5100Class7writeSnEhjh>
    3d50:	61 e0       	ldi	r22, 0x01	; 1
    3d52:	70 e0       	ldi	r23, 0x00	; 0
    3d54:	8c 2f       	mov	r24, r28
    3d56:	0e 94 0b 30 	call	0x6016	; 0x6016 <_ZN10W5100Class6readSnEhj>
    3d5a:	81 11       	cpse	r24, r1
    3d5c:	f9 cf       	rjmp	.-14     	; 0x3d50 <_ZN10W5100Class9execCmdSnEh7SockCMD+0xe>
    3d5e:	cf 91       	pop	r28
    3d60:	08 95       	ret

00003d62 <_ZN9DhcpClass16reset_DHCP_leaseEv>:
    3d62:	0e 96       	adiw	r24, 0x0e	; 14
    3d64:	fc 01       	movw	r30, r24
    3d66:	84 e1       	ldi	r24, 0x14	; 20
    3d68:	df 01       	movw	r26, r30
    3d6a:	1d 92       	st	X+, r1
    3d6c:	8a 95       	dec	r24
    3d6e:	e9 f7       	brne	.-6      	; 0x3d6a <_ZN9DhcpClass16reset_DHCP_leaseEv+0x8>
    3d70:	08 95       	ret

00003d72 <_ZN9DhcpClass12presend_DHCPEv>:
    3d72:	08 95       	ret

00003d74 <_ZN9DhcpClass17parseDHCPResponseEmRm>:
    3d74:	2f 92       	push	r2
    3d76:	3f 92       	push	r3
    3d78:	4f 92       	push	r4
    3d7a:	5f 92       	push	r5
    3d7c:	6f 92       	push	r6
    3d7e:	7f 92       	push	r7
    3d80:	8f 92       	push	r8
    3d82:	9f 92       	push	r9
    3d84:	af 92       	push	r10
    3d86:	bf 92       	push	r11
    3d88:	cf 92       	push	r12
    3d8a:	df 92       	push	r13
    3d8c:	ef 92       	push	r14
    3d8e:	ff 92       	push	r15
    3d90:	0f 93       	push	r16
    3d92:	1f 93       	push	r17
    3d94:	cf 93       	push	r28
    3d96:	df 93       	push	r29
    3d98:	cd b7       	in	r28, 0x3d	; 61
    3d9a:	de b7       	in	r29, 0x3e	; 62
    3d9c:	e2 97       	sbiw	r28, 0x32	; 50
    3d9e:	0f b6       	in	r0, 0x3f	; 63
    3da0:	f8 94       	cli
    3da2:	de bf       	out	0x3e, r29	; 62
    3da4:	0f be       	out	0x3f, r0	; 63
    3da6:	cd bf       	out	0x3d, r28	; 61
    3da8:	8c 01       	movw	r16, r24
    3daa:	2a 01       	movw	r4, r20
    3dac:	3b 01       	movw	r6, r22
    3dae:	3a a7       	std	Y+42, r19	; 0x2a
    3db0:	29 a7       	std	Y+41, r18	; 0x29
    3db2:	0e 94 20 18 	call	0x3040	; 0x3040 <millis>
    3db6:	4b 01       	movw	r8, r22
    3db8:	5c 01       	movw	r10, r24
    3dba:	18 01       	movw	r2, r16
    3dbc:	87 e4       	ldi	r24, 0x47	; 71
    3dbe:	28 0e       	add	r2, r24
    3dc0:	31 1c       	adc	r3, r1
    3dc2:	12 c0       	rjmp	.+36     	; 0x3de8 <_ZN9DhcpClass17parseDHCPResponseEmRm+0x74>
    3dc4:	0e 94 20 18 	call	0x3040	; 0x3040 <millis>
    3dc8:	68 19       	sub	r22, r8
    3dca:	79 09       	sbc	r23, r9
    3dcc:	8a 09       	sbc	r24, r10
    3dce:	9b 09       	sbc	r25, r11
    3dd0:	46 16       	cp	r4, r22
    3dd2:	57 06       	cpc	r5, r23
    3dd4:	68 06       	cpc	r6, r24
    3dd6:	79 06       	cpc	r7, r25
    3dd8:	08 f4       	brcc	.+2      	; 0x3ddc <_ZN9DhcpClass17parseDHCPResponseEmRm+0x68>
    3dda:	76 c1       	rjmp	.+748    	; 0x40c8 <_ZN9DhcpClass17parseDHCPResponseEmRm+0x354>
    3ddc:	62 e3       	ldi	r22, 0x32	; 50
    3dde:	70 e0       	ldi	r23, 0x00	; 0
    3de0:	80 e0       	ldi	r24, 0x00	; 0
    3de2:	90 e0       	ldi	r25, 0x00	; 0
    3de4:	0e 94 5c 18 	call	0x30b8	; 0x30b8 <delay>
    3de8:	c1 01       	movw	r24, r2
    3dea:	0e 94 10 09 	call	0x1220	; 0x1220 <_ZN11EthernetUDP11parsePacketEv>
    3dee:	18 16       	cp	r1, r24
    3df0:	19 06       	cpc	r1, r25
    3df2:	44 f7       	brge	.-48     	; 0x3dc4 <_ZN9DhcpClass17parseDHCPResponseEmRm+0x50>
    3df4:	42 e2       	ldi	r20, 0x22	; 34
    3df6:	50 e0       	ldi	r21, 0x00	; 0
    3df8:	be 01       	movw	r22, r28
    3dfa:	6f 5f       	subi	r22, 0xFF	; 255
    3dfc:	7f 4f       	sbci	r23, 0xFF	; 255
    3dfe:	c1 01       	movw	r24, r2
    3e00:	0e 94 90 08 	call	0x1120	; 0x1120 <_ZN11EthernetUDP4readEPhj>
    3e04:	89 81       	ldd	r24, Y+1	; 0x01
    3e06:	82 30       	cpi	r24, 0x02	; 2
    3e08:	09 f0       	breq	.+2      	; 0x3e0c <_ZN9DhcpClass17parseDHCPResponseEmRm+0x98>
    3e0a:	59 c1       	rjmp	.+690    	; 0x40be <_ZN9DhcpClass17parseDHCPResponseEmRm+0x34a>
    3e0c:	f1 01       	movw	r30, r2
    3e0e:	85 89       	ldd	r24, Z+21	; 0x15
    3e10:	96 89       	ldd	r25, Z+22	; 0x16
    3e12:	83 34       	cpi	r24, 0x43	; 67
    3e14:	91 05       	cpc	r25, r1
    3e16:	09 f4       	brne	.+2      	; 0x3e1a <_ZN9DhcpClass17parseDHCPResponseEmRm+0xa6>
    3e18:	5a c1       	rjmp	.+692    	; 0x40ce <_ZN9DhcpClass17parseDHCPResponseEmRm+0x35a>
    3e1a:	51 c1       	rjmp	.+674    	; 0x40be <_ZN9DhcpClass17parseDHCPResponseEmRm+0x34a>
    3e1c:	f8 01       	movw	r30, r16
    3e1e:	80 81       	ld	r24, Z
    3e20:	91 81       	ldd	r25, Z+1	; 0x01
    3e22:	a2 81       	ldd	r26, Z+2	; 0x02
    3e24:	b3 81       	ldd	r27, Z+3	; 0x03
    3e26:	c8 16       	cp	r12, r24
    3e28:	d9 06       	cpc	r13, r25
    3e2a:	ea 06       	cpc	r14, r26
    3e2c:	fb 06       	cpc	r15, r27
    3e2e:	48 f0       	brcs	.+18     	; 0x3e42 <_ZN9DhcpClass17parseDHCPResponseEmRm+0xce>
    3e30:	84 81       	ldd	r24, Z+4	; 0x04
    3e32:	95 81       	ldd	r25, Z+5	; 0x05
    3e34:	a6 81       	ldd	r26, Z+6	; 0x06
    3e36:	b7 81       	ldd	r27, Z+7	; 0x07
    3e38:	8c 15       	cp	r24, r12
    3e3a:	9d 05       	cpc	r25, r13
    3e3c:	ae 05       	cpc	r26, r14
    3e3e:	bf 05       	cpc	r27, r15
    3e40:	28 f4       	brcc	.+10     	; 0x3e4c <_ZN9DhcpClass17parseDHCPResponseEmRm+0xd8>
    3e42:	c1 01       	movw	r24, r2
    3e44:	0e 94 64 08 	call	0x10c8	; 0x10c8 <_ZN11EthernetUDP5flushEv>
    3e48:	91 2c       	mov	r9, r1
    3e4a:	5c c1       	rjmp	.+696    	; 0x4104 <_ZN9DhcpClass17parseDHCPResponseEmRm+0x390>
    3e4c:	89 89       	ldd	r24, Y+17	; 0x11
    3e4e:	9a 89       	ldd	r25, Y+18	; 0x12
    3e50:	ab 89       	ldd	r26, Y+19	; 0x13
    3e52:	bc 89       	ldd	r27, Y+20	; 0x14
    3e54:	f8 01       	movw	r30, r16
    3e56:	86 87       	std	Z+14, r24	; 0x0e
    3e58:	97 87       	std	Z+15, r25	; 0x0f
    3e5a:	a0 8b       	std	Z+16, r26	; 0x10
    3e5c:	b1 8b       	std	Z+17, r27	; 0x11
    3e5e:	8e ec       	ldi	r24, 0xCE	; 206
    3e60:	e8 2e       	mov	r14, r24
    3e62:	f1 2c       	mov	r15, r1
    3e64:	c1 01       	movw	r24, r2
    3e66:	0e 94 af 08 	call	0x115e	; 0x115e <_ZN11EthernetUDP4readEv>
    3e6a:	f1 e0       	ldi	r31, 0x01	; 1
    3e6c:	ef 1a       	sub	r14, r31
    3e6e:	f1 08       	sbc	r15, r1
    3e70:	c9 f7       	brne	.-14     	; 0x3e64 <_ZN9DhcpClass17parseDHCPResponseEmRm+0xf0>
    3e72:	91 2c       	mov	r9, r1
    3e74:	c8 01       	movw	r24, r16
    3e76:	82 96       	adiw	r24, 0x22	; 34
    3e78:	9a a7       	std	Y+42, r25	; 0x2a
    3e7a:	89 a7       	std	Y+41, r24	; 0x29
    3e7c:	38 01       	movw	r6, r16
    3e7e:	96 e2       	ldi	r25, 0x26	; 38
    3e80:	69 0e       	add	r6, r25
    3e82:	71 1c       	adc	r7, r1
    3e84:	28 01       	movw	r4, r16
    3e86:	ea e2       	ldi	r30, 0x2A	; 42
    3e88:	4e 0e       	add	r4, r30
    3e8a:	51 1c       	adc	r5, r1
    3e8c:	c8 01       	movw	r24, r16
    3e8e:	88 5a       	subi	r24, 0xA8	; 168
    3e90:	9f 4f       	sbci	r25, 0xFF	; 255
    3e92:	9c a7       	std	Y+44, r25	; 0x2c
    3e94:	8b a7       	std	Y+43, r24	; 0x2b
    3e96:	58 01       	movw	r10, r16
    3e98:	9a e1       	ldi	r25, 0x1A	; 26
    3e9a:	a9 0e       	add	r10, r25
    3e9c:	b1 1c       	adc	r11, r1
    3e9e:	f8 01       	movw	r30, r16
    3ea0:	72 96       	adiw	r30, 0x12	; 18
    3ea2:	fe a7       	std	Y+46, r31	; 0x2e
    3ea4:	ed a7       	std	Y+45, r30	; 0x2d
    3ea6:	c8 01       	movw	r24, r16
    3ea8:	46 96       	adiw	r24, 0x16	; 22
    3eaa:	98 ab       	std	Y+48, r25	; 0x30
    3eac:	8f a7       	std	Y+47, r24	; 0x2f
    3eae:	f8 01       	movw	r30, r16
    3eb0:	7e 96       	adiw	r30, 0x1e	; 30
    3eb2:	fa ab       	std	Y+50, r31	; 0x32
    3eb4:	e9 ab       	std	Y+49, r30	; 0x31
    3eb6:	fb c0       	rjmp	.+502    	; 0x40ae <_ZN9DhcpClass17parseDHCPResponseEmRm+0x33a>
    3eb8:	c1 01       	movw	r24, r2
    3eba:	0e 94 af 08 	call	0x115e	; 0x115e <_ZN11EthernetUDP4readEv>
    3ebe:	83 33       	cpi	r24, 0x33	; 51
    3ec0:	91 05       	cpc	r25, r1
    3ec2:	09 f4       	brne	.+2      	; 0x3ec6 <_ZN9DhcpClass17parseDHCPResponseEmRm+0x152>
    3ec4:	cb c0       	rjmp	.+406    	; 0x405c <_ZN9DhcpClass17parseDHCPResponseEmRm+0x2e8>
    3ec6:	7c f4       	brge	.+30     	; 0x3ee6 <_ZN9DhcpClass17parseDHCPResponseEmRm+0x172>
    3ec8:	81 30       	cpi	r24, 0x01	; 1
    3eca:	91 05       	cpc	r25, r1
    3ecc:	49 f1       	breq	.+82     	; 0x3f20 <_ZN9DhcpClass17parseDHCPResponseEmRm+0x1ac>
    3ece:	24 f4       	brge	.+8      	; 0x3ed8 <_ZN9DhcpClass17parseDHCPResponseEmRm+0x164>
    3ed0:	89 2b       	or	r24, r25
    3ed2:	09 f4       	brne	.+2      	; 0x3ed6 <_ZN9DhcpClass17parseDHCPResponseEmRm+0x162>
    3ed4:	ec c0       	rjmp	.+472    	; 0x40ae <_ZN9DhcpClass17parseDHCPResponseEmRm+0x33a>
    3ed6:	dc c0       	rjmp	.+440    	; 0x4090 <_ZN9DhcpClass17parseDHCPResponseEmRm+0x31c>
    3ed8:	83 30       	cpi	r24, 0x03	; 3
    3eda:	91 05       	cpc	r25, r1
    3edc:	49 f1       	breq	.+82     	; 0x3f30 <_ZN9DhcpClass17parseDHCPResponseEmRm+0x1bc>
    3ede:	06 97       	sbiw	r24, 0x06	; 6
    3ee0:	09 f0       	breq	.+2      	; 0x3ee4 <_ZN9DhcpClass17parseDHCPResponseEmRm+0x170>
    3ee2:	d6 c0       	rjmp	.+428    	; 0x4090 <_ZN9DhcpClass17parseDHCPResponseEmRm+0x31c>
    3ee4:	41 c0       	rjmp	.+130    	; 0x3f68 <_ZN9DhcpClass17parseDHCPResponseEmRm+0x1f4>
    3ee6:	8a 33       	cpi	r24, 0x3A	; 58
    3ee8:	91 05       	cpc	r25, r1
    3eea:	09 f4       	brne	.+2      	; 0x3eee <_ZN9DhcpClass17parseDHCPResponseEmRm+0x17a>
    3eec:	8d c0       	rjmp	.+282    	; 0x4008 <_ZN9DhcpClass17parseDHCPResponseEmRm+0x294>
    3eee:	3c f4       	brge	.+14     	; 0x3efe <_ZN9DhcpClass17parseDHCPResponseEmRm+0x18a>
    3ef0:	85 33       	cpi	r24, 0x35	; 53
    3ef2:	91 05       	cpc	r25, r1
    3ef4:	69 f0       	breq	.+26     	; 0x3f10 <_ZN9DhcpClass17parseDHCPResponseEmRm+0x19c>
    3ef6:	c6 97       	sbiw	r24, 0x36	; 54
    3ef8:	09 f0       	breq	.+2      	; 0x3efc <_ZN9DhcpClass17parseDHCPResponseEmRm+0x188>
    3efa:	ca c0       	rjmp	.+404    	; 0x4090 <_ZN9DhcpClass17parseDHCPResponseEmRm+0x31c>
    3efc:	51 c0       	rjmp	.+162    	; 0x3fa0 <_ZN9DhcpClass17parseDHCPResponseEmRm+0x22c>
    3efe:	8b 33       	cpi	r24, 0x3B	; 59
    3f00:	91 05       	cpc	r25, r1
    3f02:	09 f4       	brne	.+2      	; 0x3f06 <_ZN9DhcpClass17parseDHCPResponseEmRm+0x192>
    3f04:	96 c0       	rjmp	.+300    	; 0x4032 <_ZN9DhcpClass17parseDHCPResponseEmRm+0x2be>
    3f06:	8f 3f       	cpi	r24, 0xFF	; 255
    3f08:	91 05       	cpc	r25, r1
    3f0a:	09 f0       	breq	.+2      	; 0x3f0e <_ZN9DhcpClass17parseDHCPResponseEmRm+0x19a>
    3f0c:	c1 c0       	rjmp	.+386    	; 0x4090 <_ZN9DhcpClass17parseDHCPResponseEmRm+0x31c>
    3f0e:	cf c0       	rjmp	.+414    	; 0x40ae <_ZN9DhcpClass17parseDHCPResponseEmRm+0x33a>
    3f10:	c1 01       	movw	r24, r2
    3f12:	0e 94 af 08 	call	0x115e	; 0x115e <_ZN11EthernetUDP4readEv>
    3f16:	c1 01       	movw	r24, r2
    3f18:	0e 94 af 08 	call	0x115e	; 0x115e <_ZN11EthernetUDP4readEv>
    3f1c:	98 2e       	mov	r9, r24
    3f1e:	c7 c0       	rjmp	.+398    	; 0x40ae <_ZN9DhcpClass17parseDHCPResponseEmRm+0x33a>
    3f20:	c1 01       	movw	r24, r2
    3f22:	0e 94 af 08 	call	0x115e	; 0x115e <_ZN11EthernetUDP4readEv>
    3f26:	44 e0       	ldi	r20, 0x04	; 4
    3f28:	50 e0       	ldi	r21, 0x00	; 0
    3f2a:	6d a5       	ldd	r22, Y+45	; 0x2d
    3f2c:	7e a5       	ldd	r23, Y+46	; 0x2e
    3f2e:	48 c0       	rjmp	.+144    	; 0x3fc0 <_ZN9DhcpClass17parseDHCPResponseEmRm+0x24c>
    3f30:	c1 01       	movw	r24, r2
    3f32:	0e 94 af 08 	call	0x115e	; 0x115e <_ZN11EthernetUDP4readEv>
    3f36:	6c 01       	movw	r12, r24
    3f38:	44 e0       	ldi	r20, 0x04	; 4
    3f3a:	50 e0       	ldi	r21, 0x00	; 0
    3f3c:	6f a5       	ldd	r22, Y+47	; 0x2f
    3f3e:	78 a9       	ldd	r23, Y+48	; 0x30
    3f40:	c1 01       	movw	r24, r2
    3f42:	0e 94 90 08 	call	0x1120	; 0x1120 <_ZN11EthernetUDP4readEPhj>
    3f46:	e1 2c       	mov	r14, r1
    3f48:	f1 2c       	mov	r15, r1
    3f4a:	dd 24       	eor	r13, r13
    3f4c:	f4 e0       	ldi	r31, 0x04	; 4
    3f4e:	cf 1a       	sub	r12, r31
    3f50:	d1 08       	sbc	r13, r1
    3f52:	06 c0       	rjmp	.+12     	; 0x3f60 <_ZN9DhcpClass17parseDHCPResponseEmRm+0x1ec>
    3f54:	c1 01       	movw	r24, r2
    3f56:	0e 94 af 08 	call	0x115e	; 0x115e <_ZN11EthernetUDP4readEv>
    3f5a:	8f ef       	ldi	r24, 0xFF	; 255
    3f5c:	e8 1a       	sub	r14, r24
    3f5e:	f8 0a       	sbc	r15, r24
    3f60:	ec 14       	cp	r14, r12
    3f62:	fd 04       	cpc	r15, r13
    3f64:	bc f3       	brlt	.-18     	; 0x3f54 <_ZN9DhcpClass17parseDHCPResponseEmRm+0x1e0>
    3f66:	a3 c0       	rjmp	.+326    	; 0x40ae <_ZN9DhcpClass17parseDHCPResponseEmRm+0x33a>
    3f68:	c1 01       	movw	r24, r2
    3f6a:	0e 94 af 08 	call	0x115e	; 0x115e <_ZN11EthernetUDP4readEv>
    3f6e:	6c 01       	movw	r12, r24
    3f70:	44 e0       	ldi	r20, 0x04	; 4
    3f72:	50 e0       	ldi	r21, 0x00	; 0
    3f74:	69 a9       	ldd	r22, Y+49	; 0x31
    3f76:	7a a9       	ldd	r23, Y+50	; 0x32
    3f78:	c1 01       	movw	r24, r2
    3f7a:	0e 94 90 08 	call	0x1120	; 0x1120 <_ZN11EthernetUDP4readEPhj>
    3f7e:	e1 2c       	mov	r14, r1
    3f80:	f1 2c       	mov	r15, r1
    3f82:	dd 24       	eor	r13, r13
    3f84:	94 e0       	ldi	r25, 0x04	; 4
    3f86:	c9 1a       	sub	r12, r25
    3f88:	d1 08       	sbc	r13, r1
    3f8a:	06 c0       	rjmp	.+12     	; 0x3f98 <_ZN9DhcpClass17parseDHCPResponseEmRm+0x224>
    3f8c:	c1 01       	movw	r24, r2
    3f8e:	0e 94 af 08 	call	0x115e	; 0x115e <_ZN11EthernetUDP4readEv>
    3f92:	ef ef       	ldi	r30, 0xFF	; 255
    3f94:	ee 1a       	sub	r14, r30
    3f96:	fe 0a       	sbc	r15, r30
    3f98:	ec 14       	cp	r14, r12
    3f9a:	fd 04       	cpc	r15, r13
    3f9c:	bc f3       	brlt	.-18     	; 0x3f8c <_ZN9DhcpClass17parseDHCPResponseEmRm+0x218>
    3f9e:	87 c0       	rjmp	.+270    	; 0x40ae <_ZN9DhcpClass17parseDHCPResponseEmRm+0x33a>
    3fa0:	c1 01       	movw	r24, r2
    3fa2:	0e 94 af 08 	call	0x115e	; 0x115e <_ZN11EthernetUDP4readEv>
    3fa6:	88 2e       	mov	r8, r24
    3fa8:	f8 01       	movw	r30, r16
    3faa:	82 8d       	ldd	r24, Z+26	; 0x1a
    3fac:	93 8d       	ldd	r25, Z+27	; 0x1b
    3fae:	a4 8d       	ldd	r26, Z+28	; 0x1c
    3fb0:	b5 8d       	ldd	r27, Z+29	; 0x1d
    3fb2:	89 2b       	or	r24, r25
    3fb4:	8a 2b       	or	r24, r26
    3fb6:	8b 2b       	or	r24, r27
    3fb8:	39 f4       	brne	.+14     	; 0x3fc8 <_ZN9DhcpClass17parseDHCPResponseEmRm+0x254>
    3fba:	44 e0       	ldi	r20, 0x04	; 4
    3fbc:	50 e0       	ldi	r21, 0x00	; 0
    3fbe:	b5 01       	movw	r22, r10
    3fc0:	c1 01       	movw	r24, r2
    3fc2:	0e 94 90 08 	call	0x1120	; 0x1120 <_ZN11EthernetUDP4readEPhj>
    3fc6:	73 c0       	rjmp	.+230    	; 0x40ae <_ZN9DhcpClass17parseDHCPResponseEmRm+0x33a>
    3fc8:	eb a5       	ldd	r30, Y+43	; 0x2b
    3fca:	fc a5       	ldd	r31, Y+44	; 0x2c
    3fcc:	c0 80       	ld	r12, Z
    3fce:	d1 80       	ldd	r13, Z+1	; 0x01
    3fd0:	e2 80       	ldd	r14, Z+2	; 0x02
    3fd2:	f3 80       	ldd	r15, Z+3	; 0x03
    3fd4:	b5 01       	movw	r22, r10
    3fd6:	ce 01       	movw	r24, r28
    3fd8:	83 96       	adiw	r24, 0x23	; 35
    3fda:	0e 94 9c 0c 	call	0x1938	; 0x1938 <_ZN9IPAddressC1EPKh>
    3fde:	8d a1       	ldd	r24, Y+37	; 0x25
    3fe0:	9e a1       	ldd	r25, Y+38	; 0x26
    3fe2:	af a1       	ldd	r26, Y+39	; 0x27
    3fe4:	b8 a5       	ldd	r27, Y+40	; 0x28
    3fe6:	8c 15       	cp	r24, r12
    3fe8:	9d 05       	cpc	r25, r13
    3fea:	ae 05       	cpc	r26, r14
    3fec:	bf 05       	cpc	r27, r15
    3fee:	29 f3       	breq	.-54     	; 0x3fba <_ZN9DhcpClass17parseDHCPResponseEmRm+0x246>
    3ff0:	e1 2c       	mov	r14, r1
    3ff2:	f1 2c       	mov	r15, r1
    3ff4:	06 c0       	rjmp	.+12     	; 0x4002 <_ZN9DhcpClass17parseDHCPResponseEmRm+0x28e>
    3ff6:	c1 01       	movw	r24, r2
    3ff8:	0e 94 af 08 	call	0x115e	; 0x115e <_ZN11EthernetUDP4readEv>
    3ffc:	ff ef       	ldi	r31, 0xFF	; 255
    3ffe:	ef 1a       	sub	r14, r31
    4000:	ff 0a       	sbc	r15, r31
    4002:	8e 10       	cpse	r8, r14
    4004:	f8 cf       	rjmp	.-16     	; 0x3ff6 <_ZN9DhcpClass17parseDHCPResponseEmRm+0x282>
    4006:	53 c0       	rjmp	.+166    	; 0x40ae <_ZN9DhcpClass17parseDHCPResponseEmRm+0x33a>
    4008:	c1 01       	movw	r24, r2
    400a:	0e 94 af 08 	call	0x115e	; 0x115e <_ZN11EthernetUDP4readEv>
    400e:	44 e0       	ldi	r20, 0x04	; 4
    4010:	50 e0       	ldi	r21, 0x00	; 0
    4012:	b3 01       	movw	r22, r6
    4014:	c1 01       	movw	r24, r2
    4016:	0e 94 90 08 	call	0x1120	; 0x1120 <_ZN11EthernetUDP4readEPhj>
    401a:	f8 01       	movw	r30, r16
    401c:	66 a1       	ldd	r22, Z+38	; 0x26
    401e:	77 a1       	ldd	r23, Z+39	; 0x27
    4020:	80 a5       	ldd	r24, Z+40	; 0x28
    4022:	91 a5       	ldd	r25, Z+41	; 0x29
    4024:	0e 94 ef 30 	call	0x61de	; 0x61de <__bswapsi2>
    4028:	66 a3       	std	Z+38, r22	; 0x26
    402a:	77 a3       	std	Z+39, r23	; 0x27
    402c:	80 a7       	std	Z+40, r24	; 0x28
    402e:	91 a7       	std	Z+41, r25	; 0x29
    4030:	3e c0       	rjmp	.+124    	; 0x40ae <_ZN9DhcpClass17parseDHCPResponseEmRm+0x33a>
    4032:	c1 01       	movw	r24, r2
    4034:	0e 94 af 08 	call	0x115e	; 0x115e <_ZN11EthernetUDP4readEv>
    4038:	44 e0       	ldi	r20, 0x04	; 4
    403a:	50 e0       	ldi	r21, 0x00	; 0
    403c:	b2 01       	movw	r22, r4
    403e:	c1 01       	movw	r24, r2
    4040:	0e 94 90 08 	call	0x1120	; 0x1120 <_ZN11EthernetUDP4readEPhj>
    4044:	f8 01       	movw	r30, r16
    4046:	62 a5       	ldd	r22, Z+42	; 0x2a
    4048:	73 a5       	ldd	r23, Z+43	; 0x2b
    404a:	84 a5       	ldd	r24, Z+44	; 0x2c
    404c:	95 a5       	ldd	r25, Z+45	; 0x2d
    404e:	0e 94 ef 30 	call	0x61de	; 0x61de <__bswapsi2>
    4052:	62 a7       	std	Z+42, r22	; 0x2a
    4054:	73 a7       	std	Z+43, r23	; 0x2b
    4056:	84 a7       	std	Z+44, r24	; 0x2c
    4058:	95 a7       	std	Z+45, r25	; 0x2d
    405a:	29 c0       	rjmp	.+82     	; 0x40ae <_ZN9DhcpClass17parseDHCPResponseEmRm+0x33a>
    405c:	c1 01       	movw	r24, r2
    405e:	0e 94 af 08 	call	0x115e	; 0x115e <_ZN11EthernetUDP4readEv>
    4062:	44 e0       	ldi	r20, 0x04	; 4
    4064:	50 e0       	ldi	r21, 0x00	; 0
    4066:	69 a5       	ldd	r22, Y+41	; 0x29
    4068:	7a a5       	ldd	r23, Y+42	; 0x2a
    406a:	c1 01       	movw	r24, r2
    406c:	0e 94 90 08 	call	0x1120	; 0x1120 <_ZN11EthernetUDP4readEPhj>
    4070:	f8 01       	movw	r30, r16
    4072:	62 a1       	ldd	r22, Z+34	; 0x22
    4074:	73 a1       	ldd	r23, Z+35	; 0x23
    4076:	84 a1       	ldd	r24, Z+36	; 0x24
    4078:	95 a1       	ldd	r25, Z+37	; 0x25
    407a:	0e 94 ef 30 	call	0x61de	; 0x61de <__bswapsi2>
    407e:	62 a3       	std	Z+34, r22	; 0x22
    4080:	73 a3       	std	Z+35, r23	; 0x23
    4082:	84 a3       	std	Z+36, r24	; 0x24
    4084:	95 a3       	std	Z+37, r25	; 0x25
    4086:	66 a7       	std	Z+46, r22	; 0x2e
    4088:	77 a7       	std	Z+47, r23	; 0x2f
    408a:	80 ab       	std	Z+48, r24	; 0x30
    408c:	91 ab       	std	Z+49, r25	; 0x31
    408e:	0f c0       	rjmp	.+30     	; 0x40ae <_ZN9DhcpClass17parseDHCPResponseEmRm+0x33a>
    4090:	c1 01       	movw	r24, r2
    4092:	0e 94 af 08 	call	0x115e	; 0x115e <_ZN11EthernetUDP4readEv>
    4096:	d8 2e       	mov	r13, r24
    4098:	e1 2c       	mov	r14, r1
    409a:	f1 2c       	mov	r15, r1
    409c:	06 c0       	rjmp	.+12     	; 0x40aa <_ZN9DhcpClass17parseDHCPResponseEmRm+0x336>
    409e:	c1 01       	movw	r24, r2
    40a0:	0e 94 af 08 	call	0x115e	; 0x115e <_ZN11EthernetUDP4readEv>
    40a4:	ff ef       	ldi	r31, 0xFF	; 255
    40a6:	ef 1a       	sub	r14, r31
    40a8:	ff 0a       	sbc	r15, r31
    40aa:	de 10       	cpse	r13, r14
    40ac:	f8 cf       	rjmp	.-16     	; 0x409e <_ZN9DhcpClass17parseDHCPResponseEmRm+0x32a>
    40ae:	c1 01       	movw	r24, r2
    40b0:	0e 94 4a 08 	call	0x1094	; 0x1094 <_ZN11EthernetUDP9availableEv>
    40b4:	18 16       	cp	r1, r24
    40b6:	19 06       	cpc	r1, r25
    40b8:	0c f4       	brge	.+2      	; 0x40bc <_ZN9DhcpClass17parseDHCPResponseEmRm+0x348>
    40ba:	fe ce       	rjmp	.-516    	; 0x3eb8 <_ZN9DhcpClass17parseDHCPResponseEmRm+0x144>
    40bc:	01 c0       	rjmp	.+2      	; 0x40c0 <_ZN9DhcpClass17parseDHCPResponseEmRm+0x34c>
    40be:	91 2c       	mov	r9, r1
    40c0:	c1 01       	movw	r24, r2
    40c2:	0e 94 64 08 	call	0x10c8	; 0x10c8 <_ZN11EthernetUDP5flushEv>
    40c6:	1e c0       	rjmp	.+60     	; 0x4104 <_ZN9DhcpClass17parseDHCPResponseEmRm+0x390>
    40c8:	99 24       	eor	r9, r9
    40ca:	9a 94       	dec	r9
    40cc:	1b c0       	rjmp	.+54     	; 0x4104 <_ZN9DhcpClass17parseDHCPResponseEmRm+0x390>
    40ce:	6d 81       	ldd	r22, Y+5	; 0x05
    40d0:	7e 81       	ldd	r23, Y+6	; 0x06
    40d2:	8f 81       	ldd	r24, Y+7	; 0x07
    40d4:	98 85       	ldd	r25, Y+8	; 0x08
    40d6:	0e 94 ef 30 	call	0x61de	; 0x61de <__bswapsi2>
    40da:	6b 01       	movw	r12, r22
    40dc:	7c 01       	movw	r14, r24
    40de:	e9 a5       	ldd	r30, Y+41	; 0x29
    40e0:	fa a5       	ldd	r31, Y+42	; 0x2a
    40e2:	60 83       	st	Z, r22
    40e4:	71 83       	std	Z+1, r23	; 0x01
    40e6:	82 83       	std	Z+2, r24	; 0x02
    40e8:	93 83       	std	Z+3, r25	; 0x03
    40ea:	b8 01       	movw	r22, r16
    40ec:	68 5f       	subi	r22, 0xF8	; 248
    40ee:	7f 4f       	sbci	r23, 0xFF	; 255
    40f0:	46 e0       	ldi	r20, 0x06	; 6
    40f2:	50 e0       	ldi	r21, 0x00	; 0
    40f4:	ce 01       	movw	r24, r28
    40f6:	4d 96       	adiw	r24, 0x1d	; 29
    40f8:	0e 94 01 34 	call	0x6802	; 0x6802 <memcmp>
    40fc:	00 97       	sbiw	r24, 0x00	; 0
    40fe:	09 f4       	brne	.+2      	; 0x4102 <_ZN9DhcpClass17parseDHCPResponseEmRm+0x38e>
    4100:	8d ce       	rjmp	.-742    	; 0x3e1c <_ZN9DhcpClass17parseDHCPResponseEmRm+0xa8>
    4102:	9f ce       	rjmp	.-706    	; 0x3e42 <_ZN9DhcpClass17parseDHCPResponseEmRm+0xce>
    4104:	89 2d       	mov	r24, r9
    4106:	e2 96       	adiw	r28, 0x32	; 50
    4108:	0f b6       	in	r0, 0x3f	; 63
    410a:	f8 94       	cli
    410c:	de bf       	out	0x3e, r29	; 62
    410e:	0f be       	out	0x3f, r0	; 63
    4110:	cd bf       	out	0x3d, r28	; 61
    4112:	df 91       	pop	r29
    4114:	cf 91       	pop	r28
    4116:	1f 91       	pop	r17
    4118:	0f 91       	pop	r16
    411a:	ff 90       	pop	r15
    411c:	ef 90       	pop	r14
    411e:	df 90       	pop	r13
    4120:	cf 90       	pop	r12
    4122:	bf 90       	pop	r11
    4124:	af 90       	pop	r10
    4126:	9f 90       	pop	r9
    4128:	8f 90       	pop	r8
    412a:	7f 90       	pop	r7
    412c:	6f 90       	pop	r6
    412e:	5f 90       	pop	r5
    4130:	4f 90       	pop	r4
    4132:	3f 90       	pop	r3
    4134:	2f 90       	pop	r2
    4136:	08 95       	ret

00004138 <_ZN9DhcpClass10getLocalIpEv>:
    4138:	cf 93       	push	r28
    413a:	df 93       	push	r29
    413c:	ec 01       	movw	r28, r24
    413e:	62 5f       	subi	r22, 0xF2	; 242
    4140:	7f 4f       	sbci	r23, 0xFF	; 255
    4142:	0e 94 9c 0c 	call	0x1938	; 0x1938 <_ZN9IPAddressC1EPKh>
    4146:	ce 01       	movw	r24, r28
    4148:	df 91       	pop	r29
    414a:	cf 91       	pop	r28
    414c:	08 95       	ret

0000414e <_ZN9DhcpClass13getSubnetMaskEv>:
    414e:	cf 93       	push	r28
    4150:	df 93       	push	r29
    4152:	ec 01       	movw	r28, r24
    4154:	6e 5e       	subi	r22, 0xEE	; 238
    4156:	7f 4f       	sbci	r23, 0xFF	; 255
    4158:	0e 94 9c 0c 	call	0x1938	; 0x1938 <_ZN9IPAddressC1EPKh>
    415c:	ce 01       	movw	r24, r28
    415e:	df 91       	pop	r29
    4160:	cf 91       	pop	r28
    4162:	08 95       	ret

00004164 <_ZN9DhcpClass12getGatewayIpEv>:
    4164:	cf 93       	push	r28
    4166:	df 93       	push	r29
    4168:	ec 01       	movw	r28, r24
    416a:	6a 5e       	subi	r22, 0xEA	; 234
    416c:	7f 4f       	sbci	r23, 0xFF	; 255
    416e:	0e 94 9c 0c 	call	0x1938	; 0x1938 <_ZN9IPAddressC1EPKh>
    4172:	ce 01       	movw	r24, r28
    4174:	df 91       	pop	r29
    4176:	cf 91       	pop	r28
    4178:	08 95       	ret

0000417a <_ZN9DhcpClass15getDhcpServerIpEv>:
    417a:	cf 93       	push	r28
    417c:	df 93       	push	r29
    417e:	ec 01       	movw	r28, r24
    4180:	66 5e       	subi	r22, 0xE6	; 230
    4182:	7f 4f       	sbci	r23, 0xFF	; 255
    4184:	0e 94 9c 0c 	call	0x1938	; 0x1938 <_ZN9IPAddressC1EPKh>
    4188:	ce 01       	movw	r24, r28
    418a:	df 91       	pop	r29
    418c:	cf 91       	pop	r28
    418e:	08 95       	ret

00004190 <_ZN9DhcpClass14getDnsServerIpEv>:
    4190:	cf 93       	push	r28
    4192:	df 93       	push	r29
    4194:	ec 01       	movw	r28, r24
    4196:	62 5e       	subi	r22, 0xE2	; 226
    4198:	7f 4f       	sbci	r23, 0xFF	; 255
    419a:	0e 94 9c 0c 	call	0x1938	; 0x1938 <_ZN9IPAddressC1EPKh>
    419e:	ce 01       	movw	r24, r28
    41a0:	df 91       	pop	r29
    41a2:	cf 91       	pop	r28
    41a4:	08 95       	ret

000041a6 <_ZN9DhcpClass9printByteEPch>:
    41a6:	80 e3       	ldi	r24, 0x30	; 48
    41a8:	fb 01       	movw	r30, r22
    41aa:	80 83       	st	Z, r24
    41ac:	32 96       	adiw	r30, 0x02	; 2
    41ae:	84 2f       	mov	r24, r20
    41b0:	82 95       	swap	r24
    41b2:	8f 70       	andi	r24, 0x0F	; 15
    41b4:	90 e1       	ldi	r25, 0x10	; 16
    41b6:	89 9f       	mul	r24, r25
    41b8:	40 19       	sub	r20, r0
    41ba:	11 24       	eor	r1, r1
    41bc:	4a 30       	cpi	r20, 0x0A	; 10
    41be:	10 f4       	brcc	.+4      	; 0x41c4 <_ZN9DhcpClass9printByteEPch+0x1e>
    41c0:	40 5d       	subi	r20, 0xD0	; 208
    41c2:	01 c0       	rjmp	.+2      	; 0x41c6 <_ZN9DhcpClass9printByteEPch+0x20>
    41c4:	49 5c       	subi	r20, 0xC9	; 201
    41c6:	42 93       	st	-Z, r20
    41c8:	48 2f       	mov	r20, r24
    41ca:	81 11       	cpse	r24, r1
    41cc:	f0 cf       	rjmp	.-32     	; 0x41ae <_ZN9DhcpClass9printByteEPch+0x8>
    41ce:	08 95       	ret

000041d0 <_ZN9DhcpClass17send_DHCP_MESSAGEEhj>:
    41d0:	5f 92       	push	r5
    41d2:	6f 92       	push	r6
    41d4:	7f 92       	push	r7
    41d6:	8f 92       	push	r8
    41d8:	9f 92       	push	r9
    41da:	af 92       	push	r10
    41dc:	bf 92       	push	r11
    41de:	cf 92       	push	r12
    41e0:	df 92       	push	r13
    41e2:	ef 92       	push	r14
    41e4:	ff 92       	push	r15
    41e6:	0f 93       	push	r16
    41e8:	1f 93       	push	r17
    41ea:	cf 93       	push	r28
    41ec:	df 93       	push	r29
    41ee:	cd b7       	in	r28, 0x3d	; 61
    41f0:	de b7       	in	r29, 0x3e	; 62
    41f2:	ac 97       	sbiw	r28, 0x2c	; 44
    41f4:	0f b6       	in	r0, 0x3f	; 63
    41f6:	f8 94       	cli
    41f8:	de bf       	out	0x3e, r29	; 62
    41fa:	0f be       	out	0x3f, r0	; 63
    41fc:	cd bf       	out	0x3d, r28	; 61
    41fe:	7c 01       	movw	r14, r24
    4200:	86 2e       	mov	r8, r22
    4202:	b4 2e       	mov	r11, r20
    4204:	a5 2e       	mov	r10, r21
    4206:	30 e2       	ldi	r19, 0x20	; 32
    4208:	93 2e       	mov	r9, r19
    420a:	cc 24       	eor	r12, r12
    420c:	c3 94       	inc	r12
    420e:	d1 2c       	mov	r13, r1
    4210:	cc 0e       	add	r12, r28
    4212:	dd 1e       	adc	r13, r29
    4214:	f6 01       	movw	r30, r12
    4216:	29 2d       	mov	r18, r9
    4218:	11 92       	st	Z+, r1
    421a:	2a 95       	dec	r18
    421c:	e9 f7       	brne	.-6      	; 0x4218 <_ZN9DhcpClass17send_DHCP_MESSAGEEhj+0x48>
    421e:	0f ef       	ldi	r16, 0xFF	; 255
    4220:	2f ef       	ldi	r18, 0xFF	; 255
    4222:	4f ef       	ldi	r20, 0xFF	; 255
    4224:	6f ef       	ldi	r22, 0xFF	; 255
    4226:	ce 01       	movw	r24, r28
    4228:	87 96       	adiw	r24, 0x27	; 39
    422a:	0e 94 86 0c 	call	0x190c	; 0x190c <_ZN9IPAddressC1Ehhhh>
    422e:	8c ea       	ldi	r24, 0xAC	; 172
    4230:	91 e0       	ldi	r25, 0x01	; 1
    4232:	9a a3       	std	Y+34, r25	; 0x22
    4234:	89 a3       	std	Y+33, r24	; 0x21
    4236:	09 a5       	ldd	r16, Y+41	; 0x29
    4238:	1a a5       	ldd	r17, Y+42	; 0x2a
    423a:	2b a5       	ldd	r18, Y+43	; 0x2b
    423c:	3c a5       	ldd	r19, Y+44	; 0x2c
    423e:	0b a3       	std	Y+35, r16	; 0x23
    4240:	1c a3       	std	Y+36, r17	; 0x24
    4242:	2d a3       	std	Y+37, r18	; 0x25
    4244:	3e a3       	std	Y+38, r19	; 0x26
    4246:	87 01       	movw	r16, r14
    4248:	09 5b       	subi	r16, 0xB9	; 185
    424a:	1f 4f       	sbci	r17, 0xFF	; 255
    424c:	43 e4       	ldi	r20, 0x43	; 67
    424e:	50 e0       	ldi	r21, 0x00	; 0
    4250:	be 01       	movw	r22, r28
    4252:	6f 5d       	subi	r22, 0xDF	; 223
    4254:	7f 4f       	sbci	r23, 0xFF	; 255
    4256:	c8 01       	movw	r24, r16
    4258:	0e 94 f3 08 	call	0x11e6	; 0x11e6 <_ZN11EthernetUDP11beginPacketE9IPAddressj>
    425c:	01 96       	adiw	r24, 0x01	; 1
    425e:	09 f4       	brne	.+2      	; 0x4262 <_ZN9DhcpClass17send_DHCP_MESSAGEEhj+0x92>
    4260:	c1 c0       	rjmp	.+386    	; 0x43e4 <_ZN9DhcpClass17send_DHCP_MESSAGEEhj+0x214>
    4262:	81 e0       	ldi	r24, 0x01	; 1
    4264:	89 83       	std	Y+1, r24	; 0x01
    4266:	8a 83       	std	Y+2, r24	; 0x02
    4268:	96 e0       	ldi	r25, 0x06	; 6
    426a:	59 2e       	mov	r5, r25
    426c:	5b 82       	std	Y+3, r5	; 0x03
    426e:	1c 82       	std	Y+4, r1	; 0x04
    4270:	f7 01       	movw	r30, r14
    4272:	64 81       	ldd	r22, Z+4	; 0x04
    4274:	75 81       	ldd	r23, Z+5	; 0x05
    4276:	86 81       	ldd	r24, Z+6	; 0x06
    4278:	97 81       	ldd	r25, Z+7	; 0x07
    427a:	0e 94 ef 30 	call	0x61de	; 0x61de <__bswapsi2>
    427e:	6d 83       	std	Y+5, r22	; 0x05
    4280:	7e 83       	std	Y+6, r23	; 0x06
    4282:	8f 83       	std	Y+7, r24	; 0x07
    4284:	98 87       	std	Y+8, r25	; 0x08
    4286:	a9 86       	std	Y+9, r10	; 0x09
    4288:	ba 86       	std	Y+10, r11	; 0x0a
    428a:	80 e8       	ldi	r24, 0x80	; 128
    428c:	90 e0       	ldi	r25, 0x00	; 0
    428e:	9c 87       	std	Y+12, r25	; 0x0c
    4290:	8b 87       	std	Y+11, r24	; 0x0b
    4292:	4c e1       	ldi	r20, 0x1C	; 28
    4294:	50 e0       	ldi	r21, 0x00	; 0
    4296:	b6 01       	movw	r22, r12
    4298:	c8 01       	movw	r24, r16
    429a:	0e 94 d9 08 	call	0x11b2	; 0x11b2 <_ZN11EthernetUDP5writeEPKhj>
    429e:	f6 01       	movw	r30, r12
    42a0:	29 2d       	mov	r18, r9
    42a2:	11 92       	st	Z+, r1
    42a4:	2a 95       	dec	r18
    42a6:	e9 f7       	brne	.-6      	; 0x42a2 <_ZN9DhcpClass17send_DHCP_MESSAGEEhj+0xd2>
    42a8:	37 01       	movw	r6, r14
    42aa:	88 e0       	ldi	r24, 0x08	; 8
    42ac:	68 0e       	add	r6, r24
    42ae:	71 1c       	adc	r7, r1
    42b0:	f3 01       	movw	r30, r6
    42b2:	d6 01       	movw	r26, r12
    42b4:	01 90       	ld	r0, Z+
    42b6:	0d 92       	st	X+, r0
    42b8:	5a 94       	dec	r5
    42ba:	e1 f7       	brne	.-8      	; 0x42b4 <_ZN9DhcpClass17send_DHCP_MESSAGEEhj+0xe4>
    42bc:	40 e1       	ldi	r20, 0x10	; 16
    42be:	50 e0       	ldi	r21, 0x00	; 0
    42c0:	b6 01       	movw	r22, r12
    42c2:	c8 01       	movw	r24, r16
    42c4:	0e 94 d9 08 	call	0x11b2	; 0x11b2 <_ZN11EthernetUDP5writeEPKhj>
    42c8:	f6 01       	movw	r30, r12
    42ca:	11 92       	st	Z+, r1
    42cc:	9a 94       	dec	r9
    42ce:	e9 f7       	brne	.-6      	; 0x42ca <_ZN9DhcpClass17send_DHCP_MESSAGEEhj+0xfa>
    42d0:	26 e0       	ldi	r18, 0x06	; 6
    42d2:	a2 2e       	mov	r10, r18
    42d4:	b1 2c       	mov	r11, r1
    42d6:	40 e2       	ldi	r20, 0x20	; 32
    42d8:	50 e0       	ldi	r21, 0x00	; 0
    42da:	b6 01       	movw	r22, r12
    42dc:	c8 01       	movw	r24, r16
    42de:	0e 94 d9 08 	call	0x11b2	; 0x11b2 <_ZN11EthernetUDP5writeEPKhj>
    42e2:	f1 e0       	ldi	r31, 0x01	; 1
    42e4:	af 1a       	sub	r10, r31
    42e6:	b1 08       	sbc	r11, r1
    42e8:	b1 f7       	brne	.-20     	; 0x42d6 <_ZN9DhcpClass17send_DHCP_MESSAGEEhj+0x106>
    42ea:	83 e6       	ldi	r24, 0x63	; 99
    42ec:	89 83       	std	Y+1, r24	; 0x01
    42ee:	92 e8       	ldi	r25, 0x82	; 130
    42f0:	9a 83       	std	Y+2, r25	; 0x02
    42f2:	93 e5       	ldi	r25, 0x53	; 83
    42f4:	9b 83       	std	Y+3, r25	; 0x03
    42f6:	8c 83       	std	Y+4, r24	; 0x04
    42f8:	85 e3       	ldi	r24, 0x35	; 53
    42fa:	8d 83       	std	Y+5, r24	; 0x05
    42fc:	81 e0       	ldi	r24, 0x01	; 1
    42fe:	8e 83       	std	Y+6, r24	; 0x06
    4300:	8f 82       	std	Y+7, r8	; 0x07
    4302:	9d e3       	ldi	r25, 0x3D	; 61
    4304:	98 87       	std	Y+8, r25	; 0x08
    4306:	97 e0       	ldi	r25, 0x07	; 7
    4308:	99 87       	std	Y+9, r25	; 0x09
    430a:	8a 87       	std	Y+10, r24	; 0x0a
    430c:	86 e0       	ldi	r24, 0x06	; 6
    430e:	f3 01       	movw	r30, r6
    4310:	de 01       	movw	r26, r28
    4312:	1b 96       	adiw	r26, 0x0b	; 11
    4314:	01 90       	ld	r0, Z+
    4316:	0d 92       	st	X+, r0
    4318:	8a 95       	dec	r24
    431a:	e1 f7       	brne	.-8      	; 0x4314 <_ZN9DhcpClass17send_DHCP_MESSAGEEhj+0x144>
    431c:	8c e0       	ldi	r24, 0x0C	; 12
    431e:	89 8b       	std	Y+17, r24	; 0x11
    4320:	8a 8b       	std	Y+18, r24	; 0x12
    4322:	60 eb       	ldi	r22, 0xB0	; 176
    4324:	71 e0       	ldi	r23, 0x01	; 1
    4326:	ce 01       	movw	r24, r28
    4328:	43 96       	adiw	r24, 0x13	; 19
    432a:	0e 94 3d 34 	call	0x687a	; 0x687a <strcpy>
    432e:	f7 01       	movw	r30, r14
    4330:	43 85       	ldd	r20, Z+11	; 0x0b
    4332:	be 01       	movw	r22, r28
    4334:	67 5e       	subi	r22, 0xE7	; 231
    4336:	7f 4f       	sbci	r23, 0xFF	; 255
    4338:	c7 01       	movw	r24, r14
    433a:	0e 94 d3 20 	call	0x41a6	; 0x41a6 <_ZN9DhcpClass9printByteEPch>
    433e:	f7 01       	movw	r30, r14
    4340:	44 85       	ldd	r20, Z+12	; 0x0c
    4342:	be 01       	movw	r22, r28
    4344:	65 5e       	subi	r22, 0xE5	; 229
    4346:	7f 4f       	sbci	r23, 0xFF	; 255
    4348:	c7 01       	movw	r24, r14
    434a:	0e 94 d3 20 	call	0x41a6	; 0x41a6 <_ZN9DhcpClass9printByteEPch>
    434e:	f7 01       	movw	r30, r14
    4350:	45 85       	ldd	r20, Z+13	; 0x0d
    4352:	be 01       	movw	r22, r28
    4354:	63 5e       	subi	r22, 0xE3	; 227
    4356:	7f 4f       	sbci	r23, 0xFF	; 255
    4358:	c7 01       	movw	r24, r14
    435a:	0e 94 d3 20 	call	0x41a6	; 0x41a6 <_ZN9DhcpClass9printByteEPch>
    435e:	4e e1       	ldi	r20, 0x1E	; 30
    4360:	50 e0       	ldi	r21, 0x00	; 0
    4362:	b6 01       	movw	r22, r12
    4364:	c8 01       	movw	r24, r16
    4366:	0e 94 d9 08 	call	0x11b2	; 0x11b2 <_ZN11EthernetUDP5writeEPKhj>
    436a:	f3 e0       	ldi	r31, 0x03	; 3
    436c:	8f 12       	cpse	r8, r31
    436e:	1e c0       	rjmp	.+60     	; 0x43ac <_ZN9DhcpClass17send_DHCP_MESSAGEEhj+0x1dc>
    4370:	82 e3       	ldi	r24, 0x32	; 50
    4372:	89 83       	std	Y+1, r24	; 0x01
    4374:	84 e0       	ldi	r24, 0x04	; 4
    4376:	8a 83       	std	Y+2, r24	; 0x02
    4378:	f7 01       	movw	r30, r14
    437a:	96 85       	ldd	r25, Z+14	; 0x0e
    437c:	9b 83       	std	Y+3, r25	; 0x03
    437e:	97 85       	ldd	r25, Z+15	; 0x0f
    4380:	9c 83       	std	Y+4, r25	; 0x04
    4382:	90 89       	ldd	r25, Z+16	; 0x10
    4384:	9d 83       	std	Y+5, r25	; 0x05
    4386:	91 89       	ldd	r25, Z+17	; 0x11
    4388:	9e 83       	std	Y+6, r25	; 0x06
    438a:	96 e3       	ldi	r25, 0x36	; 54
    438c:	9f 83       	std	Y+7, r25	; 0x07
    438e:	88 87       	std	Y+8, r24	; 0x08
    4390:	82 8d       	ldd	r24, Z+26	; 0x1a
    4392:	89 87       	std	Y+9, r24	; 0x09
    4394:	83 8d       	ldd	r24, Z+27	; 0x1b
    4396:	8a 87       	std	Y+10, r24	; 0x0a
    4398:	84 8d       	ldd	r24, Z+28	; 0x1c
    439a:	8b 87       	std	Y+11, r24	; 0x0b
    439c:	85 8d       	ldd	r24, Z+29	; 0x1d
    439e:	8c 87       	std	Y+12, r24	; 0x0c
    43a0:	4c e0       	ldi	r20, 0x0C	; 12
    43a2:	50 e0       	ldi	r21, 0x00	; 0
    43a4:	b6 01       	movw	r22, r12
    43a6:	c8 01       	movw	r24, r16
    43a8:	0e 94 d9 08 	call	0x11b2	; 0x11b2 <_ZN11EthernetUDP5writeEPKhj>
    43ac:	87 e3       	ldi	r24, 0x37	; 55
    43ae:	89 83       	std	Y+1, r24	; 0x01
    43b0:	86 e0       	ldi	r24, 0x06	; 6
    43b2:	8a 83       	std	Y+2, r24	; 0x02
    43b4:	91 e0       	ldi	r25, 0x01	; 1
    43b6:	9b 83       	std	Y+3, r25	; 0x03
    43b8:	93 e0       	ldi	r25, 0x03	; 3
    43ba:	9c 83       	std	Y+4, r25	; 0x04
    43bc:	8d 83       	std	Y+5, r24	; 0x05
    43be:	8f e0       	ldi	r24, 0x0F	; 15
    43c0:	8e 83       	std	Y+6, r24	; 0x06
    43c2:	8a e3       	ldi	r24, 0x3A	; 58
    43c4:	8f 83       	std	Y+7, r24	; 0x07
    43c6:	8b e3       	ldi	r24, 0x3B	; 59
    43c8:	88 87       	std	Y+8, r24	; 0x08
    43ca:	8f ef       	ldi	r24, 0xFF	; 255
    43cc:	89 87       	std	Y+9, r24	; 0x09
    43ce:	49 e0       	ldi	r20, 0x09	; 9
    43d0:	50 e0       	ldi	r21, 0x00	; 0
    43d2:	be 01       	movw	r22, r28
    43d4:	6f 5f       	subi	r22, 0xFF	; 255
    43d6:	7f 4f       	sbci	r23, 0xFF	; 255
    43d8:	c8 01       	movw	r24, r16
    43da:	0e 94 d9 08 	call	0x11b2	; 0x11b2 <_ZN11EthernetUDP5writeEPKhj>
    43de:	c8 01       	movw	r24, r16
    43e0:	0e 94 ef 08 	call	0x11de	; 0x11de <_ZN11EthernetUDP9endPacketEv>
    43e4:	ac 96       	adiw	r28, 0x2c	; 44
    43e6:	0f b6       	in	r0, 0x3f	; 63
    43e8:	f8 94       	cli
    43ea:	de bf       	out	0x3e, r29	; 62
    43ec:	0f be       	out	0x3f, r0	; 63
    43ee:	cd bf       	out	0x3d, r28	; 61
    43f0:	df 91       	pop	r29
    43f2:	cf 91       	pop	r28
    43f4:	1f 91       	pop	r17
    43f6:	0f 91       	pop	r16
    43f8:	ff 90       	pop	r15
    43fa:	ef 90       	pop	r14
    43fc:	df 90       	pop	r13
    43fe:	cf 90       	pop	r12
    4400:	bf 90       	pop	r11
    4402:	af 90       	pop	r10
    4404:	9f 90       	pop	r9
    4406:	8f 90       	pop	r8
    4408:	7f 90       	pop	r7
    440a:	6f 90       	pop	r6
    440c:	5f 90       	pop	r5
    440e:	08 95       	ret

00004410 <_ZN9DhcpClass18request_DHCP_leaseEv>:
    4410:	2f 92       	push	r2
    4412:	3f 92       	push	r3
    4414:	4f 92       	push	r4
    4416:	5f 92       	push	r5
    4418:	6f 92       	push	r6
    441a:	7f 92       	push	r7
    441c:	8f 92       	push	r8
    441e:	9f 92       	push	r9
    4420:	af 92       	push	r10
    4422:	bf 92       	push	r11
    4424:	cf 92       	push	r12
    4426:	df 92       	push	r13
    4428:	ef 92       	push	r14
    442a:	ff 92       	push	r15
    442c:	0f 93       	push	r16
    442e:	1f 93       	push	r17
    4430:	cf 93       	push	r28
    4432:	df 93       	push	r29
    4434:	cd b7       	in	r28, 0x3d	; 61
    4436:	de b7       	in	r29, 0x3e	; 62
    4438:	2b 97       	sbiw	r28, 0x0b	; 11
    443a:	0f b6       	in	r0, 0x3f	; 63
    443c:	f8 94       	cli
    443e:	de bf       	out	0x3e, r29	; 62
    4440:	0f be       	out	0x3f, r0	; 63
    4442:	cd bf       	out	0x3d, r28	; 61
    4444:	8c 01       	movw	r16, r24
    4446:	20 ed       	ldi	r18, 0xD0	; 208
    4448:	37 e0       	ldi	r19, 0x07	; 7
    444a:	40 e0       	ldi	r20, 0x00	; 0
    444c:	50 e0       	ldi	r21, 0x00	; 0
    444e:	61 e0       	ldi	r22, 0x01	; 1
    4450:	70 e0       	ldi	r23, 0x00	; 0
    4452:	80 e0       	ldi	r24, 0x00	; 0
    4454:	90 e0       	ldi	r25, 0x00	; 0
    4456:	0e 94 d3 27 	call	0x4fa6	; 0x4fa6 <_Z6randomll>
    445a:	f8 01       	movw	r30, r16
    445c:	64 83       	std	Z+4, r22	; 0x04
    445e:	75 83       	std	Z+5, r23	; 0x05
    4460:	86 83       	std	Z+6, r24	; 0x06
    4462:	97 83       	std	Z+7, r25	; 0x07
    4464:	60 83       	st	Z, r22
    4466:	71 83       	std	Z+1, r23	; 0x01
    4468:	82 83       	std	Z+2, r24	; 0x02
    446a:	93 83       	std	Z+3, r25	; 0x03
    446c:	c8 01       	movw	r24, r16
    446e:	89 5b       	subi	r24, 0xB9	; 185
    4470:	9f 4f       	sbci	r25, 0xFF	; 255
    4472:	99 87       	std	Y+9, r25	; 0x09
    4474:	88 87       	std	Y+8, r24	; 0x08
    4476:	64 e4       	ldi	r22, 0x44	; 68
    4478:	70 e0       	ldi	r23, 0x00	; 0
    447a:	0e 94 5f 09 	call	0x12be	; 0x12be <_ZN11EthernetUDP5beginEj>
    447e:	88 23       	and	r24, r24
    4480:	09 f4       	brne	.+2      	; 0x4484 <_ZN9DhcpClass18request_DHCP_leaseEv+0x74>
    4482:	2a c1       	rjmp	.+596    	; 0x46d8 <_ZN9DhcpClass18request_DHCP_leaseEv+0x2c8>
    4484:	0e 94 20 18 	call	0x3040	; 0x3040 <millis>
    4488:	6b 01       	movw	r12, r22
    448a:	7c 01       	movw	r14, r24
    448c:	21 2c       	mov	r2, r1
    448e:	31 2c       	mov	r3, r1
    4490:	1d 82       	std	Y+5, r1	; 0x05
    4492:	f8 01       	movw	r30, r16
    4494:	ea 5b       	subi	r30, 0xBA	; 186
    4496:	ff 4f       	sbci	r31, 0xFF	; 255
    4498:	ff 83       	std	Y+7, r31	; 0x07
    449a:	ee 83       	std	Y+6, r30	; 0x06
    449c:	c8 01       	movw	r24, r16
    449e:	ce 96       	adiw	r24, 0x3e	; 62
    44a0:	9b 87       	std	Y+11, r25	; 0x0b
    44a2:	8a 87       	std	Y+10, r24	; 0x0a
    44a4:	44 e8       	ldi	r20, 0x84	; 132
    44a6:	44 2e       	mov	r4, r20
    44a8:	43 e0       	ldi	r20, 0x03	; 3
    44aa:	54 2e       	mov	r5, r20
    44ac:	61 2c       	mov	r6, r1
    44ae:	71 2c       	mov	r7, r1
    44b0:	58 ee       	ldi	r21, 0xE8	; 232
    44b2:	85 2e       	mov	r8, r21
    44b4:	53 e0       	ldi	r21, 0x03	; 3
    44b6:	95 2e       	mov	r9, r21
    44b8:	a1 2c       	mov	r10, r1
    44ba:	b1 2c       	mov	r11, r1
    44bc:	f5 c0       	rjmp	.+490    	; 0x46a8 <_ZN9DhcpClass18request_DHCP_leaseEv+0x298>
    44be:	81 11       	cpse	r24, r1
    44c0:	1e c0       	rjmp	.+60     	; 0x44fe <_ZN9DhcpClass18request_DHCP_leaseEv+0xee>
    44c2:	f8 01       	movw	r30, r16
    44c4:	44 81       	ldd	r20, Z+4	; 0x04
    44c6:	55 81       	ldd	r21, Z+5	; 0x05
    44c8:	66 81       	ldd	r22, Z+6	; 0x06
    44ca:	77 81       	ldd	r23, Z+7	; 0x07
    44cc:	4f 5f       	subi	r20, 0xFF	; 255
    44ce:	5f 4f       	sbci	r21, 0xFF	; 255
    44d0:	6f 4f       	sbci	r22, 0xFF	; 255
    44d2:	7f 4f       	sbci	r23, 0xFF	; 255
    44d4:	44 83       	std	Z+4, r20	; 0x04
    44d6:	55 83       	std	Z+5, r21	; 0x05
    44d8:	66 83       	std	Z+6, r22	; 0x06
    44da:	77 83       	std	Z+7, r23	; 0x07
    44dc:	0e 94 20 18 	call	0x3040	; 0x3040 <millis>
    44e0:	6c 19       	sub	r22, r12
    44e2:	7d 09       	sbc	r23, r13
    44e4:	8e 09       	sbc	r24, r14
    44e6:	9f 09       	sbc	r25, r15
    44e8:	a5 01       	movw	r20, r10
    44ea:	94 01       	movw	r18, r8
    44ec:	0e 94 b1 30 	call	0x6162	; 0x6162 <__udivmodsi4>
    44f0:	a9 01       	movw	r20, r18
    44f2:	61 e0       	ldi	r22, 0x01	; 1
    44f4:	c8 01       	movw	r24, r16
    44f6:	0e 94 e8 20 	call	0x41d0	; 0x41d0 <_ZN9DhcpClass17send_DHCP_MESSAGEEhj>
    44fa:	81 e0       	ldi	r24, 0x01	; 1
    44fc:	1f c0       	rjmp	.+62     	; 0x453c <_ZN9DhcpClass18request_DHCP_leaseEv+0x12c>
    44fe:	84 30       	cpi	r24, 0x04	; 4
    4500:	09 f5       	brne	.+66     	; 0x4544 <_ZN9DhcpClass18request_DHCP_leaseEv+0x134>
    4502:	f8 01       	movw	r30, r16
    4504:	44 81       	ldd	r20, Z+4	; 0x04
    4506:	55 81       	ldd	r21, Z+5	; 0x05
    4508:	66 81       	ldd	r22, Z+6	; 0x06
    450a:	77 81       	ldd	r23, Z+7	; 0x07
    450c:	4f 5f       	subi	r20, 0xFF	; 255
    450e:	5f 4f       	sbci	r21, 0xFF	; 255
    4510:	6f 4f       	sbci	r22, 0xFF	; 255
    4512:	7f 4f       	sbci	r23, 0xFF	; 255
    4514:	44 83       	std	Z+4, r20	; 0x04
    4516:	55 83       	std	Z+5, r21	; 0x05
    4518:	66 83       	std	Z+6, r22	; 0x06
    451a:	77 83       	std	Z+7, r23	; 0x07
    451c:	0e 94 20 18 	call	0x3040	; 0x3040 <millis>
    4520:	6c 19       	sub	r22, r12
    4522:	7d 09       	sbc	r23, r13
    4524:	8e 09       	sbc	r24, r14
    4526:	9f 09       	sbc	r25, r15
    4528:	a5 01       	movw	r20, r10
    452a:	94 01       	movw	r18, r8
    452c:	0e 94 b1 30 	call	0x6162	; 0x6162 <__udivmodsi4>
    4530:	a9 01       	movw	r20, r18
    4532:	63 e0       	ldi	r22, 0x03	; 3
    4534:	c8 01       	movw	r24, r16
    4536:	0e 94 e8 20 	call	0x41d0	; 0x41d0 <_ZN9DhcpClass17send_DHCP_MESSAGEEhj>
    453a:	82 e0       	ldi	r24, 0x02	; 2
    453c:	ee 81       	ldd	r30, Y+6	; 0x06
    453e:	ff 81       	ldd	r31, Y+7	; 0x07
    4540:	80 83       	st	Z, r24
    4542:	97 c0       	rjmp	.+302    	; 0x4672 <_ZN9DhcpClass18request_DHCP_leaseEv+0x262>
    4544:	81 30       	cpi	r24, 0x01	; 1
    4546:	69 f5       	brne	.+90     	; 0x45a2 <_ZN9DhcpClass18request_DHCP_leaseEv+0x192>
    4548:	ea 85       	ldd	r30, Y+10	; 0x0a
    454a:	fb 85       	ldd	r31, Y+11	; 0x0b
    454c:	40 81       	ld	r20, Z
    454e:	51 81       	ldd	r21, Z+1	; 0x01
    4550:	62 81       	ldd	r22, Z+2	; 0x02
    4552:	73 81       	ldd	r23, Z+3	; 0x03
    4554:	9e 01       	movw	r18, r28
    4556:	2f 5f       	subi	r18, 0xFF	; 255
    4558:	3f 4f       	sbci	r19, 0xFF	; 255
    455a:	c8 01       	movw	r24, r16
    455c:	0e 94 ba 1e 	call	0x3d74	; 0x3d74 <_ZN9DhcpClass17parseDHCPResponseEmRm>
    4560:	8d 83       	std	Y+5, r24	; 0x05
    4562:	82 30       	cpi	r24, 0x02	; 2
    4564:	09 f0       	breq	.+2      	; 0x4568 <_ZN9DhcpClass18request_DHCP_leaseEv+0x158>
    4566:	85 c0       	rjmp	.+266    	; 0x4672 <_ZN9DhcpClass18request_DHCP_leaseEv+0x262>
    4568:	89 81       	ldd	r24, Y+1	; 0x01
    456a:	9a 81       	ldd	r25, Y+2	; 0x02
    456c:	ab 81       	ldd	r26, Y+3	; 0x03
    456e:	bc 81       	ldd	r27, Y+4	; 0x04
    4570:	f8 01       	movw	r30, r16
    4572:	84 83       	std	Z+4, r24	; 0x04
    4574:	95 83       	std	Z+5, r25	; 0x05
    4576:	a6 83       	std	Z+6, r26	; 0x06
    4578:	b7 83       	std	Z+7, r27	; 0x07
    457a:	0e 94 20 18 	call	0x3040	; 0x3040 <millis>
    457e:	6c 19       	sub	r22, r12
    4580:	7d 09       	sbc	r23, r13
    4582:	8e 09       	sbc	r24, r14
    4584:	9f 09       	sbc	r25, r15
    4586:	a5 01       	movw	r20, r10
    4588:	94 01       	movw	r18, r8
    458a:	0e 94 b1 30 	call	0x6162	; 0x6162 <__udivmodsi4>
    458e:	a9 01       	movw	r20, r18
    4590:	63 e0       	ldi	r22, 0x03	; 3
    4592:	c8 01       	movw	r24, r16
    4594:	0e 94 e8 20 	call	0x41d0	; 0x41d0 <_ZN9DhcpClass17send_DHCP_MESSAGEEhj>
    4598:	8d 81       	ldd	r24, Y+5	; 0x05
    459a:	ee 81       	ldd	r30, Y+6	; 0x06
    459c:	ff 81       	ldd	r31, Y+7	; 0x07
    459e:	80 83       	st	Z, r24
    45a0:	6f c0       	rjmp	.+222    	; 0x4680 <_ZN9DhcpClass18request_DHCP_leaseEv+0x270>
    45a2:	82 30       	cpi	r24, 0x02	; 2
    45a4:	09 f0       	breq	.+2      	; 0x45a8 <_ZN9DhcpClass18request_DHCP_leaseEv+0x198>
    45a6:	65 c0       	rjmp	.+202    	; 0x4672 <_ZN9DhcpClass18request_DHCP_leaseEv+0x262>
    45a8:	ea 85       	ldd	r30, Y+10	; 0x0a
    45aa:	fb 85       	ldd	r31, Y+11	; 0x0b
    45ac:	40 81       	ld	r20, Z
    45ae:	51 81       	ldd	r21, Z+1	; 0x01
    45b0:	62 81       	ldd	r22, Z+2	; 0x02
    45b2:	73 81       	ldd	r23, Z+3	; 0x03
    45b4:	9e 01       	movw	r18, r28
    45b6:	2f 5f       	subi	r18, 0xFF	; 255
    45b8:	3f 4f       	sbci	r19, 0xFF	; 255
    45ba:	c8 01       	movw	r24, r16
    45bc:	0e 94 ba 1e 	call	0x3d74	; 0x3d74 <_ZN9DhcpClass17parseDHCPResponseEmRm>
    45c0:	8d 83       	std	Y+5, r24	; 0x05
    45c2:	85 30       	cpi	r24, 0x05	; 5
    45c4:	09 f0       	breq	.+2      	; 0x45c8 <_ZN9DhcpClass18request_DHCP_leaseEv+0x1b8>
    45c6:	4e c0       	rjmp	.+156    	; 0x4664 <_ZN9DhcpClass18request_DHCP_leaseEv+0x254>
    45c8:	83 e0       	ldi	r24, 0x03	; 3
    45ca:	ee 81       	ldd	r30, Y+6	; 0x06
    45cc:	ff 81       	ldd	r31, Y+7	; 0x07
    45ce:	80 83       	st	Z, r24
    45d0:	f8 01       	movw	r30, r16
    45d2:	82 a1       	ldd	r24, Z+34	; 0x22
    45d4:	93 a1       	ldd	r25, Z+35	; 0x23
    45d6:	a4 a1       	ldd	r26, Z+36	; 0x24
    45d8:	b5 a1       	ldd	r27, Z+37	; 0x25
    45da:	89 2b       	or	r24, r25
    45dc:	8a 2b       	or	r24, r26
    45de:	8b 2b       	or	r24, r27
    45e0:	21 f4       	brne	.+8      	; 0x45ea <_ZN9DhcpClass18request_DHCP_leaseEv+0x1da>
    45e2:	42 a2       	std	Z+34, r4	; 0x22
    45e4:	53 a2       	std	Z+35, r5	; 0x23
    45e6:	64 a2       	std	Z+36, r6	; 0x24
    45e8:	75 a2       	std	Z+37, r7	; 0x25
    45ea:	f8 01       	movw	r30, r16
    45ec:	86 a1       	ldd	r24, Z+38	; 0x26
    45ee:	97 a1       	ldd	r25, Z+39	; 0x27
    45f0:	a0 a5       	ldd	r26, Z+40	; 0x28
    45f2:	b1 a5       	ldd	r27, Z+41	; 0x29
    45f4:	89 2b       	or	r24, r25
    45f6:	8a 2b       	or	r24, r26
    45f8:	8b 2b       	or	r24, r27
    45fa:	61 f4       	brne	.+24     	; 0x4614 <_ZN9DhcpClass18request_DHCP_leaseEv+0x204>
    45fc:	42 a1       	ldd	r20, Z+34	; 0x22
    45fe:	53 a1       	ldd	r21, Z+35	; 0x23
    4600:	64 a1       	ldd	r22, Z+36	; 0x24
    4602:	75 a1       	ldd	r23, Z+37	; 0x25
    4604:	76 95       	lsr	r23
    4606:	67 95       	ror	r22
    4608:	57 95       	ror	r21
    460a:	47 95       	ror	r20
    460c:	46 a3       	std	Z+38, r20	; 0x26
    460e:	57 a3       	std	Z+39, r21	; 0x27
    4610:	60 a7       	std	Z+40, r22	; 0x28
    4612:	71 a7       	std	Z+41, r23	; 0x29
    4614:	f8 01       	movw	r30, r16
    4616:	82 a5       	ldd	r24, Z+42	; 0x2a
    4618:	93 a5       	ldd	r25, Z+43	; 0x2b
    461a:	a4 a5       	ldd	r26, Z+44	; 0x2c
    461c:	b5 a5       	ldd	r27, Z+45	; 0x2d
    461e:	46 a1       	ldd	r20, Z+38	; 0x26
    4620:	57 a1       	ldd	r21, Z+39	; 0x27
    4622:	60 a5       	ldd	r22, Z+40	; 0x28
    4624:	71 a5       	ldd	r23, Z+41	; 0x29
    4626:	89 2b       	or	r24, r25
    4628:	8a 2b       	or	r24, r26
    462a:	8b 2b       	or	r24, r27
    462c:	51 f4       	brne	.+20     	; 0x4642 <_ZN9DhcpClass18request_DHCP_leaseEv+0x232>
    462e:	db 01       	movw	r26, r22
    4630:	ca 01       	movw	r24, r20
    4632:	88 0f       	add	r24, r24
    4634:	99 1f       	adc	r25, r25
    4636:	aa 1f       	adc	r26, r26
    4638:	bb 1f       	adc	r27, r27
    463a:	82 a7       	std	Z+42, r24	; 0x2a
    463c:	93 a7       	std	Z+43, r25	; 0x2b
    463e:	a4 a7       	std	Z+44, r26	; 0x2c
    4640:	b5 a7       	std	Z+45, r27	; 0x2d
    4642:	f8 01       	movw	r30, r16
    4644:	46 a7       	std	Z+46, r20	; 0x2e
    4646:	57 a7       	std	Z+47, r21	; 0x2f
    4648:	60 ab       	std	Z+48, r22	; 0x30
    464a:	71 ab       	std	Z+49, r23	; 0x31
    464c:	82 a5       	ldd	r24, Z+42	; 0x2a
    464e:	93 a5       	ldd	r25, Z+43	; 0x2b
    4650:	a4 a5       	ldd	r26, Z+44	; 0x2c
    4652:	b5 a5       	ldd	r27, Z+45	; 0x2d
    4654:	82 ab       	std	Z+50, r24	; 0x32
    4656:	93 ab       	std	Z+51, r25	; 0x33
    4658:	a4 ab       	std	Z+52, r26	; 0x34
    465a:	b5 ab       	std	Z+53, r27	; 0x35
    465c:	22 24       	eor	r2, r2
    465e:	23 94       	inc	r2
    4660:	31 2c       	mov	r3, r1
    4662:	0e c0       	rjmp	.+28     	; 0x4680 <_ZN9DhcpClass18request_DHCP_leaseEv+0x270>
    4664:	fd 81       	ldd	r31, Y+5	; 0x05
    4666:	f6 30       	cpi	r31, 0x06	; 6
    4668:	21 f4       	brne	.+8      	; 0x4672 <_ZN9DhcpClass18request_DHCP_leaseEv+0x262>
    466a:	ee 81       	ldd	r30, Y+6	; 0x06
    466c:	ff 81       	ldd	r31, Y+7	; 0x07
    466e:	10 82       	st	Z, r1
    4670:	07 c0       	rjmp	.+14     	; 0x4680 <_ZN9DhcpClass18request_DHCP_leaseEv+0x270>
    4672:	fd 81       	ldd	r31, Y+5	; 0x05
    4674:	ff 3f       	cpi	r31, 0xFF	; 255
    4676:	21 f4       	brne	.+8      	; 0x4680 <_ZN9DhcpClass18request_DHCP_leaseEv+0x270>
    4678:	ee 81       	ldd	r30, Y+6	; 0x06
    467a:	ff 81       	ldd	r31, Y+7	; 0x07
    467c:	10 82       	st	Z, r1
    467e:	1d 82       	std	Y+5, r1	; 0x05
    4680:	f1 e0       	ldi	r31, 0x01	; 1
    4682:	2f 16       	cp	r2, r31
    4684:	31 04       	cpc	r3, r1
    4686:	81 f0       	breq	.+32     	; 0x46a8 <_ZN9DhcpClass18request_DHCP_leaseEv+0x298>
    4688:	0e 94 20 18 	call	0x3040	; 0x3040 <millis>
    468c:	6c 19       	sub	r22, r12
    468e:	7d 09       	sbc	r23, r13
    4690:	8e 09       	sbc	r24, r14
    4692:	9f 09       	sbc	r25, r15
    4694:	f8 01       	movw	r30, r16
    4696:	22 ad       	ldd	r18, Z+58	; 0x3a
    4698:	33 ad       	ldd	r19, Z+59	; 0x3b
    469a:	44 ad       	ldd	r20, Z+60	; 0x3c
    469c:	55 ad       	ldd	r21, Z+61	; 0x3d
    469e:	26 17       	cp	r18, r22
    46a0:	37 07       	cpc	r19, r23
    46a2:	48 07       	cpc	r20, r24
    46a4:	59 07       	cpc	r21, r25
    46a6:	30 f0       	brcs	.+12     	; 0x46b4 <_ZN9DhcpClass18request_DHCP_leaseEv+0x2a4>
    46a8:	ee 81       	ldd	r30, Y+6	; 0x06
    46aa:	ff 81       	ldd	r31, Y+7	; 0x07
    46ac:	80 81       	ld	r24, Z
    46ae:	83 30       	cpi	r24, 0x03	; 3
    46b0:	09 f0       	breq	.+2      	; 0x46b4 <_ZN9DhcpClass18request_DHCP_leaseEv+0x2a4>
    46b2:	05 cf       	rjmp	.-502    	; 0x44be <_ZN9DhcpClass18request_DHCP_leaseEv+0xae>
    46b4:	88 85       	ldd	r24, Y+8	; 0x08
    46b6:	99 85       	ldd	r25, Y+9	; 0x09
    46b8:	0e 94 fb 08 	call	0x11f6	; 0x11f6 <_ZN11EthernetUDP4stopEv>
    46bc:	f8 01       	movw	r30, r16
    46be:	44 81       	ldd	r20, Z+4	; 0x04
    46c0:	55 81       	ldd	r21, Z+5	; 0x05
    46c2:	66 81       	ldd	r22, Z+6	; 0x06
    46c4:	77 81       	ldd	r23, Z+7	; 0x07
    46c6:	4f 5f       	subi	r20, 0xFF	; 255
    46c8:	5f 4f       	sbci	r21, 0xFF	; 255
    46ca:	6f 4f       	sbci	r22, 0xFF	; 255
    46cc:	7f 4f       	sbci	r23, 0xFF	; 255
    46ce:	44 83       	std	Z+4, r20	; 0x04
    46d0:	55 83       	std	Z+5, r21	; 0x05
    46d2:	66 83       	std	Z+6, r22	; 0x06
    46d4:	77 83       	std	Z+7, r23	; 0x07
    46d6:	02 c0       	rjmp	.+4      	; 0x46dc <_ZN9DhcpClass18request_DHCP_leaseEv+0x2cc>
    46d8:	21 2c       	mov	r2, r1
    46da:	31 2c       	mov	r3, r1
    46dc:	c1 01       	movw	r24, r2
    46de:	2b 96       	adiw	r28, 0x0b	; 11
    46e0:	0f b6       	in	r0, 0x3f	; 63
    46e2:	f8 94       	cli
    46e4:	de bf       	out	0x3e, r29	; 62
    46e6:	0f be       	out	0x3f, r0	; 63
    46e8:	cd bf       	out	0x3d, r28	; 61
    46ea:	df 91       	pop	r29
    46ec:	cf 91       	pop	r28
    46ee:	1f 91       	pop	r17
    46f0:	0f 91       	pop	r16
    46f2:	ff 90       	pop	r15
    46f4:	ef 90       	pop	r14
    46f6:	df 90       	pop	r13
    46f8:	cf 90       	pop	r12
    46fa:	bf 90       	pop	r11
    46fc:	af 90       	pop	r10
    46fe:	9f 90       	pop	r9
    4700:	8f 90       	pop	r8
    4702:	7f 90       	pop	r7
    4704:	6f 90       	pop	r6
    4706:	5f 90       	pop	r5
    4708:	4f 90       	pop	r4
    470a:	3f 90       	pop	r3
    470c:	2f 90       	pop	r2
    470e:	08 95       	ret

00004710 <_ZN9DhcpClass10checkLeaseEv>:
    4710:	8f 92       	push	r8
    4712:	9f 92       	push	r9
    4714:	af 92       	push	r10
    4716:	bf 92       	push	r11
    4718:	cf 92       	push	r12
    471a:	df 92       	push	r13
    471c:	ef 92       	push	r14
    471e:	ff 92       	push	r15
    4720:	0f 93       	push	r16
    4722:	1f 93       	push	r17
    4724:	cf 93       	push	r28
    4726:	df 93       	push	r29
    4728:	ec 01       	movw	r28, r24
    472a:	0e 94 20 18 	call	0x3040	; 0x3040 <millis>
    472e:	6b 01       	movw	r12, r22
    4730:	7c 01       	movw	r14, r24
    4732:	8e a9       	ldd	r24, Y+54	; 0x36
    4734:	9f a9       	ldd	r25, Y+55	; 0x37
    4736:	a8 ad       	ldd	r26, Y+56	; 0x38
    4738:	b9 ad       	ldd	r27, Y+57	; 0x39
    473a:	8e 01       	movw	r16, r28
    473c:	0e 5b       	subi	r16, 0xBE	; 190
    473e:	1f 4f       	sbci	r17, 0xFF	; 255
    4740:	89 2b       	or	r24, r25
    4742:	8a 2b       	or	r24, r26
    4744:	8b 2b       	or	r24, r27
    4746:	09 f4       	brne	.+2      	; 0x474a <_ZN9DhcpClass10checkLeaseEv+0x3a>
    4748:	98 c0       	rjmp	.+304    	; 0x487a <_ZN9DhcpClass10checkLeaseEv+0x16a>
    474a:	f8 01       	movw	r30, r16
    474c:	80 81       	ld	r24, Z
    474e:	91 81       	ldd	r25, Z+1	; 0x01
    4750:	a2 81       	ldd	r26, Z+2	; 0x02
    4752:	b3 81       	ldd	r27, Z+3	; 0x03
    4754:	a7 01       	movw	r20, r14
    4756:	96 01       	movw	r18, r12
    4758:	28 1b       	sub	r18, r24
    475a:	39 0b       	sbc	r19, r25
    475c:	4a 0b       	sbc	r20, r26
    475e:	5b 0b       	sbc	r21, r27
    4760:	ca 01       	movw	r24, r20
    4762:	b9 01       	movw	r22, r18
    4764:	57 fd       	sbrc	r21, 7
    4766:	51 c0       	rjmp	.+162    	; 0x480a <_ZN9DhcpClass10checkLeaseEv+0xfa>
    4768:	e8 ee       	ldi	r30, 0xE8	; 232
    476a:	8e 2e       	mov	r8, r30
    476c:	e3 e0       	ldi	r30, 0x03	; 3
    476e:	9e 2e       	mov	r9, r30
    4770:	a1 2c       	mov	r10, r1
    4772:	b1 2c       	mov	r11, r1
    4774:	8c 0c       	add	r8, r12
    4776:	9d 1c       	adc	r9, r13
    4778:	ae 1c       	adc	r10, r14
    477a:	bf 1c       	adc	r11, r15
    477c:	28 ee       	ldi	r18, 0xE8	; 232
    477e:	33 e0       	ldi	r19, 0x03	; 3
    4780:	40 e0       	ldi	r20, 0x00	; 0
    4782:	50 e0       	ldi	r21, 0x00	; 0
    4784:	0e 94 d3 30 	call	0x61a6	; 0x61a6 <__divmodsi4>
    4788:	86 1a       	sub	r8, r22
    478a:	97 0a       	sbc	r9, r23
    478c:	a8 0a       	sbc	r10, r24
    478e:	b9 0a       	sbc	r11, r25
    4790:	f8 01       	movw	r30, r16
    4792:	80 82       	st	Z, r8
    4794:	91 82       	std	Z+1, r9	; 0x01
    4796:	a2 82       	std	Z+2, r10	; 0x02
    4798:	b3 82       	std	Z+3, r11	; 0x03
    479a:	ba 01       	movw	r22, r20
    479c:	a9 01       	movw	r20, r18
    479e:	4f 5f       	subi	r20, 0xFF	; 255
    47a0:	5f 4f       	sbci	r21, 0xFF	; 255
    47a2:	6f 4f       	sbci	r22, 0xFF	; 255
    47a4:	7f 4f       	sbci	r23, 0xFF	; 255
    47a6:	8e a4       	ldd	r8, Y+46	; 0x2e
    47a8:	9f a4       	ldd	r9, Y+47	; 0x2f
    47aa:	a8 a8       	ldd	r10, Y+48	; 0x30
    47ac:	b9 a8       	ldd	r11, Y+49	; 0x31
    47ae:	8a 01       	movw	r16, r20
    47b0:	9b 01       	movw	r18, r22
    47b2:	00 0f       	add	r16, r16
    47b4:	11 1f       	adc	r17, r17
    47b6:	22 1f       	adc	r18, r18
    47b8:	33 1f       	adc	r19, r19
    47ba:	80 16       	cp	r8, r16
    47bc:	91 06       	cpc	r9, r17
    47be:	a2 06       	cpc	r10, r18
    47c0:	b3 06       	cpc	r11, r19
    47c2:	2c f4       	brge	.+10     	; 0x47ce <_ZN9DhcpClass10checkLeaseEv+0xbe>
    47c4:	1e a6       	std	Y+46, r1	; 0x2e
    47c6:	1f a6       	std	Y+47, r1	; 0x2f
    47c8:	18 aa       	std	Y+48, r1	; 0x30
    47ca:	19 aa       	std	Y+49, r1	; 0x31
    47cc:	08 c0       	rjmp	.+16     	; 0x47de <_ZN9DhcpClass10checkLeaseEv+0xce>
    47ce:	84 1a       	sub	r8, r20
    47d0:	95 0a       	sbc	r9, r21
    47d2:	a6 0a       	sbc	r10, r22
    47d4:	b7 0a       	sbc	r11, r23
    47d6:	8e a6       	std	Y+46, r8	; 0x2e
    47d8:	9f a6       	std	Y+47, r9	; 0x2f
    47da:	a8 aa       	std	Y+48, r10	; 0x30
    47dc:	b9 aa       	std	Y+49, r11	; 0x31
    47de:	8a a8       	ldd	r8, Y+50	; 0x32
    47e0:	9b a8       	ldd	r9, Y+51	; 0x33
    47e2:	ac a8       	ldd	r10, Y+52	; 0x34
    47e4:	bd a8       	ldd	r11, Y+53	; 0x35
    47e6:	80 16       	cp	r8, r16
    47e8:	91 06       	cpc	r9, r17
    47ea:	a2 06       	cpc	r10, r18
    47ec:	b3 06       	cpc	r11, r19
    47ee:	2c f4       	brge	.+10     	; 0x47fa <_ZN9DhcpClass10checkLeaseEv+0xea>
    47f0:	1a aa       	std	Y+50, r1	; 0x32
    47f2:	1b aa       	std	Y+51, r1	; 0x33
    47f4:	1c aa       	std	Y+52, r1	; 0x34
    47f6:	1d aa       	std	Y+53, r1	; 0x35
    47f8:	08 c0       	rjmp	.+16     	; 0x480a <_ZN9DhcpClass10checkLeaseEv+0xfa>
    47fa:	84 1a       	sub	r8, r20
    47fc:	95 0a       	sbc	r9, r21
    47fe:	a6 0a       	sbc	r10, r22
    4800:	b7 0a       	sbc	r11, r23
    4802:	8a aa       	std	Y+50, r8	; 0x32
    4804:	9b aa       	std	Y+51, r9	; 0x33
    4806:	ac aa       	std	Y+52, r10	; 0x34
    4808:	bd aa       	std	Y+53, r11	; 0x35
    480a:	8e 01       	movw	r16, r28
    480c:	0a 5b       	subi	r16, 0xBA	; 186
    480e:	1f 4f       	sbci	r17, 0xFF	; 255
    4810:	f8 01       	movw	r30, r16
    4812:	80 81       	ld	r24, Z
    4814:	83 30       	cpi	r24, 0x03	; 3
    4816:	91 f4       	brne	.+36     	; 0x483c <_ZN9DhcpClass10checkLeaseEv+0x12c>
    4818:	4e a5       	ldd	r20, Y+46	; 0x2e
    481a:	5f a5       	ldd	r21, Y+47	; 0x2f
    481c:	68 a9       	ldd	r22, Y+48	; 0x30
    481e:	79 a9       	ldd	r23, Y+49	; 0x31
    4820:	14 16       	cp	r1, r20
    4822:	15 06       	cpc	r1, r21
    4824:	16 06       	cpc	r1, r22
    4826:	17 06       	cpc	r1, r23
    4828:	4c f0       	brlt	.+18     	; 0x483c <_ZN9DhcpClass10checkLeaseEv+0x12c>
    482a:	84 e0       	ldi	r24, 0x04	; 4
    482c:	80 83       	st	Z, r24
    482e:	ce 01       	movw	r24, r28
    4830:	0e 94 08 22 	call	0x4410	; 0x4410 <_ZN9DhcpClass18request_DHCP_leaseEv>
    4834:	9c 01       	movw	r18, r24
    4836:	2f 5f       	subi	r18, 0xFF	; 255
    4838:	3f 4f       	sbci	r19, 0xFF	; 255
    483a:	02 c0       	rjmp	.+4      	; 0x4840 <_ZN9DhcpClass10checkLeaseEv+0x130>
    483c:	20 e0       	ldi	r18, 0x00	; 0
    483e:	30 e0       	ldi	r19, 0x00	; 0
    4840:	f8 01       	movw	r30, r16
    4842:	80 81       	ld	r24, Z
    4844:	83 30       	cpi	r24, 0x03	; 3
    4846:	11 f0       	breq	.+4      	; 0x484c <_ZN9DhcpClass10checkLeaseEv+0x13c>
    4848:	81 11       	cpse	r24, r1
    484a:	24 c0       	rjmp	.+72     	; 0x4894 <_ZN9DhcpClass10checkLeaseEv+0x184>
    484c:	4a a9       	ldd	r20, Y+50	; 0x32
    484e:	5b a9       	ldd	r21, Y+51	; 0x33
    4850:	6c a9       	ldd	r22, Y+52	; 0x34
    4852:	7d a9       	ldd	r23, Y+53	; 0x35
    4854:	14 16       	cp	r1, r20
    4856:	15 06       	cpc	r1, r21
    4858:	16 06       	cpc	r1, r22
    485a:	17 06       	cpc	r1, r23
    485c:	dc f0       	brlt	.+54     	; 0x4894 <_ZN9DhcpClass10checkLeaseEv+0x184>
    485e:	fe 01       	movw	r30, r28
    4860:	ea 5b       	subi	r30, 0xBA	; 186
    4862:	ff 4f       	sbci	r31, 0xFF	; 255
    4864:	10 82       	st	Z, r1
    4866:	ce 01       	movw	r24, r28
    4868:	0e 94 b1 1e 	call	0x3d62	; 0x3d62 <_ZN9DhcpClass16reset_DHCP_leaseEv>
    486c:	ce 01       	movw	r24, r28
    486e:	0e 94 08 22 	call	0x4410	; 0x4410 <_ZN9DhcpClass18request_DHCP_leaseEv>
    4872:	9c 01       	movw	r18, r24
    4874:	2d 5f       	subi	r18, 0xFD	; 253
    4876:	3f 4f       	sbci	r19, 0xFF	; 255
    4878:	0d c0       	rjmp	.+26     	; 0x4894 <_ZN9DhcpClass10checkLeaseEv+0x184>
    487a:	b7 01       	movw	r22, r14
    487c:	a6 01       	movw	r20, r12
    487e:	48 51       	subi	r20, 0x18	; 24
    4880:	5c 4f       	sbci	r21, 0xFC	; 252
    4882:	6f 4f       	sbci	r22, 0xFF	; 255
    4884:	7f 4f       	sbci	r23, 0xFF	; 255
    4886:	f8 01       	movw	r30, r16
    4888:	40 83       	st	Z, r20
    488a:	51 83       	std	Z+1, r21	; 0x01
    488c:	62 83       	std	Z+2, r22	; 0x02
    488e:	73 83       	std	Z+3, r23	; 0x03
    4890:	20 e0       	ldi	r18, 0x00	; 0
    4892:	30 e0       	ldi	r19, 0x00	; 0
    4894:	ce aa       	std	Y+54, r12	; 0x36
    4896:	df aa       	std	Y+55, r13	; 0x37
    4898:	e8 ae       	std	Y+56, r14	; 0x38
    489a:	f9 ae       	std	Y+57, r15	; 0x39
    489c:	c9 01       	movw	r24, r18
    489e:	df 91       	pop	r29
    48a0:	cf 91       	pop	r28
    48a2:	1f 91       	pop	r17
    48a4:	0f 91       	pop	r16
    48a6:	ff 90       	pop	r15
    48a8:	ef 90       	pop	r14
    48aa:	df 90       	pop	r13
    48ac:	cf 90       	pop	r12
    48ae:	bf 90       	pop	r11
    48b0:	af 90       	pop	r10
    48b2:	9f 90       	pop	r9
    48b4:	8f 90       	pop	r8
    48b6:	08 95       	ret

000048b8 <_ZN9DhcpClass13beginWithDHCPEPhmm>:
    48b8:	cf 92       	push	r12
    48ba:	df 92       	push	r13
    48bc:	ef 92       	push	r14
    48be:	ff 92       	push	r15
    48c0:	0f 93       	push	r16
    48c2:	1f 93       	push	r17
    48c4:	cf 93       	push	r28
    48c6:	df 93       	push	r29
    48c8:	ec 01       	movw	r28, r24
    48ca:	6b 01       	movw	r12, r22
    48cc:	1a a2       	std	Y+34, r1	; 0x22
    48ce:	1b a2       	std	Y+35, r1	; 0x23
    48d0:	1c a2       	std	Y+36, r1	; 0x24
    48d2:	1d a2       	std	Y+37, r1	; 0x25
    48d4:	1e a2       	std	Y+38, r1	; 0x26
    48d6:	1f a2       	std	Y+39, r1	; 0x27
    48d8:	18 a6       	std	Y+40, r1	; 0x28
    48da:	19 a6       	std	Y+41, r1	; 0x29
    48dc:	1a a6       	std	Y+42, r1	; 0x2a
    48de:	1b a6       	std	Y+43, r1	; 0x2b
    48e0:	1c a6       	std	Y+44, r1	; 0x2c
    48e2:	1d a6       	std	Y+45, r1	; 0x2d
    48e4:	1e aa       	std	Y+54, r1	; 0x36
    48e6:	1f aa       	std	Y+55, r1	; 0x37
    48e8:	18 ae       	std	Y+56, r1	; 0x38
    48ea:	19 ae       	std	Y+57, r1	; 0x39
    48ec:	2a af       	std	Y+58, r18	; 0x3a
    48ee:	3b af       	std	Y+59, r19	; 0x3b
    48f0:	4c af       	std	Y+60, r20	; 0x3c
    48f2:	5d af       	std	Y+61, r21	; 0x3d
    48f4:	fc 01       	movw	r30, r24
    48f6:	fe 96       	adiw	r30, 0x3e	; 62
    48f8:	e0 82       	st	Z, r14
    48fa:	f1 82       	std	Z+1, r15	; 0x01
    48fc:	02 83       	std	Z+2, r16	; 0x02
    48fe:	13 83       	std	Z+3, r17	; 0x03
    4900:	8c 01       	movw	r16, r24
    4902:	08 5f       	subi	r16, 0xF8	; 248
    4904:	1f 4f       	sbci	r17, 0xFF	; 255
    4906:	86 e0       	ldi	r24, 0x06	; 6
    4908:	f8 01       	movw	r30, r16
    490a:	11 92       	st	Z+, r1
    490c:	8a 95       	dec	r24
    490e:	e9 f7       	brne	.-6      	; 0x490a <_ZN9DhcpClass13beginWithDHCPEPhmm+0x52>
    4910:	ce 01       	movw	r24, r28
    4912:	0e 94 b1 1e 	call	0x3d62	; 0x3d62 <_ZN9DhcpClass16reset_DHCP_leaseEv>
    4916:	86 e0       	ldi	r24, 0x06	; 6
    4918:	f6 01       	movw	r30, r12
    491a:	d8 01       	movw	r26, r16
    491c:	01 90       	ld	r0, Z+
    491e:	0d 92       	st	X+, r0
    4920:	8a 95       	dec	r24
    4922:	e1 f7       	brne	.-8      	; 0x491c <_ZN9DhcpClass13beginWithDHCPEPhmm+0x64>
    4924:	fe 01       	movw	r30, r28
    4926:	ea 5b       	subi	r30, 0xBA	; 186
    4928:	ff 4f       	sbci	r31, 0xFF	; 255
    492a:	10 82       	st	Z, r1
    492c:	ce 01       	movw	r24, r28
    492e:	df 91       	pop	r29
    4930:	cf 91       	pop	r28
    4932:	1f 91       	pop	r17
    4934:	0f 91       	pop	r16
    4936:	ff 90       	pop	r15
    4938:	ef 90       	pop	r14
    493a:	df 90       	pop	r13
    493c:	cf 90       	pop	r12
    493e:	0c 94 08 22 	jmp	0x4410	; 0x4410 <_ZN9DhcpClass18request_DHCP_leaseEv>

00004942 <_ZN9DNSClient5beginERK9IPAddress>:
    4942:	fb 01       	movw	r30, r22
    4944:	42 81       	ldd	r20, Z+2	; 0x02
    4946:	53 81       	ldd	r21, Z+3	; 0x03
    4948:	64 81       	ldd	r22, Z+4	; 0x04
    494a:	75 81       	ldd	r23, Z+5	; 0x05
    494c:	fc 01       	movw	r30, r24
    494e:	42 83       	std	Z+2, r20	; 0x02
    4950:	53 83       	std	Z+3, r21	; 0x03
    4952:	64 83       	std	Z+4, r22	; 0x04
    4954:	75 83       	std	Z+5, r23	; 0x05
    4956:	17 82       	std	Z+7, r1	; 0x07
    4958:	16 82       	std	Z+6, r1	; 0x06
    495a:	08 95       	ret

0000495c <_ZN9DNSClient9inet_atonEPKcR9IPAddress>:
    495c:	cf 93       	push	r28
    495e:	fb 01       	movw	r30, r22
    4960:	db 01       	movw	r26, r22
    4962:	8d 91       	ld	r24, X+
    4964:	81 11       	cpse	r24, r1
    4966:	fd cf       	rjmp	.-6      	; 0x4962 <_ZN9DNSClient9inet_atonEPKcR9IPAddress+0x6>
    4968:	80 e0       	ldi	r24, 0x00	; 0
    496a:	90 e0       	ldi	r25, 0x00	; 0
    496c:	20 e0       	ldi	r18, 0x00	; 0
    496e:	30 e0       	ldi	r19, 0x00	; 0
    4970:	ca e0       	ldi	r28, 0x0A	; 10
    4972:	19 c0       	rjmp	.+50     	; 0x49a6 <_ZN9DNSClient9inet_atonEPKcR9IPAddress+0x4a>
    4974:	8f 3f       	cpi	r24, 0xFF	; 255
    4976:	91 05       	cpc	r25, r1
    4978:	09 f0       	breq	.+2      	; 0x497c <_ZN9DNSClient9inet_atonEPKcR9IPAddress+0x20>
    497a:	54 f5       	brge	.+84     	; 0x49d0 <_ZN9DNSClient9inet_atonEPKcR9IPAddress+0x74>
    497c:	da 01       	movw	r26, r20
    497e:	a2 0f       	add	r26, r18
    4980:	b3 1f       	adc	r27, r19
    4982:	12 96       	adiw	r26, 0x02	; 2
    4984:	8c 93       	st	X, r24
    4986:	2f 5f       	subi	r18, 0xFF	; 255
    4988:	3f 4f       	sbci	r19, 0xFF	; 255
    498a:	80 e0       	ldi	r24, 0x00	; 0
    498c:	90 e0       	ldi	r25, 0x00	; 0
    498e:	0b c0       	rjmp	.+22     	; 0x49a6 <_ZN9DNSClient9inet_atonEPKcR9IPAddress+0x4a>
    4990:	dc 01       	movw	r26, r24
    4992:	ca 9f       	mul	r28, r26
    4994:	c0 01       	movw	r24, r0
    4996:	cb 9f       	mul	r28, r27
    4998:	90 0d       	add	r25, r0
    499a:	11 24       	eor	r1, r1
    499c:	70 e0       	ldi	r23, 0x00	; 0
    499e:	60 53       	subi	r22, 0x30	; 48
    49a0:	71 09       	sbc	r23, r1
    49a2:	86 0f       	add	r24, r22
    49a4:	97 1f       	adc	r25, r23
    49a6:	61 91       	ld	r22, Z+
    49a8:	66 23       	and	r22, r22
    49aa:	21 f0       	breq	.+8      	; 0x49b4 <_ZN9DNSClient9inet_atonEPKcR9IPAddress+0x58>
    49ac:	24 30       	cpi	r18, 0x04	; 4
    49ae:	31 05       	cpc	r19, r1
    49b0:	94 f0       	brlt	.+36     	; 0x49d6 <_ZN9DNSClient9inet_atonEPKcR9IPAddress+0x7a>
    49b2:	0e c0       	rjmp	.+28     	; 0x49d0 <_ZN9DNSClient9inet_atonEPKcR9IPAddress+0x74>
    49b4:	8f 3f       	cpi	r24, 0xFF	; 255
    49b6:	91 05       	cpc	r25, r1
    49b8:	09 f0       	breq	.+2      	; 0x49bc <_ZN9DNSClient9inet_atonEPKcR9IPAddress+0x60>
    49ba:	54 f4       	brge	.+20     	; 0x49d0 <_ZN9DNSClient9inet_atonEPKcR9IPAddress+0x74>
    49bc:	24 30       	cpi	r18, 0x04	; 4
    49be:	31 05       	cpc	r19, r1
    49c0:	3c f4       	brge	.+14     	; 0x49d0 <_ZN9DNSClient9inet_atonEPKcR9IPAddress+0x74>
    49c2:	fa 01       	movw	r30, r20
    49c4:	e2 0f       	add	r30, r18
    49c6:	f3 1f       	adc	r31, r19
    49c8:	82 83       	std	Z+2, r24	; 0x02
    49ca:	21 e0       	ldi	r18, 0x01	; 1
    49cc:	30 e0       	ldi	r19, 0x00	; 0
    49ce:	06 c0       	rjmp	.+12     	; 0x49dc <_ZN9DNSClient9inet_atonEPKcR9IPAddress+0x80>
    49d0:	20 e0       	ldi	r18, 0x00	; 0
    49d2:	30 e0       	ldi	r19, 0x00	; 0
    49d4:	03 c0       	rjmp	.+6      	; 0x49dc <_ZN9DNSClient9inet_atonEPKcR9IPAddress+0x80>
    49d6:	6e 32       	cpi	r22, 0x2E	; 46
    49d8:	d9 f6       	brne	.-74     	; 0x4990 <_ZN9DNSClient9inet_atonEPKcR9IPAddress+0x34>
    49da:	cc cf       	rjmp	.-104    	; 0x4974 <_ZN9DNSClient9inet_atonEPKcR9IPAddress+0x18>
    49dc:	c9 01       	movw	r24, r18
    49de:	cf 91       	pop	r28
    49e0:	08 95       	ret

000049e2 <_ZN9DNSClient12BuildRequestEPKc>:
    49e2:	af 92       	push	r10
    49e4:	bf 92       	push	r11
    49e6:	cf 92       	push	r12
    49e8:	df 92       	push	r13
    49ea:	ef 92       	push	r14
    49ec:	ff 92       	push	r15
    49ee:	0f 93       	push	r16
    49f0:	1f 93       	push	r17
    49f2:	cf 93       	push	r28
    49f4:	df 93       	push	r29
    49f6:	00 d0       	rcall	.+0      	; 0x49f8 <_ZN9DNSClient12BuildRequestEPKc+0x16>
    49f8:	1f 92       	push	r1
    49fa:	cd b7       	in	r28, 0x3d	; 61
    49fc:	de b7       	in	r29, 0x3e	; 62
    49fe:	7c 01       	movw	r14, r24
    4a00:	5b 01       	movw	r10, r22
    4a02:	0e 94 20 18 	call	0x3040	; 0x3040 <millis>
    4a06:	f7 01       	movw	r30, r14
    4a08:	77 83       	std	Z+7, r23	; 0x07
    4a0a:	66 83       	std	Z+6, r22	; 0x06
    4a0c:	87 01       	movw	r16, r14
    4a0e:	08 5f       	subi	r16, 0xF8	; 248
    4a10:	1f 4f       	sbci	r17, 0xFF	; 255
    4a12:	b7 01       	movw	r22, r14
    4a14:	6a 5f       	subi	r22, 0xFA	; 250
    4a16:	7f 4f       	sbci	r23, 0xFF	; 255
    4a18:	42 e0       	ldi	r20, 0x02	; 2
    4a1a:	50 e0       	ldi	r21, 0x00	; 0
    4a1c:	c8 01       	movw	r24, r16
    4a1e:	0e 94 d9 08 	call	0x11b2	; 0x11b2 <_ZN11EthernetUDP5writeEPKhj>
    4a22:	81 e0       	ldi	r24, 0x01	; 1
    4a24:	90 e0       	ldi	r25, 0x00	; 0
    4a26:	9a 83       	std	Y+2, r25	; 0x02
    4a28:	89 83       	std	Y+1, r24	; 0x01
    4a2a:	42 e0       	ldi	r20, 0x02	; 2
    4a2c:	50 e0       	ldi	r21, 0x00	; 0
    4a2e:	be 01       	movw	r22, r28
    4a30:	6f 5f       	subi	r22, 0xFF	; 255
    4a32:	7f 4f       	sbci	r23, 0xFF	; 255
    4a34:	c8 01       	movw	r24, r16
    4a36:	0e 94 d9 08 	call	0x11b2	; 0x11b2 <_ZN11EthernetUDP5writeEPKhj>
    4a3a:	80 e0       	ldi	r24, 0x00	; 0
    4a3c:	91 e0       	ldi	r25, 0x01	; 1
    4a3e:	9a 83       	std	Y+2, r25	; 0x02
    4a40:	89 83       	std	Y+1, r24	; 0x01
    4a42:	42 e0       	ldi	r20, 0x02	; 2
    4a44:	50 e0       	ldi	r21, 0x00	; 0
    4a46:	be 01       	movw	r22, r28
    4a48:	6f 5f       	subi	r22, 0xFF	; 255
    4a4a:	7f 4f       	sbci	r23, 0xFF	; 255
    4a4c:	c8 01       	movw	r24, r16
    4a4e:	0e 94 d9 08 	call	0x11b2	; 0x11b2 <_ZN11EthernetUDP5writeEPKhj>
    4a52:	1a 82       	std	Y+2, r1	; 0x02
    4a54:	19 82       	std	Y+1, r1	; 0x01
    4a56:	42 e0       	ldi	r20, 0x02	; 2
    4a58:	50 e0       	ldi	r21, 0x00	; 0
    4a5a:	be 01       	movw	r22, r28
    4a5c:	6f 5f       	subi	r22, 0xFF	; 255
    4a5e:	7f 4f       	sbci	r23, 0xFF	; 255
    4a60:	c8 01       	movw	r24, r16
    4a62:	0e 94 d9 08 	call	0x11b2	; 0x11b2 <_ZN11EthernetUDP5writeEPKhj>
    4a66:	42 e0       	ldi	r20, 0x02	; 2
    4a68:	50 e0       	ldi	r21, 0x00	; 0
    4a6a:	be 01       	movw	r22, r28
    4a6c:	6f 5f       	subi	r22, 0xFF	; 255
    4a6e:	7f 4f       	sbci	r23, 0xFF	; 255
    4a70:	c8 01       	movw	r24, r16
    4a72:	0e 94 d9 08 	call	0x11b2	; 0x11b2 <_ZN11EthernetUDP5writeEPKhj>
    4a76:	42 e0       	ldi	r20, 0x02	; 2
    4a78:	50 e0       	ldi	r21, 0x00	; 0
    4a7a:	be 01       	movw	r22, r28
    4a7c:	6f 5f       	subi	r22, 0xFF	; 255
    4a7e:	7f 4f       	sbci	r23, 0xFF	; 255
    4a80:	c8 01       	movw	r24, r16
    4a82:	0e 94 d9 08 	call	0x11b2	; 0x11b2 <_ZN11EthernetUDP5writeEPKhj>
    4a86:	75 01       	movw	r14, r10
    4a88:	65 01       	movw	r12, r10
    4a8a:	21 c0       	rjmp	.+66     	; 0x4ace <_ZN9DNSClient12BuildRequestEPKc+0xec>
    4a8c:	f6 01       	movw	r30, r12
    4a8e:	7f 01       	movw	r14, r30
    4a90:	81 91       	ld	r24, Z+
    4a92:	81 11       	cpse	r24, r1
    4a94:	07 c0       	rjmp	.+14     	; 0x4aa4 <_ZN9DNSClient12BuildRequestEPKc+0xc2>
    4a96:	57 01       	movw	r10, r14
    4a98:	ac 18       	sub	r10, r12
    4a9a:	bd 08       	sbc	r11, r13
    4a9c:	1a 14       	cp	r1, r10
    4a9e:	1b 04       	cpc	r1, r11
    4aa0:	24 f0       	brlt	.+8      	; 0x4aaa <_ZN9DNSClient12BuildRequestEPKc+0xc8>
    4aa2:	11 c0       	rjmp	.+34     	; 0x4ac6 <_ZN9DNSClient12BuildRequestEPKc+0xe4>
    4aa4:	8e 32       	cpi	r24, 0x2E	; 46
    4aa6:	99 f7       	brne	.-26     	; 0x4a8e <_ZN9DNSClient12BuildRequestEPKc+0xac>
    4aa8:	f6 cf       	rjmp	.-20     	; 0x4a96 <_ZN9DNSClient12BuildRequestEPKc+0xb4>
    4aaa:	ab 82       	std	Y+3, r10	; 0x03
    4aac:	41 e0       	ldi	r20, 0x01	; 1
    4aae:	50 e0       	ldi	r21, 0x00	; 0
    4ab0:	be 01       	movw	r22, r28
    4ab2:	6d 5f       	subi	r22, 0xFD	; 253
    4ab4:	7f 4f       	sbci	r23, 0xFF	; 255
    4ab6:	c8 01       	movw	r24, r16
    4ab8:	0e 94 d9 08 	call	0x11b2	; 0x11b2 <_ZN11EthernetUDP5writeEPKhj>
    4abc:	a5 01       	movw	r20, r10
    4abe:	b6 01       	movw	r22, r12
    4ac0:	c8 01       	movw	r24, r16
    4ac2:	0e 94 d9 08 	call	0x11b2	; 0x11b2 <_ZN11EthernetUDP5writeEPKhj>
    4ac6:	67 01       	movw	r12, r14
    4ac8:	ff ef       	ldi	r31, 0xFF	; 255
    4aca:	cf 1a       	sub	r12, r31
    4acc:	df 0a       	sbc	r13, r31
    4ace:	f7 01       	movw	r30, r14
    4ad0:	80 81       	ld	r24, Z
    4ad2:	81 11       	cpse	r24, r1
    4ad4:	db cf       	rjmp	.-74     	; 0x4a8c <_ZN9DNSClient12BuildRequestEPKc+0xaa>
    4ad6:	1b 82       	std	Y+3, r1	; 0x03
    4ad8:	41 e0       	ldi	r20, 0x01	; 1
    4ada:	50 e0       	ldi	r21, 0x00	; 0
    4adc:	be 01       	movw	r22, r28
    4ade:	6d 5f       	subi	r22, 0xFD	; 253
    4ae0:	7f 4f       	sbci	r23, 0xFF	; 255
    4ae2:	c8 01       	movw	r24, r16
    4ae4:	0e 94 d9 08 	call	0x11b2	; 0x11b2 <_ZN11EthernetUDP5writeEPKhj>
    4ae8:	e1 2c       	mov	r14, r1
    4aea:	ff 24       	eor	r15, r15
    4aec:	f3 94       	inc	r15
    4aee:	fa 82       	std	Y+2, r15	; 0x02
    4af0:	e9 82       	std	Y+1, r14	; 0x01
    4af2:	42 e0       	ldi	r20, 0x02	; 2
    4af4:	50 e0       	ldi	r21, 0x00	; 0
    4af6:	be 01       	movw	r22, r28
    4af8:	6f 5f       	subi	r22, 0xFF	; 255
    4afa:	7f 4f       	sbci	r23, 0xFF	; 255
    4afc:	c8 01       	movw	r24, r16
    4afe:	0e 94 d9 08 	call	0x11b2	; 0x11b2 <_ZN11EthernetUDP5writeEPKhj>
    4b02:	fa 82       	std	Y+2, r15	; 0x02
    4b04:	e9 82       	std	Y+1, r14	; 0x01
    4b06:	42 e0       	ldi	r20, 0x02	; 2
    4b08:	50 e0       	ldi	r21, 0x00	; 0
    4b0a:	be 01       	movw	r22, r28
    4b0c:	6f 5f       	subi	r22, 0xFF	; 255
    4b0e:	7f 4f       	sbci	r23, 0xFF	; 255
    4b10:	c8 01       	movw	r24, r16
    4b12:	0e 94 d9 08 	call	0x11b2	; 0x11b2 <_ZN11EthernetUDP5writeEPKhj>
    4b16:	81 e0       	ldi	r24, 0x01	; 1
    4b18:	90 e0       	ldi	r25, 0x00	; 0
    4b1a:	0f 90       	pop	r0
    4b1c:	0f 90       	pop	r0
    4b1e:	0f 90       	pop	r0
    4b20:	df 91       	pop	r29
    4b22:	cf 91       	pop	r28
    4b24:	1f 91       	pop	r17
    4b26:	0f 91       	pop	r16
    4b28:	ff 90       	pop	r15
    4b2a:	ef 90       	pop	r14
    4b2c:	df 90       	pop	r13
    4b2e:	cf 90       	pop	r12
    4b30:	bf 90       	pop	r11
    4b32:	af 90       	pop	r10
    4b34:	08 95       	ret

00004b36 <_ZN9DNSClient15ProcessResponseEjR9IPAddress>:
    4b36:	2f 92       	push	r2
    4b38:	3f 92       	push	r3
    4b3a:	4f 92       	push	r4
    4b3c:	5f 92       	push	r5
    4b3e:	6f 92       	push	r6
    4b40:	7f 92       	push	r7
    4b42:	8f 92       	push	r8
    4b44:	9f 92       	push	r9
    4b46:	af 92       	push	r10
    4b48:	bf 92       	push	r11
    4b4a:	cf 92       	push	r12
    4b4c:	df 92       	push	r13
    4b4e:	ef 92       	push	r14
    4b50:	ff 92       	push	r15
    4b52:	0f 93       	push	r16
    4b54:	1f 93       	push	r17
    4b56:	cf 93       	push	r28
    4b58:	df 93       	push	r29
    4b5a:	cd b7       	in	r28, 0x3d	; 61
    4b5c:	de b7       	in	r29, 0x3e	; 62
    4b5e:	63 97       	sbiw	r28, 0x13	; 19
    4b60:	0f b6       	in	r0, 0x3f	; 63
    4b62:	f8 94       	cli
    4b64:	de bf       	out	0x3e, r29	; 62
    4b66:	0f be       	out	0x3f, r0	; 63
    4b68:	cd bf       	out	0x3d, r28	; 61
    4b6a:	2c 01       	movw	r4, r24
    4b6c:	4b 01       	movw	r8, r22
    4b6e:	1a 01       	movw	r2, r20
    4b70:	0e 94 20 18 	call	0x3040	; 0x3040 <millis>
    4b74:	6b 01       	movw	r12, r22
    4b76:	7c 01       	movw	r14, r24
    4b78:	32 01       	movw	r6, r4
    4b7a:	28 e0       	ldi	r18, 0x08	; 8
    4b7c:	62 0e       	add	r6, r18
    4b7e:	71 1c       	adc	r7, r1
    4b80:	a1 2c       	mov	r10, r1
    4b82:	b1 2c       	mov	r11, r1
    4b84:	12 c0       	rjmp	.+36     	; 0x4baa <_ZN9DNSClient15ProcessResponseEjR9IPAddress+0x74>
    4b86:	0e 94 20 18 	call	0x3040	; 0x3040 <millis>
    4b8a:	6c 19       	sub	r22, r12
    4b8c:	7d 09       	sbc	r23, r13
    4b8e:	8e 09       	sbc	r24, r14
    4b90:	9f 09       	sbc	r25, r15
    4b92:	86 16       	cp	r8, r22
    4b94:	97 06       	cpc	r9, r23
    4b96:	a8 06       	cpc	r10, r24
    4b98:	b9 06       	cpc	r11, r25
    4b9a:	08 f4       	brcc	.+2      	; 0x4b9e <_ZN9DNSClient15ProcessResponseEjR9IPAddress+0x68>
    4b9c:	0d c1       	rjmp	.+538    	; 0x4db8 <_ZN9DNSClient15ProcessResponseEjR9IPAddress+0x282>
    4b9e:	62 e3       	ldi	r22, 0x32	; 50
    4ba0:	70 e0       	ldi	r23, 0x00	; 0
    4ba2:	80 e0       	ldi	r24, 0x00	; 0
    4ba4:	90 e0       	ldi	r25, 0x00	; 0
    4ba6:	0e 94 5c 18 	call	0x30b8	; 0x30b8 <delay>
    4baa:	c3 01       	movw	r24, r6
    4bac:	0e 94 10 09 	call	0x1220	; 0x1220 <_ZN11EthernetUDP11parsePacketEv>
    4bb0:	18 16       	cp	r1, r24
    4bb2:	19 06       	cpc	r1, r25
    4bb4:	44 f7       	brge	.-48     	; 0x4b86 <_ZN9DNSClient15ProcessResponseEjR9IPAddress+0x50>
    4bb6:	f2 01       	movw	r30, r4
    4bb8:	c2 80       	ldd	r12, Z+2	; 0x02
    4bba:	d3 80       	ldd	r13, Z+3	; 0x03
    4bbc:	e4 80       	ldd	r14, Z+4	; 0x04
    4bbe:	f5 80       	ldd	r15, Z+5	; 0x05
    4bc0:	01 8d       	ldd	r16, Z+25	; 0x19
    4bc2:	12 8d       	ldd	r17, Z+26	; 0x1a
    4bc4:	23 8d       	ldd	r18, Z+27	; 0x1b
    4bc6:	34 8d       	ldd	r19, Z+28	; 0x1c
    4bc8:	c0 16       	cp	r12, r16
    4bca:	d1 06       	cpc	r13, r17
    4bcc:	e2 06       	cpc	r14, r18
    4bce:	f3 06       	cpc	r15, r19
    4bd0:	09 f0       	breq	.+2      	; 0x4bd4 <_ZN9DNSClient15ProcessResponseEjR9IPAddress+0x9e>
    4bd2:	f5 c0       	rjmp	.+490    	; 0x4dbe <_ZN9DNSClient15ProcessResponseEjR9IPAddress+0x288>
    4bd4:	85 8d       	ldd	r24, Z+29	; 0x1d
    4bd6:	96 8d       	ldd	r25, Z+30	; 0x1e
    4bd8:	c5 97       	sbiw	r24, 0x35	; 53
    4bda:	09 f0       	breq	.+2      	; 0x4bde <_ZN9DNSClient15ProcessResponseEjR9IPAddress+0xa8>
    4bdc:	f0 c0       	rjmp	.+480    	; 0x4dbe <_ZN9DNSClient15ProcessResponseEjR9IPAddress+0x288>
    4bde:	f5 c0       	rjmp	.+490    	; 0x4dca <_ZN9DNSClient15ProcessResponseEjR9IPAddress+0x294>
    4be0:	4c e0       	ldi	r20, 0x0C	; 12
    4be2:	50 e0       	ldi	r21, 0x00	; 0
    4be4:	be 01       	movw	r22, r28
    4be6:	6f 5f       	subi	r22, 0xFF	; 255
    4be8:	7f 4f       	sbci	r23, 0xFF	; 255
    4bea:	c3 01       	movw	r24, r6
    4bec:	0e 94 90 08 	call	0x1120	; 0x1120 <_ZN11EthernetUDP4readEPhj>
    4bf0:	8b 81       	ldd	r24, Y+3	; 0x03
    4bf2:	9c 81       	ldd	r25, Y+4	; 0x04
    4bf4:	98 27       	eor	r25, r24
    4bf6:	89 27       	eor	r24, r25
    4bf8:	98 27       	eor	r25, r24
    4bfa:	9a 8b       	std	Y+18, r25	; 0x12
    4bfc:	89 8b       	std	Y+17, r24	; 0x11
    4bfe:	f2 01       	movw	r30, r4
    4c00:	46 81       	ldd	r20, Z+6	; 0x06
    4c02:	57 81       	ldd	r21, Z+7	; 0x07
    4c04:	29 81       	ldd	r18, Y+1	; 0x01
    4c06:	3a 81       	ldd	r19, Y+2	; 0x02
    4c08:	42 17       	cp	r20, r18
    4c0a:	53 07       	cpc	r21, r19
    4c0c:	11 f4       	brne	.+4      	; 0x4c12 <_ZN9DNSClient15ProcessResponseEjR9IPAddress+0xdc>
    4c0e:	97 fd       	sbrc	r25, 7
    4c10:	06 c0       	rjmp	.+12     	; 0x4c1e <_ZN9DNSClient15ProcessResponseEjR9IPAddress+0xe8>
    4c12:	c3 01       	movw	r24, r6
    4c14:	0e 94 64 08 	call	0x10c8	; 0x10c8 <_ZN11EthernetUDP5flushEv>
    4c18:	2c ef       	ldi	r18, 0xFC	; 252
    4c1a:	3f ef       	ldi	r19, 0xFF	; 255
    4c1c:	dc c0       	rjmp	.+440    	; 0x4dd6 <_ZN9DNSClient15ProcessResponseEjR9IPAddress+0x2a0>
    4c1e:	8f 70       	andi	r24, 0x0F	; 15
    4c20:	92 70       	andi	r25, 0x02	; 2
    4c22:	89 2b       	or	r24, r25
    4c24:	31 f0       	breq	.+12     	; 0x4c32 <_ZN9DNSClient15ProcessResponseEjR9IPAddress+0xfc>
    4c26:	c3 01       	movw	r24, r6
    4c28:	0e 94 64 08 	call	0x10c8	; 0x10c8 <_ZN11EthernetUDP5flushEv>
    4c2c:	2b ef       	ldi	r18, 0xFB	; 251
    4c2e:	3f ef       	ldi	r19, 0xFF	; 255
    4c30:	d2 c0       	rjmp	.+420    	; 0x4dd6 <_ZN9DNSClient15ProcessResponseEjR9IPAddress+0x2a0>
    4c32:	cf 80       	ldd	r12, Y+7	; 0x07
    4c34:	d8 84       	ldd	r13, Y+8	; 0x08
    4c36:	dc 24       	eor	r13, r12
    4c38:	cd 24       	eor	r12, r13
    4c3a:	dc 24       	eor	r13, r12
    4c3c:	c1 14       	cp	r12, r1
    4c3e:	d1 04       	cpc	r13, r1
    4c40:	71 f5       	brne	.+92     	; 0x4c9e <_ZN9DNSClient15ProcessResponseEjR9IPAddress+0x168>
    4c42:	c3 01       	movw	r24, r6
    4c44:	0e 94 64 08 	call	0x10c8	; 0x10c8 <_ZN11EthernetUDP5flushEv>
    4c48:	2a ef       	ldi	r18, 0xFA	; 250
    4c4a:	3f ef       	ldi	r19, 0xFF	; 255
    4c4c:	c4 c0       	rjmp	.+392    	; 0x4dd6 <_ZN9DNSClient15ProcessResponseEjR9IPAddress+0x2a0>
    4c4e:	41 e0       	ldi	r20, 0x01	; 1
    4c50:	50 e0       	ldi	r21, 0x00	; 0
    4c52:	be 01       	movw	r22, r28
    4c54:	63 5f       	subi	r22, 0xF3	; 243
    4c56:	7f 4f       	sbci	r23, 0xFF	; 255
    4c58:	c3 01       	movw	r24, r6
    4c5a:	0e 94 90 08 	call	0x1120	; 0x1120 <_ZN11EthernetUDP4readEPhj>
    4c5e:	8d 85       	ldd	r24, Y+13	; 0x0d
    4c60:	81 11       	cpse	r24, r1
    4c62:	07 c0       	rjmp	.+14     	; 0x4c72 <_ZN9DNSClient15ProcessResponseEjR9IPAddress+0x13c>
    4c64:	8d 85       	ldd	r24, Y+13	; 0x0d
    4c66:	81 11       	cpse	r24, r1
    4c68:	f2 cf       	rjmp	.-28     	; 0x4c4e <_ZN9DNSClient15ProcessResponseEjR9IPAddress+0x118>
    4c6a:	0a c0       	rjmp	.+20     	; 0x4c80 <_ZN9DNSClient15ProcessResponseEjR9IPAddress+0x14a>
    4c6c:	c3 01       	movw	r24, r6
    4c6e:	0e 94 af 08 	call	0x115e	; 0x115e <_ZN11EthernetUDP4readEv>
    4c72:	8d 85       	ldd	r24, Y+13	; 0x0d
    4c74:	98 2f       	mov	r25, r24
    4c76:	91 50       	subi	r25, 0x01	; 1
    4c78:	9d 87       	std	Y+13, r25	; 0x0d
    4c7a:	81 11       	cpse	r24, r1
    4c7c:	f7 cf       	rjmp	.-18     	; 0x4c6c <_ZN9DNSClient15ProcessResponseEjR9IPAddress+0x136>
    4c7e:	f2 cf       	rjmp	.-28     	; 0x4c64 <_ZN9DNSClient15ProcessResponseEjR9IPAddress+0x12e>
    4c80:	c3 01       	movw	r24, r6
    4c82:	0e 94 af 08 	call	0x115e	; 0x115e <_ZN11EthernetUDP4readEv>
    4c86:	c3 01       	movw	r24, r6
    4c88:	0e 94 af 08 	call	0x115e	; 0x115e <_ZN11EthernetUDP4readEv>
    4c8c:	c3 01       	movw	r24, r6
    4c8e:	0e 94 af 08 	call	0x115e	; 0x115e <_ZN11EthernetUDP4readEv>
    4c92:	c3 01       	movw	r24, r6
    4c94:	0e 94 af 08 	call	0x115e	; 0x115e <_ZN11EthernetUDP4readEv>
    4c98:	0f 5f       	subi	r16, 0xFF	; 255
    4c9a:	1f 4f       	sbci	r17, 0xFF	; 255
    4c9c:	02 c0       	rjmp	.+4      	; 0x4ca2 <_ZN9DNSClient15ProcessResponseEjR9IPAddress+0x16c>
    4c9e:	00 e0       	ldi	r16, 0x00	; 0
    4ca0:	10 e0       	ldi	r17, 0x00	; 0
    4ca2:	8d 81       	ldd	r24, Y+5	; 0x05
    4ca4:	9e 81       	ldd	r25, Y+6	; 0x06
    4ca6:	98 27       	eor	r25, r24
    4ca8:	89 27       	eor	r24, r25
    4caa:	98 27       	eor	r25, r24
    4cac:	08 17       	cp	r16, r24
    4cae:	19 07       	cpc	r17, r25
    4cb0:	70 f2       	brcs	.-100    	; 0x4c4e <_ZN9DNSClient15ProcessResponseEjR9IPAddress+0x118>
    4cb2:	e1 2c       	mov	r14, r1
    4cb4:	f1 2c       	mov	r15, r1
    4cb6:	41 e0       	ldi	r20, 0x01	; 1
    4cb8:	50 e0       	ldi	r21, 0x00	; 0
    4cba:	be 01       	movw	r22, r28
    4cbc:	6d 5e       	subi	r22, 0xED	; 237
    4cbe:	7f 4f       	sbci	r23, 0xFF	; 255
    4cc0:	c3 01       	movw	r24, r6
    4cc2:	0e 94 90 08 	call	0x1120	; 0x1120 <_ZN11EthernetUDP4readEPhj>
    4cc6:	8b 89       	ldd	r24, Y+19	; 0x13
    4cc8:	98 2f       	mov	r25, r24
    4cca:	90 7c       	andi	r25, 0xC0	; 192
    4ccc:	69 f4       	brne	.+26     	; 0x4ce8 <_ZN9DNSClient15ProcessResponseEjR9IPAddress+0x1b2>
    4cce:	81 11       	cpse	r24, r1
    4cd0:	04 c0       	rjmp	.+8      	; 0x4cda <_ZN9DNSClient15ProcessResponseEjR9IPAddress+0x1a4>
    4cd2:	0e c0       	rjmp	.+28     	; 0x4cf0 <_ZN9DNSClient15ProcessResponseEjR9IPAddress+0x1ba>
    4cd4:	c3 01       	movw	r24, r6
    4cd6:	0e 94 af 08 	call	0x115e	; 0x115e <_ZN11EthernetUDP4readEv>
    4cda:	8b 89       	ldd	r24, Y+19	; 0x13
    4cdc:	98 2f       	mov	r25, r24
    4cde:	91 50       	subi	r25, 0x01	; 1
    4ce0:	9b 8b       	std	Y+19, r25	; 0x13
    4ce2:	81 11       	cpse	r24, r1
    4ce4:	f7 cf       	rjmp	.-18     	; 0x4cd4 <_ZN9DNSClient15ProcessResponseEjR9IPAddress+0x19e>
    4ce6:	04 c0       	rjmp	.+8      	; 0x4cf0 <_ZN9DNSClient15ProcessResponseEjR9IPAddress+0x1ba>
    4ce8:	c3 01       	movw	r24, r6
    4cea:	0e 94 af 08 	call	0x115e	; 0x115e <_ZN11EthernetUDP4readEv>
    4cee:	1b 8a       	std	Y+19, r1	; 0x13
    4cf0:	8b 89       	ldd	r24, Y+19	; 0x13
    4cf2:	81 11       	cpse	r24, r1
    4cf4:	e0 cf       	rjmp	.-64     	; 0x4cb6 <_ZN9DNSClient15ProcessResponseEjR9IPAddress+0x180>
    4cf6:	42 e0       	ldi	r20, 0x02	; 2
    4cf8:	50 e0       	ldi	r21, 0x00	; 0
    4cfa:	be 01       	movw	r22, r28
    4cfc:	61 5f       	subi	r22, 0xF1	; 241
    4cfe:	7f 4f       	sbci	r23, 0xFF	; 255
    4d00:	c3 01       	movw	r24, r6
    4d02:	0e 94 90 08 	call	0x1120	; 0x1120 <_ZN11EthernetUDP4readEPhj>
    4d06:	42 e0       	ldi	r20, 0x02	; 2
    4d08:	50 e0       	ldi	r21, 0x00	; 0
    4d0a:	be 01       	movw	r22, r28
    4d0c:	63 5f       	subi	r22, 0xF3	; 243
    4d0e:	7f 4f       	sbci	r23, 0xFF	; 255
    4d10:	c3 01       	movw	r24, r6
    4d12:	0e 94 90 08 	call	0x1120	; 0x1120 <_ZN11EthernetUDP4readEPhj>
    4d16:	c3 01       	movw	r24, r6
    4d18:	0e 94 af 08 	call	0x115e	; 0x115e <_ZN11EthernetUDP4readEv>
    4d1c:	c3 01       	movw	r24, r6
    4d1e:	0e 94 af 08 	call	0x115e	; 0x115e <_ZN11EthernetUDP4readEv>
    4d22:	c3 01       	movw	r24, r6
    4d24:	0e 94 af 08 	call	0x115e	; 0x115e <_ZN11EthernetUDP4readEv>
    4d28:	c3 01       	movw	r24, r6
    4d2a:	0e 94 af 08 	call	0x115e	; 0x115e <_ZN11EthernetUDP4readEv>
    4d2e:	42 e0       	ldi	r20, 0x02	; 2
    4d30:	50 e0       	ldi	r21, 0x00	; 0
    4d32:	be 01       	movw	r22, r28
    4d34:	6f 5e       	subi	r22, 0xEF	; 239
    4d36:	7f 4f       	sbci	r23, 0xFF	; 255
    4d38:	c3 01       	movw	r24, r6
    4d3a:	0e 94 90 08 	call	0x1120	; 0x1120 <_ZN11EthernetUDP4readEPhj>
    4d3e:	8f 85       	ldd	r24, Y+15	; 0x0f
    4d40:	98 89       	ldd	r25, Y+16	; 0x10
    4d42:	81 15       	cp	r24, r1
    4d44:	91 40       	sbci	r25, 0x01	; 1
    4d46:	09 f5       	brne	.+66     	; 0x4d8a <_ZN9DNSClient15ProcessResponseEjR9IPAddress+0x254>
    4d48:	8d 85       	ldd	r24, Y+13	; 0x0d
    4d4a:	9e 85       	ldd	r25, Y+14	; 0x0e
    4d4c:	81 15       	cp	r24, r1
    4d4e:	91 40       	sbci	r25, 0x01	; 1
    4d50:	e1 f4       	brne	.+56     	; 0x4d8a <_ZN9DNSClient15ProcessResponseEjR9IPAddress+0x254>
    4d52:	89 89       	ldd	r24, Y+17	; 0x11
    4d54:	9a 89       	ldd	r25, Y+18	; 0x12
    4d56:	81 15       	cp	r24, r1
    4d58:	94 40       	sbci	r25, 0x04	; 4
    4d5a:	31 f0       	breq	.+12     	; 0x4d68 <_ZN9DNSClient15ProcessResponseEjR9IPAddress+0x232>
    4d5c:	c3 01       	movw	r24, r6
    4d5e:	0e 94 64 08 	call	0x10c8	; 0x10c8 <_ZN11EthernetUDP5flushEv>
    4d62:	27 ef       	ldi	r18, 0xF7	; 247
    4d64:	3f ef       	ldi	r19, 0xFF	; 255
    4d66:	37 c0       	rjmp	.+110    	; 0x4dd6 <_ZN9DNSClient15ProcessResponseEjR9IPAddress+0x2a0>
    4d68:	b1 01       	movw	r22, r2
    4d6a:	6e 5f       	subi	r22, 0xFE	; 254
    4d6c:	7f 4f       	sbci	r23, 0xFF	; 255
    4d6e:	44 e0       	ldi	r20, 0x04	; 4
    4d70:	50 e0       	ldi	r21, 0x00	; 0
    4d72:	c3 01       	movw	r24, r6
    4d74:	0e 94 90 08 	call	0x1120	; 0x1120 <_ZN11EthernetUDP4readEPhj>
    4d78:	21 e0       	ldi	r18, 0x01	; 1
    4d7a:	30 e0       	ldi	r19, 0x00	; 0
    4d7c:	2c c0       	rjmp	.+88     	; 0x4dd6 <_ZN9DNSClient15ProcessResponseEjR9IPAddress+0x2a0>
    4d7e:	c3 01       	movw	r24, r6
    4d80:	0e 94 af 08 	call	0x115e	; 0x115e <_ZN11EthernetUDP4readEv>
    4d84:	0f 5f       	subi	r16, 0xFF	; 255
    4d86:	1f 4f       	sbci	r17, 0xFF	; 255
    4d88:	02 c0       	rjmp	.+4      	; 0x4d8e <_ZN9DNSClient15ProcessResponseEjR9IPAddress+0x258>
    4d8a:	00 e0       	ldi	r16, 0x00	; 0
    4d8c:	10 e0       	ldi	r17, 0x00	; 0
    4d8e:	89 89       	ldd	r24, Y+17	; 0x11
    4d90:	9a 89       	ldd	r25, Y+18	; 0x12
    4d92:	98 27       	eor	r25, r24
    4d94:	89 27       	eor	r24, r25
    4d96:	98 27       	eor	r25, r24
    4d98:	08 17       	cp	r16, r24
    4d9a:	19 07       	cpc	r17, r25
    4d9c:	80 f3       	brcs	.-32     	; 0x4d7e <_ZN9DNSClient15ProcessResponseEjR9IPAddress+0x248>
    4d9e:	ff ef       	ldi	r31, 0xFF	; 255
    4da0:	ef 1a       	sub	r14, r31
    4da2:	ff 0a       	sbc	r15, r31
    4da4:	ec 14       	cp	r14, r12
    4da6:	fd 04       	cpc	r15, r13
    4da8:	09 f0       	breq	.+2      	; 0x4dac <_ZN9DNSClient15ProcessResponseEjR9IPAddress+0x276>
    4daa:	85 cf       	rjmp	.-246    	; 0x4cb6 <_ZN9DNSClient15ProcessResponseEjR9IPAddress+0x180>
    4dac:	c3 01       	movw	r24, r6
    4dae:	0e 94 64 08 	call	0x10c8	; 0x10c8 <_ZN11EthernetUDP5flushEv>
    4db2:	26 ef       	ldi	r18, 0xF6	; 246
    4db4:	3f ef       	ldi	r19, 0xFF	; 255
    4db6:	0f c0       	rjmp	.+30     	; 0x4dd6 <_ZN9DNSClient15ProcessResponseEjR9IPAddress+0x2a0>
    4db8:	2f ef       	ldi	r18, 0xFF	; 255
    4dba:	3f ef       	ldi	r19, 0xFF	; 255
    4dbc:	0c c0       	rjmp	.+24     	; 0x4dd6 <_ZN9DNSClient15ProcessResponseEjR9IPAddress+0x2a0>
    4dbe:	2e ef       	ldi	r18, 0xFE	; 254
    4dc0:	3f ef       	ldi	r19, 0xFF	; 255
    4dc2:	09 c0       	rjmp	.+18     	; 0x4dd6 <_ZN9DNSClient15ProcessResponseEjR9IPAddress+0x2a0>
    4dc4:	2d ef       	ldi	r18, 0xFD	; 253
    4dc6:	3f ef       	ldi	r19, 0xFF	; 255
    4dc8:	06 c0       	rjmp	.+12     	; 0x4dd6 <_ZN9DNSClient15ProcessResponseEjR9IPAddress+0x2a0>
    4dca:	c3 01       	movw	r24, r6
    4dcc:	0e 94 4a 08 	call	0x1094	; 0x1094 <_ZN11EthernetUDP9availableEv>
    4dd0:	0c 97       	sbiw	r24, 0x0c	; 12
    4dd2:	c4 f3       	brlt	.-16     	; 0x4dc4 <_ZN9DNSClient15ProcessResponseEjR9IPAddress+0x28e>
    4dd4:	05 cf       	rjmp	.-502    	; 0x4be0 <_ZN9DNSClient15ProcessResponseEjR9IPAddress+0xaa>
    4dd6:	c9 01       	movw	r24, r18
    4dd8:	63 96       	adiw	r28, 0x13	; 19
    4dda:	0f b6       	in	r0, 0x3f	; 63
    4ddc:	f8 94       	cli
    4dde:	de bf       	out	0x3e, r29	; 62
    4de0:	0f be       	out	0x3f, r0	; 63
    4de2:	cd bf       	out	0x3d, r28	; 61
    4de4:	df 91       	pop	r29
    4de6:	cf 91       	pop	r28
    4de8:	1f 91       	pop	r17
    4dea:	0f 91       	pop	r16
    4dec:	ff 90       	pop	r15
    4dee:	ef 90       	pop	r14
    4df0:	df 90       	pop	r13
    4df2:	cf 90       	pop	r12
    4df4:	bf 90       	pop	r11
    4df6:	af 90       	pop	r10
    4df8:	9f 90       	pop	r9
    4dfa:	8f 90       	pop	r8
    4dfc:	7f 90       	pop	r7
    4dfe:	6f 90       	pop	r6
    4e00:	5f 90       	pop	r5
    4e02:	4f 90       	pop	r4
    4e04:	3f 90       	pop	r3
    4e06:	2f 90       	pop	r2
    4e08:	08 95       	ret

00004e0a <_ZN9DNSClient13getHostByNameEPKcR9IPAddress>:
    4e0a:	6f 92       	push	r6
    4e0c:	7f 92       	push	r7
    4e0e:	8f 92       	push	r8
    4e10:	9f 92       	push	r9
    4e12:	af 92       	push	r10
    4e14:	bf 92       	push	r11
    4e16:	cf 92       	push	r12
    4e18:	df 92       	push	r13
    4e1a:	ef 92       	push	r14
    4e1c:	ff 92       	push	r15
    4e1e:	0f 93       	push	r16
    4e20:	1f 93       	push	r17
    4e22:	cf 93       	push	r28
    4e24:	df 93       	push	r29
    4e26:	00 d0       	rcall	.+0      	; 0x4e28 <_ZN9DNSClient13getHostByNameEPKcR9IPAddress+0x1e>
    4e28:	00 d0       	rcall	.+0      	; 0x4e2a <_ZN9DNSClient13getHostByNameEPKcR9IPAddress+0x20>
    4e2a:	00 d0       	rcall	.+0      	; 0x4e2c <_ZN9DNSClient13getHostByNameEPKcR9IPAddress+0x22>
    4e2c:	cd b7       	in	r28, 0x3d	; 61
    4e2e:	de b7       	in	r29, 0x3e	; 62
    4e30:	5c 01       	movw	r10, r24
    4e32:	4b 01       	movw	r8, r22
    4e34:	3a 01       	movw	r6, r20
    4e36:	0e 94 ae 24 	call	0x495c	; 0x495c <_ZN9DNSClient9inet_atonEPKcR9IPAddress>
    4e3a:	89 2b       	or	r24, r25
    4e3c:	09 f0       	breq	.+2      	; 0x4e40 <_ZN9DNSClient13getHostByNameEPKcR9IPAddress+0x36>
    4e3e:	51 c0       	rjmp	.+162    	; 0x4ee2 <_ZN9DNSClient13getHostByNameEPKcR9IPAddress+0xd8>
    4e40:	f5 01       	movw	r30, r10
    4e42:	c2 80       	ldd	r12, Z+2	; 0x02
    4e44:	d3 80       	ldd	r13, Z+3	; 0x03
    4e46:	e4 80       	ldd	r14, Z+4	; 0x04
    4e48:	f5 80       	ldd	r15, Z+5	; 0x05
    4e4a:	00 91 f1 04 	lds	r16, 0x04F1
    4e4e:	10 91 f2 04 	lds	r17, 0x04F2
    4e52:	20 91 f3 04 	lds	r18, 0x04F3
    4e56:	30 91 f4 04 	lds	r19, 0x04F4
    4e5a:	c0 16       	cp	r12, r16
    4e5c:	d1 06       	cpc	r13, r17
    4e5e:	e2 06       	cpc	r14, r18
    4e60:	f3 06       	cpc	r15, r19
    4e62:	09 f4       	brne	.+2      	; 0x4e66 <_ZN9DNSClient13getHostByNameEPKcR9IPAddress+0x5c>
    4e64:	41 c0       	rjmp	.+130    	; 0x4ee8 <_ZN9DNSClient13getHostByNameEPKcR9IPAddress+0xde>
    4e66:	0e 94 20 18 	call	0x3040	; 0x3040 <millis>
    4e6a:	75 01       	movw	r14, r10
    4e6c:	f8 e0       	ldi	r31, 0x08	; 8
    4e6e:	ef 0e       	add	r14, r31
    4e70:	f1 1c       	adc	r15, r1
    4e72:	6f 70       	andi	r22, 0x0F	; 15
    4e74:	77 27       	eor	r23, r23
    4e76:	88 27       	eor	r24, r24
    4e78:	99 27       	eor	r25, r25
    4e7a:	7c 5f       	subi	r23, 0xFC	; 252
    4e7c:	c7 01       	movw	r24, r14
    4e7e:	0e 94 5f 09 	call	0x12be	; 0x12be <_ZN11EthernetUDP5beginEj>
    4e82:	81 30       	cpi	r24, 0x01	; 1
    4e84:	a1 f5       	brne	.+104    	; 0x4eee <_ZN9DNSClient13getHostByNameEPKcR9IPAddress+0xe4>
    4e86:	8c ea       	ldi	r24, 0xAC	; 172
    4e88:	91 e0       	ldi	r25, 0x01	; 1
    4e8a:	9a 83       	std	Y+2, r25	; 0x02
    4e8c:	89 83       	std	Y+1, r24	; 0x01
    4e8e:	f5 01       	movw	r30, r10
    4e90:	02 81       	ldd	r16, Z+2	; 0x02
    4e92:	13 81       	ldd	r17, Z+3	; 0x03
    4e94:	24 81       	ldd	r18, Z+4	; 0x04
    4e96:	35 81       	ldd	r19, Z+5	; 0x05
    4e98:	0b 83       	std	Y+3, r16	; 0x03
    4e9a:	1c 83       	std	Y+4, r17	; 0x04
    4e9c:	2d 83       	std	Y+5, r18	; 0x05
    4e9e:	3e 83       	std	Y+6, r19	; 0x06
    4ea0:	45 e3       	ldi	r20, 0x35	; 53
    4ea2:	50 e0       	ldi	r21, 0x00	; 0
    4ea4:	be 01       	movw	r22, r28
    4ea6:	6f 5f       	subi	r22, 0xFF	; 255
    4ea8:	7f 4f       	sbci	r23, 0xFF	; 255
    4eaa:	c7 01       	movw	r24, r14
    4eac:	0e 94 f3 08 	call	0x11e6	; 0x11e6 <_ZN11EthernetUDP11beginPacketE9IPAddressj>
    4eb0:	89 2b       	or	r24, r25
    4eb2:	19 f4       	brne	.+6      	; 0x4eba <_ZN9DNSClient13getHostByNameEPKcR9IPAddress+0xb0>
    4eb4:	00 e0       	ldi	r16, 0x00	; 0
    4eb6:	10 e0       	ldi	r17, 0x00	; 0
    4eb8:	10 c0       	rjmp	.+32     	; 0x4eda <_ZN9DNSClient13getHostByNameEPKcR9IPAddress+0xd0>
    4eba:	b4 01       	movw	r22, r8
    4ebc:	c5 01       	movw	r24, r10
    4ebe:	0e 94 f1 24 	call	0x49e2	; 0x49e2 <_ZN9DNSClient12BuildRequestEPKc>
    4ec2:	89 2b       	or	r24, r25
    4ec4:	b9 f3       	breq	.-18     	; 0x4eb4 <_ZN9DNSClient13getHostByNameEPKcR9IPAddress+0xaa>
    4ec6:	c7 01       	movw	r24, r14
    4ec8:	0e 94 ef 08 	call	0x11de	; 0x11de <_ZN11EthernetUDP9endPacketEv>
    4ecc:	89 2b       	or	r24, r25
    4ece:	91 f4       	brne	.+36     	; 0x4ef4 <_ZN9DNSClient13getHostByNameEPKcR9IPAddress+0xea>
    4ed0:	f1 cf       	rjmp	.-30     	; 0x4eb4 <_ZN9DNSClient13getHostByNameEPKcR9IPAddress+0xaa>
    4ed2:	0f 3f       	cpi	r16, 0xFF	; 255
    4ed4:	ff ef       	ldi	r31, 0xFF	; 255
    4ed6:	1f 07       	cpc	r17, r31
    4ed8:	81 f0       	breq	.+32     	; 0x4efa <_ZN9DNSClient13getHostByNameEPKcR9IPAddress+0xf0>
    4eda:	c7 01       	movw	r24, r14
    4edc:	0e 94 fb 08 	call	0x11f6	; 0x11f6 <_ZN11EthernetUDP4stopEv>
    4ee0:	18 c0       	rjmp	.+48     	; 0x4f12 <_ZN9DNSClient13getHostByNameEPKcR9IPAddress+0x108>
    4ee2:	01 e0       	ldi	r16, 0x01	; 1
    4ee4:	10 e0       	ldi	r17, 0x00	; 0
    4ee6:	15 c0       	rjmp	.+42     	; 0x4f12 <_ZN9DNSClient13getHostByNameEPKcR9IPAddress+0x108>
    4ee8:	0e ef       	ldi	r16, 0xFE	; 254
    4eea:	1f ef       	ldi	r17, 0xFF	; 255
    4eec:	12 c0       	rjmp	.+36     	; 0x4f12 <_ZN9DNSClient13getHostByNameEPKcR9IPAddress+0x108>
    4eee:	00 e0       	ldi	r16, 0x00	; 0
    4ef0:	10 e0       	ldi	r17, 0x00	; 0
    4ef2:	0f c0       	rjmp	.+30     	; 0x4f12 <_ZN9DNSClient13getHostByNameEPKcR9IPAddress+0x108>
    4ef4:	93 e0       	ldi	r25, 0x03	; 3
    4ef6:	c9 2e       	mov	r12, r25
    4ef8:	d1 2c       	mov	r13, r1
    4efa:	a3 01       	movw	r20, r6
    4efc:	68 e8       	ldi	r22, 0x88	; 136
    4efe:	73 e1       	ldi	r23, 0x13	; 19
    4f00:	c5 01       	movw	r24, r10
    4f02:	0e 94 9b 25 	call	0x4b36	; 0x4b36 <_ZN9DNSClient15ProcessResponseEjR9IPAddress>
    4f06:	8c 01       	movw	r16, r24
    4f08:	21 e0       	ldi	r18, 0x01	; 1
    4f0a:	c2 1a       	sub	r12, r18
    4f0c:	d1 08       	sbc	r13, r1
    4f0e:	29 f3       	breq	.-54     	; 0x4eda <_ZN9DNSClient13getHostByNameEPKcR9IPAddress+0xd0>
    4f10:	e0 cf       	rjmp	.-64     	; 0x4ed2 <_ZN9DNSClient13getHostByNameEPKcR9IPAddress+0xc8>
    4f12:	c8 01       	movw	r24, r16
    4f14:	26 96       	adiw	r28, 0x06	; 6
    4f16:	0f b6       	in	r0, 0x3f	; 63
    4f18:	f8 94       	cli
    4f1a:	de bf       	out	0x3e, r29	; 62
    4f1c:	0f be       	out	0x3f, r0	; 63
    4f1e:	cd bf       	out	0x3d, r28	; 61
    4f20:	df 91       	pop	r29
    4f22:	cf 91       	pop	r28
    4f24:	1f 91       	pop	r17
    4f26:	0f 91       	pop	r16
    4f28:	ff 90       	pop	r15
    4f2a:	ef 90       	pop	r14
    4f2c:	df 90       	pop	r13
    4f2e:	cf 90       	pop	r12
    4f30:	bf 90       	pop	r11
    4f32:	af 90       	pop	r10
    4f34:	9f 90       	pop	r9
    4f36:	8f 90       	pop	r8
    4f38:	7f 90       	pop	r7
    4f3a:	6f 90       	pop	r6
    4f3c:	08 95       	ret

00004f3e <_Z10randomSeedj>:
    4f3e:	00 97       	sbiw	r24, 0x00	; 0
    4f40:	29 f0       	breq	.+10     	; 0x4f4c <_Z10randomSeedj+0xe>
    4f42:	bc 01       	movw	r22, r24
    4f44:	80 e0       	ldi	r24, 0x00	; 0
    4f46:	90 e0       	ldi	r25, 0x00	; 0
    4f48:	0c 94 f1 32 	jmp	0x65e2	; 0x65e2 <srandom>
    4f4c:	08 95       	ret

00004f4e <_Z6randoml>:
    4f4e:	0f 93       	push	r16
    4f50:	1f 93       	push	r17
    4f52:	cf 93       	push	r28
    4f54:	df 93       	push	r29
    4f56:	00 d0       	rcall	.+0      	; 0x4f58 <_Z6randoml+0xa>
    4f58:	00 d0       	rcall	.+0      	; 0x4f5a <_Z6randoml+0xc>
    4f5a:	cd b7       	in	r28, 0x3d	; 61
    4f5c:	de b7       	in	r29, 0x3e	; 62
    4f5e:	9b 01       	movw	r18, r22
    4f60:	ac 01       	movw	r20, r24
    4f62:	61 15       	cp	r22, r1
    4f64:	71 05       	cpc	r23, r1
    4f66:	81 05       	cpc	r24, r1
    4f68:	91 05       	cpc	r25, r1
    4f6a:	79 f0       	breq	.+30     	; 0x4f8a <_Z6randoml+0x3c>
    4f6c:	69 83       	std	Y+1, r22	; 0x01
    4f6e:	3a 83       	std	Y+2, r19	; 0x02
    4f70:	4b 83       	std	Y+3, r20	; 0x03
    4f72:	5c 83       	std	Y+4, r21	; 0x04
    4f74:	0e 94 ec 32 	call	0x65d8	; 0x65d8 <random>
    4f78:	29 81       	ldd	r18, Y+1	; 0x01
    4f7a:	3a 81       	ldd	r19, Y+2	; 0x02
    4f7c:	4b 81       	ldd	r20, Y+3	; 0x03
    4f7e:	5c 81       	ldd	r21, Y+4	; 0x04
    4f80:	0e 94 d3 30 	call	0x61a6	; 0x61a6 <__divmodsi4>
    4f84:	8b 01       	movw	r16, r22
    4f86:	9c 01       	movw	r18, r24
    4f88:	03 c0       	rjmp	.+6      	; 0x4f90 <_Z6randoml+0x42>
    4f8a:	00 e0       	ldi	r16, 0x00	; 0
    4f8c:	10 e0       	ldi	r17, 0x00	; 0
    4f8e:	98 01       	movw	r18, r16
    4f90:	b8 01       	movw	r22, r16
    4f92:	c9 01       	movw	r24, r18
    4f94:	0f 90       	pop	r0
    4f96:	0f 90       	pop	r0
    4f98:	0f 90       	pop	r0
    4f9a:	0f 90       	pop	r0
    4f9c:	df 91       	pop	r29
    4f9e:	cf 91       	pop	r28
    4fa0:	1f 91       	pop	r17
    4fa2:	0f 91       	pop	r16
    4fa4:	08 95       	ret

00004fa6 <_Z6randomll>:
    4fa6:	cf 92       	push	r12
    4fa8:	df 92       	push	r13
    4faa:	ef 92       	push	r14
    4fac:	ff 92       	push	r15
    4fae:	6b 01       	movw	r12, r22
    4fb0:	7c 01       	movw	r14, r24
    4fb2:	62 17       	cp	r22, r18
    4fb4:	73 07       	cpc	r23, r19
    4fb6:	84 07       	cpc	r24, r20
    4fb8:	95 07       	cpc	r25, r21
    4fba:	64 f4       	brge	.+24     	; 0x4fd4 <_Z6randomll+0x2e>
    4fbc:	ca 01       	movw	r24, r20
    4fbe:	b9 01       	movw	r22, r18
    4fc0:	6c 19       	sub	r22, r12
    4fc2:	7d 09       	sbc	r23, r13
    4fc4:	8e 09       	sbc	r24, r14
    4fc6:	9f 09       	sbc	r25, r15
    4fc8:	0e 94 a7 27 	call	0x4f4e	; 0x4f4e <_Z6randoml>
    4fcc:	c6 0e       	add	r12, r22
    4fce:	d7 1e       	adc	r13, r23
    4fd0:	e8 1e       	adc	r14, r24
    4fd2:	f9 1e       	adc	r15, r25
    4fd4:	b6 01       	movw	r22, r12
    4fd6:	c7 01       	movw	r24, r14
    4fd8:	ff 90       	pop	r15
    4fda:	ef 90       	pop	r14
    4fdc:	df 90       	pop	r13
    4fde:	cf 90       	pop	r12
    4fe0:	08 95       	ret

00004fe2 <_Z3maplllll>:
    4fe2:	4f 92       	push	r4
    4fe4:	5f 92       	push	r5
    4fe6:	6f 92       	push	r6
    4fe8:	7f 92       	push	r7
    4fea:	af 92       	push	r10
    4fec:	bf 92       	push	r11
    4fee:	cf 92       	push	r12
    4ff0:	df 92       	push	r13
    4ff2:	ef 92       	push	r14
    4ff4:	ff 92       	push	r15
    4ff6:	0f 93       	push	r16
    4ff8:	1f 93       	push	r17
    4ffa:	cf 93       	push	r28
    4ffc:	df 93       	push	r29
    4ffe:	cd b7       	in	r28, 0x3d	; 61
    5000:	de b7       	in	r29, 0x3e	; 62
    5002:	29 01       	movw	r4, r18
    5004:	3a 01       	movw	r6, r20
    5006:	62 1b       	sub	r22, r18
    5008:	73 0b       	sbc	r23, r19
    500a:	84 0b       	sbc	r24, r20
    500c:	95 0b       	sbc	r25, r21
    500e:	29 89       	ldd	r18, Y+17	; 0x11
    5010:	3a 89       	ldd	r19, Y+18	; 0x12
    5012:	4b 89       	ldd	r20, Y+19	; 0x13
    5014:	5c 89       	ldd	r21, Y+20	; 0x14
    5016:	2a 19       	sub	r18, r10
    5018:	3b 09       	sbc	r19, r11
    501a:	4c 09       	sbc	r20, r12
    501c:	5d 09       	sbc	r21, r13
    501e:	29 8b       	std	Y+17, r18	; 0x11
    5020:	3a 8b       	std	Y+18, r19	; 0x12
    5022:	4b 8b       	std	Y+19, r20	; 0x13
    5024:	5c 8b       	std	Y+20, r21	; 0x14
    5026:	9b 01       	movw	r18, r22
    5028:	ac 01       	movw	r20, r24
    502a:	69 89       	ldd	r22, Y+17	; 0x11
    502c:	7a 89       	ldd	r23, Y+18	; 0x12
    502e:	8b 89       	ldd	r24, Y+19	; 0x13
    5030:	9c 89       	ldd	r25, Y+20	; 0x14
    5032:	0e 94 a1 30 	call	0x6142	; 0x6142 <__mulsi3>
    5036:	e4 18       	sub	r14, r4
    5038:	f5 08       	sbc	r15, r5
    503a:	06 09       	sbc	r16, r6
    503c:	17 09       	sbc	r17, r7
    503e:	a8 01       	movw	r20, r16
    5040:	97 01       	movw	r18, r14
    5042:	0e 94 d3 30 	call	0x61a6	; 0x61a6 <__divmodsi4>
    5046:	2a 0d       	add	r18, r10
    5048:	3b 1d       	adc	r19, r11
    504a:	4c 1d       	adc	r20, r12
    504c:	5d 1d       	adc	r21, r13
    504e:	b9 01       	movw	r22, r18
    5050:	ca 01       	movw	r24, r20
    5052:	df 91       	pop	r29
    5054:	cf 91       	pop	r28
    5056:	1f 91       	pop	r17
    5058:	0f 91       	pop	r16
    505a:	ff 90       	pop	r15
    505c:	ef 90       	pop	r14
    505e:	df 90       	pop	r13
    5060:	cf 90       	pop	r12
    5062:	bf 90       	pop	r11
    5064:	af 90       	pop	r10
    5066:	7f 90       	pop	r7
    5068:	6f 90       	pop	r6
    506a:	5f 90       	pop	r5
    506c:	4f 90       	pop	r4
    506e:	08 95       	ret

00005070 <_Z8makeWordj>:
    5070:	08 95       	ret

00005072 <_Z8makeWordhh>:
    5072:	38 2f       	mov	r19, r24
    5074:	20 e0       	ldi	r18, 0x00	; 0
    5076:	26 2b       	or	r18, r22
    5078:	c9 01       	movw	r24, r18
    507a:	08 95       	ret

0000507c <_ZN8SPIClass5beginEv>:
    507c:	61 e0       	ldi	r22, 0x01	; 1
    507e:	8d e0       	ldi	r24, 0x0D	; 13
    5080:	0e 94 f1 18 	call	0x31e2	; 0x31e2 <pinMode>
    5084:	61 e0       	ldi	r22, 0x01	; 1
    5086:	8b e0       	ldi	r24, 0x0B	; 11
    5088:	0e 94 f1 18 	call	0x31e2	; 0x31e2 <pinMode>
    508c:	61 e0       	ldi	r22, 0x01	; 1
    508e:	8a e0       	ldi	r24, 0x0A	; 10
    5090:	0e 94 f1 18 	call	0x31e2	; 0x31e2 <pinMode>
    5094:	60 e0       	ldi	r22, 0x00	; 0
    5096:	8d e0       	ldi	r24, 0x0D	; 13
    5098:	0e 94 29 19 	call	0x3252	; 0x3252 <digitalWrite>
    509c:	60 e0       	ldi	r22, 0x00	; 0
    509e:	8b e0       	ldi	r24, 0x0B	; 11
    50a0:	0e 94 29 19 	call	0x3252	; 0x3252 <digitalWrite>
    50a4:	61 e0       	ldi	r22, 0x01	; 1
    50a6:	8a e0       	ldi	r24, 0x0A	; 10
    50a8:	0e 94 29 19 	call	0x3252	; 0x3252 <digitalWrite>
    50ac:	8c b5       	in	r24, 0x2c	; 44
    50ae:	80 61       	ori	r24, 0x10	; 16
    50b0:	8c bd       	out	0x2c, r24	; 44
    50b2:	8c b5       	in	r24, 0x2c	; 44
    50b4:	80 64       	ori	r24, 0x40	; 64
    50b6:	8c bd       	out	0x2c, r24	; 44
    50b8:	08 95       	ret

000050ba <_ZN8SPIClass3endEv>:
    50ba:	8c b5       	in	r24, 0x2c	; 44
    50bc:	8f 7b       	andi	r24, 0xBF	; 191
    50be:	8c bd       	out	0x2c, r24	; 44
    50c0:	08 95       	ret

000050c2 <_ZN8SPIClass11setBitOrderEh>:
    50c2:	81 11       	cpse	r24, r1
    50c4:	03 c0       	rjmp	.+6      	; 0x50cc <_ZN8SPIClass11setBitOrderEh+0xa>
    50c6:	8c b5       	in	r24, 0x2c	; 44
    50c8:	80 62       	ori	r24, 0x20	; 32
    50ca:	02 c0       	rjmp	.+4      	; 0x50d0 <_ZN8SPIClass11setBitOrderEh+0xe>
    50cc:	8c b5       	in	r24, 0x2c	; 44
    50ce:	8f 7d       	andi	r24, 0xDF	; 223
    50d0:	8c bd       	out	0x2c, r24	; 44
    50d2:	08 95       	ret

000050d4 <_ZN8SPIClass11setDataModeEh>:
    50d4:	9c b5       	in	r25, 0x2c	; 44
    50d6:	93 7f       	andi	r25, 0xF3	; 243
    50d8:	98 2b       	or	r25, r24
    50da:	9c bd       	out	0x2c, r25	; 44
    50dc:	08 95       	ret

000050de <_ZN8SPIClass15setClockDividerEh>:
    50de:	2c b5       	in	r18, 0x2c	; 44
    50e0:	98 2f       	mov	r25, r24
    50e2:	93 70       	andi	r25, 0x03	; 3
    50e4:	2c 7f       	andi	r18, 0xFC	; 252
    50e6:	92 2b       	or	r25, r18
    50e8:	9c bd       	out	0x2c, r25	; 44
    50ea:	9d b5       	in	r25, 0x2d	; 45
    50ec:	82 fb       	bst	r24, 2
    50ee:	88 27       	eor	r24, r24
    50f0:	80 f9       	bld	r24, 0
    50f2:	9e 7f       	andi	r25, 0xFE	; 254
    50f4:	98 2b       	or	r25, r24
    50f6:	9d bd       	out	0x2d, r25	; 45
    50f8:	08 95       	ret

000050fa <__fixunssfsi>:
    50fa:	cf 92       	push	r12
    50fc:	df 92       	push	r13
    50fe:	ef 92       	push	r14
    5100:	ff 92       	push	r15
    5102:	0f 93       	push	r16
    5104:	1f 93       	push	r17
    5106:	6b 01       	movw	r12, r22
    5108:	7c 01       	movw	r14, r24
    510a:	20 e0       	ldi	r18, 0x00	; 0
    510c:	30 e0       	ldi	r19, 0x00	; 0
    510e:	40 e0       	ldi	r20, 0x00	; 0
    5110:	5f e4       	ldi	r21, 0x4F	; 79
    5112:	0e 94 e0 2b 	call	0x57c0	; 0x57c0 <__gesf2>
    5116:	87 fd       	sbrc	r24, 7
    5118:	0e c0       	rjmp	.+28     	; 0x5136 <__fixunssfsi+0x3c>
    511a:	20 e0       	ldi	r18, 0x00	; 0
    511c:	30 e0       	ldi	r19, 0x00	; 0
    511e:	40 e0       	ldi	r20, 0x00	; 0
    5120:	5f e4       	ldi	r21, 0x4F	; 79
    5122:	c7 01       	movw	r24, r14
    5124:	b6 01       	movw	r22, r12
    5126:	0e 94 28 2a 	call	0x5450	; 0x5450 <__subsf3>
    512a:	0e 94 9a 2c 	call	0x5934	; 0x5934 <__fixsfsi>
    512e:	8b 01       	movw	r16, r22
    5130:	9c 01       	movw	r18, r24
    5132:	30 58       	subi	r19, 0x80	; 128
    5134:	06 c0       	rjmp	.+12     	; 0x5142 <__fixunssfsi+0x48>
    5136:	c7 01       	movw	r24, r14
    5138:	b6 01       	movw	r22, r12
    513a:	0e 94 9a 2c 	call	0x5934	; 0x5934 <__fixsfsi>
    513e:	8b 01       	movw	r16, r22
    5140:	9c 01       	movw	r18, r24
    5142:	b8 01       	movw	r22, r16
    5144:	c9 01       	movw	r24, r18
    5146:	1f 91       	pop	r17
    5148:	0f 91       	pop	r16
    514a:	ff 90       	pop	r15
    514c:	ef 90       	pop	r14
    514e:	df 90       	pop	r13
    5150:	cf 90       	pop	r12
    5152:	08 95       	ret

00005154 <_fpadd_parts>:
    5154:	a0 e0       	ldi	r26, 0x00	; 0
    5156:	b0 e0       	ldi	r27, 0x00	; 0
    5158:	e0 eb       	ldi	r30, 0xB0	; 176
    515a:	f8 e2       	ldi	r31, 0x28	; 40
    515c:	0c 94 05 31 	jmp	0x620a	; 0x620a <__prologue_saves__+0x8>
    5160:	3c 01       	movw	r6, r24
    5162:	cb 01       	movw	r24, r22
    5164:	ea 01       	movw	r28, r20
    5166:	d3 01       	movw	r26, r6
    5168:	2c 91       	ld	r18, X
    516a:	22 30       	cpi	r18, 0x02	; 2
    516c:	08 f4       	brcc	.+2      	; 0x5170 <_fpadd_parts+0x1c>
    516e:	3e c1       	rjmp	.+636    	; 0x53ec <_fpadd_parts+0x298>
    5170:	fb 01       	movw	r30, r22
    5172:	30 81       	ld	r19, Z
    5174:	32 30       	cpi	r19, 0x02	; 2
    5176:	08 f4       	brcc	.+2      	; 0x517a <_fpadd_parts+0x26>
    5178:	36 c1       	rjmp	.+620    	; 0x53e6 <_fpadd_parts+0x292>
    517a:	24 30       	cpi	r18, 0x04	; 4
    517c:	71 f4       	brne	.+28     	; 0x519a <_fpadd_parts+0x46>
    517e:	34 30       	cpi	r19, 0x04	; 4
    5180:	09 f0       	breq	.+2      	; 0x5184 <_fpadd_parts+0x30>
    5182:	34 c1       	rjmp	.+616    	; 0x53ec <_fpadd_parts+0x298>
    5184:	11 96       	adiw	r26, 0x01	; 1
    5186:	2c 91       	ld	r18, X
    5188:	81 81       	ldd	r24, Z+1	; 0x01
    518a:	28 17       	cp	r18, r24
    518c:	09 f4       	brne	.+2      	; 0x5190 <_fpadd_parts+0x3c>
    518e:	2e c1       	rjmp	.+604    	; 0x53ec <_fpadd_parts+0x298>
    5190:	b8 e1       	ldi	r27, 0x18	; 24
    5192:	6b 2e       	mov	r6, r27
    5194:	b1 e0       	ldi	r27, 0x01	; 1
    5196:	7b 2e       	mov	r7, r27
    5198:	29 c1       	rjmp	.+594    	; 0x53ec <_fpadd_parts+0x298>
    519a:	34 30       	cpi	r19, 0x04	; 4
    519c:	09 f4       	brne	.+2      	; 0x51a0 <_fpadd_parts+0x4c>
    519e:	23 c1       	rjmp	.+582    	; 0x53e6 <_fpadd_parts+0x292>
    51a0:	32 30       	cpi	r19, 0x02	; 2
    51a2:	91 f4       	brne	.+36     	; 0x51c8 <_fpadd_parts+0x74>
    51a4:	22 30       	cpi	r18, 0x02	; 2
    51a6:	09 f0       	breq	.+2      	; 0x51aa <_fpadd_parts+0x56>
    51a8:	21 c1       	rjmp	.+578    	; 0x53ec <_fpadd_parts+0x298>
    51aa:	28 e0       	ldi	r18, 0x08	; 8
    51ac:	f3 01       	movw	r30, r6
    51ae:	da 01       	movw	r26, r20
    51b0:	01 90       	ld	r0, Z+
    51b2:	0d 92       	st	X+, r0
    51b4:	2a 95       	dec	r18
    51b6:	e1 f7       	brne	.-8      	; 0x51b0 <_fpadd_parts+0x5c>
    51b8:	db 01       	movw	r26, r22
    51ba:	11 96       	adiw	r26, 0x01	; 1
    51bc:	8c 91       	ld	r24, X
    51be:	f3 01       	movw	r30, r6
    51c0:	91 81       	ldd	r25, Z+1	; 0x01
    51c2:	89 23       	and	r24, r25
    51c4:	89 83       	std	Y+1, r24	; 0x01
    51c6:	11 c1       	rjmp	.+546    	; 0x53ea <_fpadd_parts+0x296>
    51c8:	22 30       	cpi	r18, 0x02	; 2
    51ca:	09 f4       	brne	.+2      	; 0x51ce <_fpadd_parts+0x7a>
    51cc:	0c c1       	rjmp	.+536    	; 0x53e6 <_fpadd_parts+0x292>
    51ce:	d3 01       	movw	r26, r6
    51d0:	12 96       	adiw	r26, 0x02	; 2
    51d2:	ed 91       	ld	r30, X+
    51d4:	fc 91       	ld	r31, X
    51d6:	13 97       	sbiw	r26, 0x03	; 3
    51d8:	db 01       	movw	r26, r22
    51da:	12 96       	adiw	r26, 0x02	; 2
    51dc:	6d 91       	ld	r22, X+
    51de:	7c 91       	ld	r23, X
    51e0:	13 97       	sbiw	r26, 0x03	; 3
    51e2:	d3 01       	movw	r26, r6
    51e4:	14 96       	adiw	r26, 0x04	; 4
    51e6:	0d 91       	ld	r16, X+
    51e8:	1d 91       	ld	r17, X+
    51ea:	2d 91       	ld	r18, X+
    51ec:	3c 91       	ld	r19, X
    51ee:	17 97       	sbiw	r26, 0x07	; 7
    51f0:	dc 01       	movw	r26, r24
    51f2:	14 96       	adiw	r26, 0x04	; 4
    51f4:	cd 90       	ld	r12, X+
    51f6:	dd 90       	ld	r13, X+
    51f8:	ed 90       	ld	r14, X+
    51fa:	fc 90       	ld	r15, X
    51fc:	17 97       	sbiw	r26, 0x07	; 7
    51fe:	af 01       	movw	r20, r30
    5200:	46 1b       	sub	r20, r22
    5202:	57 0b       	sbc	r21, r23
    5204:	da 01       	movw	r26, r20
    5206:	57 ff       	sbrs	r21, 7
    5208:	04 c0       	rjmp	.+8      	; 0x5212 <_fpadd_parts+0xbe>
    520a:	aa 27       	eor	r26, r26
    520c:	bb 27       	eor	r27, r27
    520e:	a4 1b       	sub	r26, r20
    5210:	b5 0b       	sbc	r27, r21
    5212:	a0 32       	cpi	r26, 0x20	; 32
    5214:	b1 05       	cpc	r27, r1
    5216:	0c f0       	brlt	.+2      	; 0x521a <_fpadd_parts+0xc6>
    5218:	65 c0       	rjmp	.+202    	; 0x52e4 <_fpadd_parts+0x190>
    521a:	14 16       	cp	r1, r20
    521c:	15 06       	cpc	r1, r21
    521e:	7c f5       	brge	.+94     	; 0x527e <_fpadd_parts+0x12a>
    5220:	b7 01       	movw	r22, r14
    5222:	a6 01       	movw	r20, r12
    5224:	0a 2e       	mov	r0, r26
    5226:	04 c0       	rjmp	.+8      	; 0x5230 <_fpadd_parts+0xdc>
    5228:	76 95       	lsr	r23
    522a:	67 95       	ror	r22
    522c:	57 95       	ror	r21
    522e:	47 95       	ror	r20
    5230:	0a 94       	dec	r0
    5232:	d2 f7       	brpl	.-12     	; 0x5228 <_fpadd_parts+0xd4>
    5234:	81 2c       	mov	r8, r1
    5236:	91 2c       	mov	r9, r1
    5238:	54 01       	movw	r10, r8
    523a:	83 94       	inc	r8
    523c:	04 c0       	rjmp	.+8      	; 0x5246 <_fpadd_parts+0xf2>
    523e:	88 0c       	add	r8, r8
    5240:	99 1c       	adc	r9, r9
    5242:	aa 1c       	adc	r10, r10
    5244:	bb 1c       	adc	r11, r11
    5246:	aa 95       	dec	r26
    5248:	d2 f7       	brpl	.-12     	; 0x523e <_fpadd_parts+0xea>
    524a:	b1 e0       	ldi	r27, 0x01	; 1
    524c:	8b 1a       	sub	r8, r27
    524e:	91 08       	sbc	r9, r1
    5250:	a1 08       	sbc	r10, r1
    5252:	b1 08       	sbc	r11, r1
    5254:	8c 20       	and	r8, r12
    5256:	9d 20       	and	r9, r13
    5258:	ae 20       	and	r10, r14
    525a:	bf 20       	and	r11, r15
    525c:	c1 2c       	mov	r12, r1
    525e:	d1 2c       	mov	r13, r1
    5260:	76 01       	movw	r14, r12
    5262:	c3 94       	inc	r12
    5264:	81 14       	cp	r8, r1
    5266:	91 04       	cpc	r9, r1
    5268:	a1 04       	cpc	r10, r1
    526a:	b1 04       	cpc	r11, r1
    526c:	19 f4       	brne	.+6      	; 0x5274 <_fpadd_parts+0x120>
    526e:	c1 2c       	mov	r12, r1
    5270:	d1 2c       	mov	r13, r1
    5272:	76 01       	movw	r14, r12
    5274:	c4 2a       	or	r12, r20
    5276:	d5 2a       	or	r13, r21
    5278:	e6 2a       	or	r14, r22
    527a:	f7 2a       	or	r15, r23
    527c:	3e c0       	rjmp	.+124    	; 0x52fa <_fpadd_parts+0x1a6>
    527e:	45 2b       	or	r20, r21
    5280:	e1 f1       	breq	.+120    	; 0x52fa <_fpadd_parts+0x1a6>
    5282:	ea 0f       	add	r30, r26
    5284:	fb 1f       	adc	r31, r27
    5286:	b9 01       	movw	r22, r18
    5288:	a8 01       	movw	r20, r16
    528a:	0a 2e       	mov	r0, r26
    528c:	04 c0       	rjmp	.+8      	; 0x5296 <_fpadd_parts+0x142>
    528e:	76 95       	lsr	r23
    5290:	67 95       	ror	r22
    5292:	57 95       	ror	r21
    5294:	47 95       	ror	r20
    5296:	0a 94       	dec	r0
    5298:	d2 f7       	brpl	.-12     	; 0x528e <_fpadd_parts+0x13a>
    529a:	81 2c       	mov	r8, r1
    529c:	91 2c       	mov	r9, r1
    529e:	54 01       	movw	r10, r8
    52a0:	83 94       	inc	r8
    52a2:	04 c0       	rjmp	.+8      	; 0x52ac <_fpadd_parts+0x158>
    52a4:	88 0c       	add	r8, r8
    52a6:	99 1c       	adc	r9, r9
    52a8:	aa 1c       	adc	r10, r10
    52aa:	bb 1c       	adc	r11, r11
    52ac:	aa 95       	dec	r26
    52ae:	d2 f7       	brpl	.-12     	; 0x52a4 <_fpadd_parts+0x150>
    52b0:	a1 e0       	ldi	r26, 0x01	; 1
    52b2:	8a 1a       	sub	r8, r26
    52b4:	91 08       	sbc	r9, r1
    52b6:	a1 08       	sbc	r10, r1
    52b8:	b1 08       	sbc	r11, r1
    52ba:	80 22       	and	r8, r16
    52bc:	91 22       	and	r9, r17
    52be:	a2 22       	and	r10, r18
    52c0:	b3 22       	and	r11, r19
    52c2:	01 e0       	ldi	r16, 0x01	; 1
    52c4:	10 e0       	ldi	r17, 0x00	; 0
    52c6:	20 e0       	ldi	r18, 0x00	; 0
    52c8:	30 e0       	ldi	r19, 0x00	; 0
    52ca:	81 14       	cp	r8, r1
    52cc:	91 04       	cpc	r9, r1
    52ce:	a1 04       	cpc	r10, r1
    52d0:	b1 04       	cpc	r11, r1
    52d2:	19 f4       	brne	.+6      	; 0x52da <_fpadd_parts+0x186>
    52d4:	00 e0       	ldi	r16, 0x00	; 0
    52d6:	10 e0       	ldi	r17, 0x00	; 0
    52d8:	98 01       	movw	r18, r16
    52da:	04 2b       	or	r16, r20
    52dc:	15 2b       	or	r17, r21
    52de:	26 2b       	or	r18, r22
    52e0:	37 2b       	or	r19, r23
    52e2:	0b c0       	rjmp	.+22     	; 0x52fa <_fpadd_parts+0x1a6>
    52e4:	6e 17       	cp	r22, r30
    52e6:	7f 07       	cpc	r23, r31
    52e8:	24 f4       	brge	.+8      	; 0x52f2 <_fpadd_parts+0x19e>
    52ea:	c1 2c       	mov	r12, r1
    52ec:	d1 2c       	mov	r13, r1
    52ee:	76 01       	movw	r14, r12
    52f0:	04 c0       	rjmp	.+8      	; 0x52fa <_fpadd_parts+0x1a6>
    52f2:	fb 01       	movw	r30, r22
    52f4:	00 e0       	ldi	r16, 0x00	; 0
    52f6:	10 e0       	ldi	r17, 0x00	; 0
    52f8:	98 01       	movw	r18, r16
    52fa:	d3 01       	movw	r26, r6
    52fc:	11 96       	adiw	r26, 0x01	; 1
    52fe:	4c 91       	ld	r20, X
    5300:	dc 01       	movw	r26, r24
    5302:	11 96       	adiw	r26, 0x01	; 1
    5304:	8c 91       	ld	r24, X
    5306:	48 17       	cp	r20, r24
    5308:	09 f4       	brne	.+2      	; 0x530c <_fpadd_parts+0x1b8>
    530a:	42 c0       	rjmp	.+132    	; 0x5390 <_fpadd_parts+0x23c>
    530c:	44 23       	and	r20, r20
    530e:	49 f0       	breq	.+18     	; 0x5322 <_fpadd_parts+0x1ce>
    5310:	d7 01       	movw	r26, r14
    5312:	c6 01       	movw	r24, r12
    5314:	80 1b       	sub	r24, r16
    5316:	91 0b       	sbc	r25, r17
    5318:	a2 0b       	sbc	r26, r18
    531a:	b3 0b       	sbc	r27, r19
    531c:	8c 01       	movw	r16, r24
    531e:	9d 01       	movw	r18, r26
    5320:	04 c0       	rjmp	.+8      	; 0x532a <_fpadd_parts+0x1d6>
    5322:	0c 19       	sub	r16, r12
    5324:	1d 09       	sbc	r17, r13
    5326:	2e 09       	sbc	r18, r14
    5328:	3f 09       	sbc	r19, r15
    532a:	37 fd       	sbrc	r19, 7
    532c:	04 c0       	rjmp	.+8      	; 0x5336 <_fpadd_parts+0x1e2>
    532e:	19 82       	std	Y+1, r1	; 0x01
    5330:	fb 83       	std	Y+3, r31	; 0x03
    5332:	ea 83       	std	Y+2, r30	; 0x02
    5334:	0b c0       	rjmp	.+22     	; 0x534c <_fpadd_parts+0x1f8>
    5336:	81 e0       	ldi	r24, 0x01	; 1
    5338:	89 83       	std	Y+1, r24	; 0x01
    533a:	fb 83       	std	Y+3, r31	; 0x03
    533c:	ea 83       	std	Y+2, r30	; 0x02
    533e:	30 95       	com	r19
    5340:	20 95       	com	r18
    5342:	10 95       	com	r17
    5344:	01 95       	neg	r16
    5346:	1f 4f       	sbci	r17, 0xFF	; 255
    5348:	2f 4f       	sbci	r18, 0xFF	; 255
    534a:	3f 4f       	sbci	r19, 0xFF	; 255
    534c:	0c 83       	std	Y+4, r16	; 0x04
    534e:	1d 83       	std	Y+5, r17	; 0x05
    5350:	2e 83       	std	Y+6, r18	; 0x06
    5352:	3f 83       	std	Y+7, r19	; 0x07
    5354:	0d c0       	rjmp	.+26     	; 0x5370 <_fpadd_parts+0x21c>
    5356:	88 0f       	add	r24, r24
    5358:	99 1f       	adc	r25, r25
    535a:	aa 1f       	adc	r26, r26
    535c:	bb 1f       	adc	r27, r27
    535e:	8c 83       	std	Y+4, r24	; 0x04
    5360:	9d 83       	std	Y+5, r25	; 0x05
    5362:	ae 83       	std	Y+6, r26	; 0x06
    5364:	bf 83       	std	Y+7, r27	; 0x07
    5366:	8a 81       	ldd	r24, Y+2	; 0x02
    5368:	9b 81       	ldd	r25, Y+3	; 0x03
    536a:	01 97       	sbiw	r24, 0x01	; 1
    536c:	9b 83       	std	Y+3, r25	; 0x03
    536e:	8a 83       	std	Y+2, r24	; 0x02
    5370:	8c 81       	ldd	r24, Y+4	; 0x04
    5372:	9d 81       	ldd	r25, Y+5	; 0x05
    5374:	ae 81       	ldd	r26, Y+6	; 0x06
    5376:	bf 81       	ldd	r27, Y+7	; 0x07
    5378:	8c 01       	movw	r16, r24
    537a:	9d 01       	movw	r18, r26
    537c:	01 50       	subi	r16, 0x01	; 1
    537e:	11 09       	sbc	r17, r1
    5380:	21 09       	sbc	r18, r1
    5382:	31 09       	sbc	r19, r1
    5384:	0f 3f       	cpi	r16, 0xFF	; 255
    5386:	1f 4f       	sbci	r17, 0xFF	; 255
    5388:	2f 4f       	sbci	r18, 0xFF	; 255
    538a:	3f 43       	sbci	r19, 0x3F	; 63
    538c:	20 f3       	brcs	.-56     	; 0x5356 <_fpadd_parts+0x202>
    538e:	0b c0       	rjmp	.+22     	; 0x53a6 <_fpadd_parts+0x252>
    5390:	49 83       	std	Y+1, r20	; 0x01
    5392:	fb 83       	std	Y+3, r31	; 0x03
    5394:	ea 83       	std	Y+2, r30	; 0x02
    5396:	0c 0d       	add	r16, r12
    5398:	1d 1d       	adc	r17, r13
    539a:	2e 1d       	adc	r18, r14
    539c:	3f 1d       	adc	r19, r15
    539e:	0c 83       	std	Y+4, r16	; 0x04
    53a0:	1d 83       	std	Y+5, r17	; 0x05
    53a2:	2e 83       	std	Y+6, r18	; 0x06
    53a4:	3f 83       	std	Y+7, r19	; 0x07
    53a6:	83 e0       	ldi	r24, 0x03	; 3
    53a8:	88 83       	st	Y, r24
    53aa:	0c 81       	ldd	r16, Y+4	; 0x04
    53ac:	1d 81       	ldd	r17, Y+5	; 0x05
    53ae:	2e 81       	ldd	r18, Y+6	; 0x06
    53b0:	3f 81       	ldd	r19, Y+7	; 0x07
    53b2:	37 ff       	sbrs	r19, 7
    53b4:	1a c0       	rjmp	.+52     	; 0x53ea <_fpadd_parts+0x296>
    53b6:	d9 01       	movw	r26, r18
    53b8:	c8 01       	movw	r24, r16
    53ba:	81 70       	andi	r24, 0x01	; 1
    53bc:	99 27       	eor	r25, r25
    53be:	aa 27       	eor	r26, r26
    53c0:	bb 27       	eor	r27, r27
    53c2:	36 95       	lsr	r19
    53c4:	27 95       	ror	r18
    53c6:	17 95       	ror	r17
    53c8:	07 95       	ror	r16
    53ca:	80 2b       	or	r24, r16
    53cc:	91 2b       	or	r25, r17
    53ce:	a2 2b       	or	r26, r18
    53d0:	b3 2b       	or	r27, r19
    53d2:	8c 83       	std	Y+4, r24	; 0x04
    53d4:	9d 83       	std	Y+5, r25	; 0x05
    53d6:	ae 83       	std	Y+6, r26	; 0x06
    53d8:	bf 83       	std	Y+7, r27	; 0x07
    53da:	8a 81       	ldd	r24, Y+2	; 0x02
    53dc:	9b 81       	ldd	r25, Y+3	; 0x03
    53de:	01 96       	adiw	r24, 0x01	; 1
    53e0:	9b 83       	std	Y+3, r25	; 0x03
    53e2:	8a 83       	std	Y+2, r24	; 0x02
    53e4:	02 c0       	rjmp	.+4      	; 0x53ea <_fpadd_parts+0x296>
    53e6:	3c 01       	movw	r6, r24
    53e8:	01 c0       	rjmp	.+2      	; 0x53ec <_fpadd_parts+0x298>
    53ea:	3e 01       	movw	r6, r28
    53ec:	c3 01       	movw	r24, r6
    53ee:	cd b7       	in	r28, 0x3d	; 61
    53f0:	de b7       	in	r29, 0x3e	; 62
    53f2:	ee e0       	ldi	r30, 0x0E	; 14
    53f4:	0c 94 21 31 	jmp	0x6242	; 0x6242 <__epilogue_restores__+0x8>

000053f8 <__addsf3>:
    53f8:	a0 e2       	ldi	r26, 0x20	; 32
    53fa:	b0 e0       	ldi	r27, 0x00	; 0
    53fc:	e2 e0       	ldi	r30, 0x02	; 2
    53fe:	fa e2       	ldi	r31, 0x2A	; 42
    5400:	0c 94 11 31 	jmp	0x6222	; 0x6222 <__prologue_saves__+0x20>
    5404:	6d 8f       	std	Y+29, r22	; 0x1d
    5406:	7e 8f       	std	Y+30, r23	; 0x1e
    5408:	8f 8f       	std	Y+31, r24	; 0x1f
    540a:	98 a3       	std	Y+32, r25	; 0x20
    540c:	29 8f       	std	Y+25, r18	; 0x19
    540e:	3a 8f       	std	Y+26, r19	; 0x1a
    5410:	4b 8f       	std	Y+27, r20	; 0x1b
    5412:	5c 8f       	std	Y+28, r21	; 0x1c
    5414:	be 01       	movw	r22, r28
    5416:	6f 5e       	subi	r22, 0xEF	; 239
    5418:	7f 4f       	sbci	r23, 0xFF	; 255
    541a:	ce 01       	movw	r24, r28
    541c:	4d 96       	adiw	r24, 0x1d	; 29
    541e:	0e 94 20 2e 	call	0x5c40	; 0x5c40 <__unpack_f>
    5422:	be 01       	movw	r22, r28
    5424:	67 5f       	subi	r22, 0xF7	; 247
    5426:	7f 4f       	sbci	r23, 0xFF	; 255
    5428:	ce 01       	movw	r24, r28
    542a:	49 96       	adiw	r24, 0x19	; 25
    542c:	0e 94 20 2e 	call	0x5c40	; 0x5c40 <__unpack_f>
    5430:	ae 01       	movw	r20, r28
    5432:	4f 5f       	subi	r20, 0xFF	; 255
    5434:	5f 4f       	sbci	r21, 0xFF	; 255
    5436:	be 01       	movw	r22, r28
    5438:	67 5f       	subi	r22, 0xF7	; 247
    543a:	7f 4f       	sbci	r23, 0xFF	; 255
    543c:	ce 01       	movw	r24, r28
    543e:	41 96       	adiw	r24, 0x11	; 17
    5440:	0e 94 aa 28 	call	0x5154	; 0x5154 <_fpadd_parts>
    5444:	0e 94 5f 2d 	call	0x5abe	; 0x5abe <__pack_f>
    5448:	a0 96       	adiw	r28, 0x20	; 32
    544a:	e2 e0       	ldi	r30, 0x02	; 2
    544c:	0c 94 2d 31 	jmp	0x625a	; 0x625a <__epilogue_restores__+0x20>

00005450 <__subsf3>:
    5450:	a0 e2       	ldi	r26, 0x20	; 32
    5452:	b0 e0       	ldi	r27, 0x00	; 0
    5454:	ee e2       	ldi	r30, 0x2E	; 46
    5456:	fa e2       	ldi	r31, 0x2A	; 42
    5458:	0c 94 11 31 	jmp	0x6222	; 0x6222 <__prologue_saves__+0x20>
    545c:	6d 8f       	std	Y+29, r22	; 0x1d
    545e:	7e 8f       	std	Y+30, r23	; 0x1e
    5460:	8f 8f       	std	Y+31, r24	; 0x1f
    5462:	98 a3       	std	Y+32, r25	; 0x20
    5464:	29 8f       	std	Y+25, r18	; 0x19
    5466:	3a 8f       	std	Y+26, r19	; 0x1a
    5468:	4b 8f       	std	Y+27, r20	; 0x1b
    546a:	5c 8f       	std	Y+28, r21	; 0x1c
    546c:	be 01       	movw	r22, r28
    546e:	6f 5e       	subi	r22, 0xEF	; 239
    5470:	7f 4f       	sbci	r23, 0xFF	; 255
    5472:	ce 01       	movw	r24, r28
    5474:	4d 96       	adiw	r24, 0x1d	; 29
    5476:	0e 94 20 2e 	call	0x5c40	; 0x5c40 <__unpack_f>
    547a:	be 01       	movw	r22, r28
    547c:	67 5f       	subi	r22, 0xF7	; 247
    547e:	7f 4f       	sbci	r23, 0xFF	; 255
    5480:	ce 01       	movw	r24, r28
    5482:	49 96       	adiw	r24, 0x19	; 25
    5484:	0e 94 20 2e 	call	0x5c40	; 0x5c40 <__unpack_f>
    5488:	8a 85       	ldd	r24, Y+10	; 0x0a
    548a:	91 e0       	ldi	r25, 0x01	; 1
    548c:	89 27       	eor	r24, r25
    548e:	8a 87       	std	Y+10, r24	; 0x0a
    5490:	ae 01       	movw	r20, r28
    5492:	4f 5f       	subi	r20, 0xFF	; 255
    5494:	5f 4f       	sbci	r21, 0xFF	; 255
    5496:	be 01       	movw	r22, r28
    5498:	67 5f       	subi	r22, 0xF7	; 247
    549a:	7f 4f       	sbci	r23, 0xFF	; 255
    549c:	ce 01       	movw	r24, r28
    549e:	41 96       	adiw	r24, 0x11	; 17
    54a0:	0e 94 aa 28 	call	0x5154	; 0x5154 <_fpadd_parts>
    54a4:	0e 94 5f 2d 	call	0x5abe	; 0x5abe <__pack_f>
    54a8:	a0 96       	adiw	r28, 0x20	; 32
    54aa:	e2 e0       	ldi	r30, 0x02	; 2
    54ac:	0c 94 2d 31 	jmp	0x625a	; 0x625a <__epilogue_restores__+0x20>

000054b0 <__mulsf3>:
    54b0:	a0 e2       	ldi	r26, 0x20	; 32
    54b2:	b0 e0       	ldi	r27, 0x00	; 0
    54b4:	ee e5       	ldi	r30, 0x5E	; 94
    54b6:	fa e2       	ldi	r31, 0x2A	; 42
    54b8:	0c 94 03 31 	jmp	0x6206	; 0x6206 <__prologue_saves__+0x4>
    54bc:	6d 8f       	std	Y+29, r22	; 0x1d
    54be:	7e 8f       	std	Y+30, r23	; 0x1e
    54c0:	8f 8f       	std	Y+31, r24	; 0x1f
    54c2:	98 a3       	std	Y+32, r25	; 0x20
    54c4:	29 8f       	std	Y+25, r18	; 0x19
    54c6:	3a 8f       	std	Y+26, r19	; 0x1a
    54c8:	4b 8f       	std	Y+27, r20	; 0x1b
    54ca:	5c 8f       	std	Y+28, r21	; 0x1c
    54cc:	be 01       	movw	r22, r28
    54ce:	6f 5e       	subi	r22, 0xEF	; 239
    54d0:	7f 4f       	sbci	r23, 0xFF	; 255
    54d2:	ce 01       	movw	r24, r28
    54d4:	4d 96       	adiw	r24, 0x1d	; 29
    54d6:	0e 94 20 2e 	call	0x5c40	; 0x5c40 <__unpack_f>
    54da:	be 01       	movw	r22, r28
    54dc:	67 5f       	subi	r22, 0xF7	; 247
    54de:	7f 4f       	sbci	r23, 0xFF	; 255
    54e0:	ce 01       	movw	r24, r28
    54e2:	49 96       	adiw	r24, 0x19	; 25
    54e4:	0e 94 20 2e 	call	0x5c40	; 0x5c40 <__unpack_f>
    54e8:	99 89       	ldd	r25, Y+17	; 0x11
    54ea:	92 30       	cpi	r25, 0x02	; 2
    54ec:	08 f4       	brcc	.+2      	; 0x54f0 <__mulsf3+0x40>
    54ee:	12 c0       	rjmp	.+36     	; 0x5514 <__mulsf3+0x64>
    54f0:	89 85       	ldd	r24, Y+9	; 0x09
    54f2:	82 30       	cpi	r24, 0x02	; 2
    54f4:	08 f4       	brcc	.+2      	; 0x54f8 <__mulsf3+0x48>
    54f6:	1a c0       	rjmp	.+52     	; 0x552c <__mulsf3+0x7c>
    54f8:	94 30       	cpi	r25, 0x04	; 4
    54fa:	21 f4       	brne	.+8      	; 0x5504 <__mulsf3+0x54>
    54fc:	82 30       	cpi	r24, 0x02	; 2
    54fe:	09 f4       	brne	.+2      	; 0x5502 <__mulsf3+0x52>
    5500:	b4 c0       	rjmp	.+360    	; 0x566a <__mulsf3+0x1ba>
    5502:	08 c0       	rjmp	.+16     	; 0x5514 <__mulsf3+0x64>
    5504:	84 30       	cpi	r24, 0x04	; 4
    5506:	21 f4       	brne	.+8      	; 0x5510 <__mulsf3+0x60>
    5508:	92 30       	cpi	r25, 0x02	; 2
    550a:	09 f4       	brne	.+2      	; 0x550e <__mulsf3+0x5e>
    550c:	ae c0       	rjmp	.+348    	; 0x566a <__mulsf3+0x1ba>
    550e:	0e c0       	rjmp	.+28     	; 0x552c <__mulsf3+0x7c>
    5510:	92 30       	cpi	r25, 0x02	; 2
    5512:	51 f4       	brne	.+20     	; 0x5528 <__mulsf3+0x78>
    5514:	81 e0       	ldi	r24, 0x01	; 1
    5516:	2a 89       	ldd	r18, Y+18	; 0x12
    5518:	9a 85       	ldd	r25, Y+10	; 0x0a
    551a:	29 13       	cpse	r18, r25
    551c:	01 c0       	rjmp	.+2      	; 0x5520 <__mulsf3+0x70>
    551e:	80 e0       	ldi	r24, 0x00	; 0
    5520:	8a 8b       	std	Y+18, r24	; 0x12
    5522:	ce 01       	movw	r24, r28
    5524:	41 96       	adiw	r24, 0x11	; 17
    5526:	a3 c0       	rjmp	.+326    	; 0x566e <__mulsf3+0x1be>
    5528:	82 30       	cpi	r24, 0x02	; 2
    552a:	51 f4       	brne	.+20     	; 0x5540 <__mulsf3+0x90>
    552c:	81 e0       	ldi	r24, 0x01	; 1
    552e:	2a 89       	ldd	r18, Y+18	; 0x12
    5530:	9a 85       	ldd	r25, Y+10	; 0x0a
    5532:	29 13       	cpse	r18, r25
    5534:	01 c0       	rjmp	.+2      	; 0x5538 <__mulsf3+0x88>
    5536:	80 e0       	ldi	r24, 0x00	; 0
    5538:	8a 87       	std	Y+10, r24	; 0x0a
    553a:	ce 01       	movw	r24, r28
    553c:	09 96       	adiw	r24, 0x09	; 9
    553e:	97 c0       	rjmp	.+302    	; 0x566e <__mulsf3+0x1be>
    5540:	8d 88       	ldd	r8, Y+21	; 0x15
    5542:	9e 88       	ldd	r9, Y+22	; 0x16
    5544:	af 88       	ldd	r10, Y+23	; 0x17
    5546:	b8 8c       	ldd	r11, Y+24	; 0x18
    5548:	0d 85       	ldd	r16, Y+13	; 0x0d
    554a:	1e 85       	ldd	r17, Y+14	; 0x0e
    554c:	2f 85       	ldd	r18, Y+15	; 0x0f
    554e:	38 89       	ldd	r19, Y+16	; 0x10
    5550:	e0 e2       	ldi	r30, 0x20	; 32
    5552:	f0 e0       	ldi	r31, 0x00	; 0
    5554:	80 e0       	ldi	r24, 0x00	; 0
    5556:	90 e0       	ldi	r25, 0x00	; 0
    5558:	dc 01       	movw	r26, r24
    555a:	c1 2c       	mov	r12, r1
    555c:	d1 2c       	mov	r13, r1
    555e:	76 01       	movw	r14, r12
    5560:	40 e0       	ldi	r20, 0x00	; 0
    5562:	50 e0       	ldi	r21, 0x00	; 0
    5564:	ba 01       	movw	r22, r20
    5566:	80 fe       	sbrs	r8, 0
    5568:	18 c0       	rjmp	.+48     	; 0x559a <__mulsf3+0xea>
    556a:	40 0f       	add	r20, r16
    556c:	51 1f       	adc	r21, r17
    556e:	62 1f       	adc	r22, r18
    5570:	73 1f       	adc	r23, r19
    5572:	8c 0d       	add	r24, r12
    5574:	9d 1d       	adc	r25, r13
    5576:	ae 1d       	adc	r26, r14
    5578:	bf 1d       	adc	r27, r15
    557a:	41 2c       	mov	r4, r1
    557c:	51 2c       	mov	r5, r1
    557e:	32 01       	movw	r6, r4
    5580:	43 94       	inc	r4
    5582:	40 17       	cp	r20, r16
    5584:	51 07       	cpc	r21, r17
    5586:	62 07       	cpc	r22, r18
    5588:	73 07       	cpc	r23, r19
    558a:	18 f0       	brcs	.+6      	; 0x5592 <__mulsf3+0xe2>
    558c:	41 2c       	mov	r4, r1
    558e:	51 2c       	mov	r5, r1
    5590:	32 01       	movw	r6, r4
    5592:	84 0d       	add	r24, r4
    5594:	95 1d       	adc	r25, r5
    5596:	a6 1d       	adc	r26, r6
    5598:	b7 1d       	adc	r27, r7
    559a:	cc 0c       	add	r12, r12
    559c:	dd 1c       	adc	r13, r13
    559e:	ee 1c       	adc	r14, r14
    55a0:	ff 1c       	adc	r15, r15
    55a2:	37 ff       	sbrs	r19, 7
    55a4:	02 c0       	rjmp	.+4      	; 0x55aa <__mulsf3+0xfa>
    55a6:	68 94       	set
    55a8:	c0 f8       	bld	r12, 0
    55aa:	00 0f       	add	r16, r16
    55ac:	11 1f       	adc	r17, r17
    55ae:	22 1f       	adc	r18, r18
    55b0:	33 1f       	adc	r19, r19
    55b2:	b6 94       	lsr	r11
    55b4:	a7 94       	ror	r10
    55b6:	97 94       	ror	r9
    55b8:	87 94       	ror	r8
    55ba:	31 97       	sbiw	r30, 0x01	; 1
    55bc:	a1 f6       	brne	.-88     	; 0x5566 <__mulsf3+0xb6>
    55be:	2b 89       	ldd	r18, Y+19	; 0x13
    55c0:	3c 89       	ldd	r19, Y+20	; 0x14
    55c2:	eb 85       	ldd	r30, Y+11	; 0x0b
    55c4:	fc 85       	ldd	r31, Y+12	; 0x0c
    55c6:	2e 0f       	add	r18, r30
    55c8:	3f 1f       	adc	r19, r31
    55ca:	2e 5f       	subi	r18, 0xFE	; 254
    55cc:	3f 4f       	sbci	r19, 0xFF	; 255
    55ce:	3c 83       	std	Y+4, r19	; 0x04
    55d0:	2b 83       	std	Y+3, r18	; 0x03
    55d2:	21 e0       	ldi	r18, 0x01	; 1
    55d4:	ea 89       	ldd	r30, Y+18	; 0x12
    55d6:	3a 85       	ldd	r19, Y+10	; 0x0a
    55d8:	e3 13       	cpse	r30, r19
    55da:	01 c0       	rjmp	.+2      	; 0x55de <__mulsf3+0x12e>
    55dc:	20 e0       	ldi	r18, 0x00	; 0
    55de:	2a 83       	std	Y+2, r18	; 0x02
    55e0:	eb 81       	ldd	r30, Y+3	; 0x03
    55e2:	fc 81       	ldd	r31, Y+4	; 0x04
    55e4:	0c c0       	rjmp	.+24     	; 0x55fe <__mulsf3+0x14e>
    55e6:	80 ff       	sbrs	r24, 0
    55e8:	05 c0       	rjmp	.+10     	; 0x55f4 <__mulsf3+0x144>
    55ea:	76 95       	lsr	r23
    55ec:	67 95       	ror	r22
    55ee:	57 95       	ror	r21
    55f0:	47 95       	ror	r20
    55f2:	70 68       	ori	r23, 0x80	; 128
    55f4:	b6 95       	lsr	r27
    55f6:	a7 95       	ror	r26
    55f8:	97 95       	ror	r25
    55fa:	87 95       	ror	r24
    55fc:	31 96       	adiw	r30, 0x01	; 1
    55fe:	b7 fd       	sbrc	r27, 7
    5600:	f2 cf       	rjmp	.-28     	; 0x55e6 <__mulsf3+0x136>
    5602:	9f 01       	movw	r18, r30
    5604:	0c c0       	rjmp	.+24     	; 0x561e <__mulsf3+0x16e>
    5606:	88 0f       	add	r24, r24
    5608:	99 1f       	adc	r25, r25
    560a:	aa 1f       	adc	r26, r26
    560c:	bb 1f       	adc	r27, r27
    560e:	77 fd       	sbrc	r23, 7
    5610:	81 60       	ori	r24, 0x01	; 1
    5612:	44 0f       	add	r20, r20
    5614:	55 1f       	adc	r21, r21
    5616:	66 1f       	adc	r22, r22
    5618:	77 1f       	adc	r23, r23
    561a:	21 50       	subi	r18, 0x01	; 1
    561c:	31 09       	sbc	r19, r1
    561e:	00 97       	sbiw	r24, 0x00	; 0
    5620:	a1 05       	cpc	r26, r1
    5622:	e0 e4       	ldi	r30, 0x40	; 64
    5624:	be 07       	cpc	r27, r30
    5626:	78 f3       	brcs	.-34     	; 0x5606 <__mulsf3+0x156>
    5628:	2b 83       	std	Y+3, r18	; 0x03
    562a:	3c 83       	std	Y+4, r19	; 0x04
    562c:	8c 01       	movw	r16, r24
    562e:	9d 01       	movw	r18, r26
    5630:	0f 77       	andi	r16, 0x7F	; 127
    5632:	11 27       	eor	r17, r17
    5634:	22 27       	eor	r18, r18
    5636:	33 27       	eor	r19, r19
    5638:	00 34       	cpi	r16, 0x40	; 64
    563a:	11 05       	cpc	r17, r1
    563c:	21 05       	cpc	r18, r1
    563e:	31 05       	cpc	r19, r1
    5640:	59 f4       	brne	.+22     	; 0x5658 <__mulsf3+0x1a8>
    5642:	87 fd       	sbrc	r24, 7
    5644:	09 c0       	rjmp	.+18     	; 0x5658 <__mulsf3+0x1a8>
    5646:	45 2b       	or	r20, r21
    5648:	46 2b       	or	r20, r22
    564a:	47 2b       	or	r20, r23
    564c:	29 f0       	breq	.+10     	; 0x5658 <__mulsf3+0x1a8>
    564e:	80 5c       	subi	r24, 0xC0	; 192
    5650:	9f 4f       	sbci	r25, 0xFF	; 255
    5652:	af 4f       	sbci	r26, 0xFF	; 255
    5654:	bf 4f       	sbci	r27, 0xFF	; 255
    5656:	80 78       	andi	r24, 0x80	; 128
    5658:	8d 83       	std	Y+5, r24	; 0x05
    565a:	9e 83       	std	Y+6, r25	; 0x06
    565c:	af 83       	std	Y+7, r26	; 0x07
    565e:	b8 87       	std	Y+8, r27	; 0x08
    5660:	83 e0       	ldi	r24, 0x03	; 3
    5662:	89 83       	std	Y+1, r24	; 0x01
    5664:	ce 01       	movw	r24, r28
    5666:	01 96       	adiw	r24, 0x01	; 1
    5668:	02 c0       	rjmp	.+4      	; 0x566e <__mulsf3+0x1be>
    566a:	88 e1       	ldi	r24, 0x18	; 24
    566c:	91 e0       	ldi	r25, 0x01	; 1
    566e:	0e 94 5f 2d 	call	0x5abe	; 0x5abe <__pack_f>
    5672:	a0 96       	adiw	r28, 0x20	; 32
    5674:	e0 e1       	ldi	r30, 0x10	; 16
    5676:	0c 94 1f 31 	jmp	0x623e	; 0x623e <__epilogue_restores__+0x4>

0000567a <__divsf3>:
    567a:	a8 e1       	ldi	r26, 0x18	; 24
    567c:	b0 e0       	ldi	r27, 0x00	; 0
    567e:	e3 e4       	ldi	r30, 0x43	; 67
    5680:	fb e2       	ldi	r31, 0x2B	; 43
    5682:	0c 94 0b 31 	jmp	0x6216	; 0x6216 <__prologue_saves__+0x14>
    5686:	6d 8b       	std	Y+21, r22	; 0x15
    5688:	7e 8b       	std	Y+22, r23	; 0x16
    568a:	8f 8b       	std	Y+23, r24	; 0x17
    568c:	98 8f       	std	Y+24, r25	; 0x18
    568e:	29 8b       	std	Y+17, r18	; 0x11
    5690:	3a 8b       	std	Y+18, r19	; 0x12
    5692:	4b 8b       	std	Y+19, r20	; 0x13
    5694:	5c 8b       	std	Y+20, r21	; 0x14
    5696:	be 01       	movw	r22, r28
    5698:	67 5f       	subi	r22, 0xF7	; 247
    569a:	7f 4f       	sbci	r23, 0xFF	; 255
    569c:	ce 01       	movw	r24, r28
    569e:	45 96       	adiw	r24, 0x15	; 21
    56a0:	0e 94 20 2e 	call	0x5c40	; 0x5c40 <__unpack_f>
    56a4:	be 01       	movw	r22, r28
    56a6:	6f 5f       	subi	r22, 0xFF	; 255
    56a8:	7f 4f       	sbci	r23, 0xFF	; 255
    56aa:	ce 01       	movw	r24, r28
    56ac:	41 96       	adiw	r24, 0x11	; 17
    56ae:	0e 94 20 2e 	call	0x5c40	; 0x5c40 <__unpack_f>
    56b2:	99 85       	ldd	r25, Y+9	; 0x09
    56b4:	92 30       	cpi	r25, 0x02	; 2
    56b6:	08 f4       	brcc	.+2      	; 0x56ba <__divsf3+0x40>
    56b8:	75 c0       	rjmp	.+234    	; 0x57a4 <__divsf3+0x12a>
    56ba:	89 81       	ldd	r24, Y+1	; 0x01
    56bc:	82 30       	cpi	r24, 0x02	; 2
    56be:	08 f4       	brcc	.+2      	; 0x56c2 <__divsf3+0x48>
    56c0:	74 c0       	rjmp	.+232    	; 0x57aa <__divsf3+0x130>
    56c2:	2a 85       	ldd	r18, Y+10	; 0x0a
    56c4:	3a 81       	ldd	r19, Y+2	; 0x02
    56c6:	23 27       	eor	r18, r19
    56c8:	2a 87       	std	Y+10, r18	; 0x0a
    56ca:	94 30       	cpi	r25, 0x04	; 4
    56cc:	11 f0       	breq	.+4      	; 0x56d2 <__divsf3+0x58>
    56ce:	92 30       	cpi	r25, 0x02	; 2
    56d0:	19 f4       	brne	.+6      	; 0x56d8 <__divsf3+0x5e>
    56d2:	98 13       	cpse	r25, r24
    56d4:	67 c0       	rjmp	.+206    	; 0x57a4 <__divsf3+0x12a>
    56d6:	6c c0       	rjmp	.+216    	; 0x57b0 <__divsf3+0x136>
    56d8:	84 30       	cpi	r24, 0x04	; 4
    56da:	39 f4       	brne	.+14     	; 0x56ea <__divsf3+0x70>
    56dc:	1d 86       	std	Y+13, r1	; 0x0d
    56de:	1e 86       	std	Y+14, r1	; 0x0e
    56e0:	1f 86       	std	Y+15, r1	; 0x0f
    56e2:	18 8a       	std	Y+16, r1	; 0x10
    56e4:	1c 86       	std	Y+12, r1	; 0x0c
    56e6:	1b 86       	std	Y+11, r1	; 0x0b
    56e8:	04 c0       	rjmp	.+8      	; 0x56f2 <__divsf3+0x78>
    56ea:	82 30       	cpi	r24, 0x02	; 2
    56ec:	29 f4       	brne	.+10     	; 0x56f8 <__divsf3+0x7e>
    56ee:	84 e0       	ldi	r24, 0x04	; 4
    56f0:	89 87       	std	Y+9, r24	; 0x09
    56f2:	ce 01       	movw	r24, r28
    56f4:	09 96       	adiw	r24, 0x09	; 9
    56f6:	5e c0       	rjmp	.+188    	; 0x57b4 <__divsf3+0x13a>
    56f8:	8b 85       	ldd	r24, Y+11	; 0x0b
    56fa:	9c 85       	ldd	r25, Y+12	; 0x0c
    56fc:	2b 81       	ldd	r18, Y+3	; 0x03
    56fe:	3c 81       	ldd	r19, Y+4	; 0x04
    5700:	82 1b       	sub	r24, r18
    5702:	93 0b       	sbc	r25, r19
    5704:	9c 87       	std	Y+12, r25	; 0x0c
    5706:	8b 87       	std	Y+11, r24	; 0x0b
    5708:	4d 85       	ldd	r20, Y+13	; 0x0d
    570a:	5e 85       	ldd	r21, Y+14	; 0x0e
    570c:	6f 85       	ldd	r22, Y+15	; 0x0f
    570e:	78 89       	ldd	r23, Y+16	; 0x10
    5710:	cd 80       	ldd	r12, Y+5	; 0x05
    5712:	de 80       	ldd	r13, Y+6	; 0x06
    5714:	ef 80       	ldd	r14, Y+7	; 0x07
    5716:	f8 84       	ldd	r15, Y+8	; 0x08
    5718:	4c 15       	cp	r20, r12
    571a:	5d 05       	cpc	r21, r13
    571c:	6e 05       	cpc	r22, r14
    571e:	7f 05       	cpc	r23, r15
    5720:	38 f4       	brcc	.+14     	; 0x5730 <__divsf3+0xb6>
    5722:	44 0f       	add	r20, r20
    5724:	55 1f       	adc	r21, r21
    5726:	66 1f       	adc	r22, r22
    5728:	77 1f       	adc	r23, r23
    572a:	01 97       	sbiw	r24, 0x01	; 1
    572c:	9c 87       	std	Y+12, r25	; 0x0c
    572e:	8b 87       	std	Y+11, r24	; 0x0b
    5730:	ef e1       	ldi	r30, 0x1F	; 31
    5732:	f0 e0       	ldi	r31, 0x00	; 0
    5734:	00 e0       	ldi	r16, 0x00	; 0
    5736:	10 e0       	ldi	r17, 0x00	; 0
    5738:	20 e0       	ldi	r18, 0x00	; 0
    573a:	30 e4       	ldi	r19, 0x40	; 64
    573c:	80 e0       	ldi	r24, 0x00	; 0
    573e:	90 e0       	ldi	r25, 0x00	; 0
    5740:	dc 01       	movw	r26, r24
    5742:	4c 15       	cp	r20, r12
    5744:	5d 05       	cpc	r21, r13
    5746:	6e 05       	cpc	r22, r14
    5748:	7f 05       	cpc	r23, r15
    574a:	40 f0       	brcs	.+16     	; 0x575c <__divsf3+0xe2>
    574c:	80 2b       	or	r24, r16
    574e:	91 2b       	or	r25, r17
    5750:	a2 2b       	or	r26, r18
    5752:	b3 2b       	or	r27, r19
    5754:	4c 19       	sub	r20, r12
    5756:	5d 09       	sbc	r21, r13
    5758:	6e 09       	sbc	r22, r14
    575a:	7f 09       	sbc	r23, r15
    575c:	36 95       	lsr	r19
    575e:	27 95       	ror	r18
    5760:	17 95       	ror	r17
    5762:	07 95       	ror	r16
    5764:	44 0f       	add	r20, r20
    5766:	55 1f       	adc	r21, r21
    5768:	66 1f       	adc	r22, r22
    576a:	77 1f       	adc	r23, r23
    576c:	31 97       	sbiw	r30, 0x01	; 1
    576e:	49 f7       	brne	.-46     	; 0x5742 <__divsf3+0xc8>
    5770:	8c 01       	movw	r16, r24
    5772:	9d 01       	movw	r18, r26
    5774:	0f 77       	andi	r16, 0x7F	; 127
    5776:	11 27       	eor	r17, r17
    5778:	22 27       	eor	r18, r18
    577a:	33 27       	eor	r19, r19
    577c:	00 34       	cpi	r16, 0x40	; 64
    577e:	11 05       	cpc	r17, r1
    5780:	21 05       	cpc	r18, r1
    5782:	31 05       	cpc	r19, r1
    5784:	59 f4       	brne	.+22     	; 0x579c <__divsf3+0x122>
    5786:	87 fd       	sbrc	r24, 7
    5788:	09 c0       	rjmp	.+18     	; 0x579c <__divsf3+0x122>
    578a:	45 2b       	or	r20, r21
    578c:	46 2b       	or	r20, r22
    578e:	47 2b       	or	r20, r23
    5790:	29 f0       	breq	.+10     	; 0x579c <__divsf3+0x122>
    5792:	80 5c       	subi	r24, 0xC0	; 192
    5794:	9f 4f       	sbci	r25, 0xFF	; 255
    5796:	af 4f       	sbci	r26, 0xFF	; 255
    5798:	bf 4f       	sbci	r27, 0xFF	; 255
    579a:	80 78       	andi	r24, 0x80	; 128
    579c:	8d 87       	std	Y+13, r24	; 0x0d
    579e:	9e 87       	std	Y+14, r25	; 0x0e
    57a0:	af 87       	std	Y+15, r26	; 0x0f
    57a2:	b8 8b       	std	Y+16, r27	; 0x10
    57a4:	ce 01       	movw	r24, r28
    57a6:	09 96       	adiw	r24, 0x09	; 9
    57a8:	05 c0       	rjmp	.+10     	; 0x57b4 <__divsf3+0x13a>
    57aa:	ce 01       	movw	r24, r28
    57ac:	01 96       	adiw	r24, 0x01	; 1
    57ae:	02 c0       	rjmp	.+4      	; 0x57b4 <__divsf3+0x13a>
    57b0:	88 e1       	ldi	r24, 0x18	; 24
    57b2:	91 e0       	ldi	r25, 0x01	; 1
    57b4:	0e 94 5f 2d 	call	0x5abe	; 0x5abe <__pack_f>
    57b8:	68 96       	adiw	r28, 0x18	; 24
    57ba:	e8 e0       	ldi	r30, 0x08	; 8
    57bc:	0c 94 27 31 	jmp	0x624e	; 0x624e <__epilogue_restores__+0x14>

000057c0 <__gesf2>:
    57c0:	a8 e1       	ldi	r26, 0x18	; 24
    57c2:	b0 e0       	ldi	r27, 0x00	; 0
    57c4:	e6 ee       	ldi	r30, 0xE6	; 230
    57c6:	fb e2       	ldi	r31, 0x2B	; 43
    57c8:	0c 94 11 31 	jmp	0x6222	; 0x6222 <__prologue_saves__+0x20>
    57cc:	6d 8b       	std	Y+21, r22	; 0x15
    57ce:	7e 8b       	std	Y+22, r23	; 0x16
    57d0:	8f 8b       	std	Y+23, r24	; 0x17
    57d2:	98 8f       	std	Y+24, r25	; 0x18
    57d4:	29 8b       	std	Y+17, r18	; 0x11
    57d6:	3a 8b       	std	Y+18, r19	; 0x12
    57d8:	4b 8b       	std	Y+19, r20	; 0x13
    57da:	5c 8b       	std	Y+20, r21	; 0x14
    57dc:	be 01       	movw	r22, r28
    57de:	67 5f       	subi	r22, 0xF7	; 247
    57e0:	7f 4f       	sbci	r23, 0xFF	; 255
    57e2:	ce 01       	movw	r24, r28
    57e4:	45 96       	adiw	r24, 0x15	; 21
    57e6:	0e 94 20 2e 	call	0x5c40	; 0x5c40 <__unpack_f>
    57ea:	be 01       	movw	r22, r28
    57ec:	6f 5f       	subi	r22, 0xFF	; 255
    57ee:	7f 4f       	sbci	r23, 0xFF	; 255
    57f0:	ce 01       	movw	r24, r28
    57f2:	41 96       	adiw	r24, 0x11	; 17
    57f4:	0e 94 20 2e 	call	0x5c40	; 0x5c40 <__unpack_f>
    57f8:	89 85       	ldd	r24, Y+9	; 0x09
    57fa:	82 30       	cpi	r24, 0x02	; 2
    57fc:	58 f0       	brcs	.+22     	; 0x5814 <__gesf2+0x54>
    57fe:	89 81       	ldd	r24, Y+1	; 0x01
    5800:	82 30       	cpi	r24, 0x02	; 2
    5802:	40 f0       	brcs	.+16     	; 0x5814 <__gesf2+0x54>
    5804:	be 01       	movw	r22, r28
    5806:	6f 5f       	subi	r22, 0xFF	; 255
    5808:	7f 4f       	sbci	r23, 0xFF	; 255
    580a:	ce 01       	movw	r24, r28
    580c:	09 96       	adiw	r24, 0x09	; 9
    580e:	0e 94 8f 2e 	call	0x5d1e	; 0x5d1e <__fpcmp_parts_f>
    5812:	01 c0       	rjmp	.+2      	; 0x5816 <__gesf2+0x56>
    5814:	8f ef       	ldi	r24, 0xFF	; 255
    5816:	68 96       	adiw	r28, 0x18	; 24
    5818:	e2 e0       	ldi	r30, 0x02	; 2
    581a:	0c 94 2d 31 	jmp	0x625a	; 0x625a <__epilogue_restores__+0x20>

0000581e <__ltsf2>:
    581e:	a8 e1       	ldi	r26, 0x18	; 24
    5820:	b0 e0       	ldi	r27, 0x00	; 0
    5822:	e5 e1       	ldi	r30, 0x15	; 21
    5824:	fc e2       	ldi	r31, 0x2C	; 44
    5826:	0c 94 11 31 	jmp	0x6222	; 0x6222 <__prologue_saves__+0x20>
    582a:	6d 8b       	std	Y+21, r22	; 0x15
    582c:	7e 8b       	std	Y+22, r23	; 0x16
    582e:	8f 8b       	std	Y+23, r24	; 0x17
    5830:	98 8f       	std	Y+24, r25	; 0x18
    5832:	29 8b       	std	Y+17, r18	; 0x11
    5834:	3a 8b       	std	Y+18, r19	; 0x12
    5836:	4b 8b       	std	Y+19, r20	; 0x13
    5838:	5c 8b       	std	Y+20, r21	; 0x14
    583a:	be 01       	movw	r22, r28
    583c:	67 5f       	subi	r22, 0xF7	; 247
    583e:	7f 4f       	sbci	r23, 0xFF	; 255
    5840:	ce 01       	movw	r24, r28
    5842:	45 96       	adiw	r24, 0x15	; 21
    5844:	0e 94 20 2e 	call	0x5c40	; 0x5c40 <__unpack_f>
    5848:	be 01       	movw	r22, r28
    584a:	6f 5f       	subi	r22, 0xFF	; 255
    584c:	7f 4f       	sbci	r23, 0xFF	; 255
    584e:	ce 01       	movw	r24, r28
    5850:	41 96       	adiw	r24, 0x11	; 17
    5852:	0e 94 20 2e 	call	0x5c40	; 0x5c40 <__unpack_f>
    5856:	89 85       	ldd	r24, Y+9	; 0x09
    5858:	82 30       	cpi	r24, 0x02	; 2
    585a:	58 f0       	brcs	.+22     	; 0x5872 <__ltsf2+0x54>
    585c:	89 81       	ldd	r24, Y+1	; 0x01
    585e:	82 30       	cpi	r24, 0x02	; 2
    5860:	40 f0       	brcs	.+16     	; 0x5872 <__ltsf2+0x54>
    5862:	be 01       	movw	r22, r28
    5864:	6f 5f       	subi	r22, 0xFF	; 255
    5866:	7f 4f       	sbci	r23, 0xFF	; 255
    5868:	ce 01       	movw	r24, r28
    586a:	09 96       	adiw	r24, 0x09	; 9
    586c:	0e 94 8f 2e 	call	0x5d1e	; 0x5d1e <__fpcmp_parts_f>
    5870:	01 c0       	rjmp	.+2      	; 0x5874 <__ltsf2+0x56>
    5872:	81 e0       	ldi	r24, 0x01	; 1
    5874:	68 96       	adiw	r28, 0x18	; 24
    5876:	e2 e0       	ldi	r30, 0x02	; 2
    5878:	0c 94 2d 31 	jmp	0x625a	; 0x625a <__epilogue_restores__+0x20>

0000587c <__floatsisf>:
    587c:	a8 e0       	ldi	r26, 0x08	; 8
    587e:	b0 e0       	ldi	r27, 0x00	; 0
    5880:	e4 e4       	ldi	r30, 0x44	; 68
    5882:	fc e2       	ldi	r31, 0x2C	; 44
    5884:	0c 94 0f 31 	jmp	0x621e	; 0x621e <__prologue_saves__+0x1c>
    5888:	23 e0       	ldi	r18, 0x03	; 3
    588a:	29 83       	std	Y+1, r18	; 0x01
    588c:	8b 01       	movw	r16, r22
    588e:	9c 01       	movw	r18, r24
    5890:	00 27       	eor	r16, r16
    5892:	37 fd       	sbrc	r19, 7
    5894:	03 95       	inc	r16
    5896:	11 27       	eor	r17, r17
    5898:	22 27       	eor	r18, r18
    589a:	33 27       	eor	r19, r19
    589c:	40 2f       	mov	r20, r16
    589e:	0a 83       	std	Y+2, r16	; 0x02
    58a0:	61 15       	cp	r22, r1
    58a2:	71 05       	cpc	r23, r1
    58a4:	81 05       	cpc	r24, r1
    58a6:	91 05       	cpc	r25, r1
    58a8:	19 f4       	brne	.+6      	; 0x58b0 <__floatsisf+0x34>
    58aa:	82 e0       	ldi	r24, 0x02	; 2
    58ac:	89 83       	std	Y+1, r24	; 0x01
    58ae:	35 c0       	rjmp	.+106    	; 0x591a <__floatsisf+0x9e>
    58b0:	2e e1       	ldi	r18, 0x1E	; 30
    58b2:	30 e0       	ldi	r19, 0x00	; 0
    58b4:	3c 83       	std	Y+4, r19	; 0x04
    58b6:	2b 83       	std	Y+3, r18	; 0x03
    58b8:	44 23       	and	r20, r20
    58ba:	71 f0       	breq	.+28     	; 0x58d8 <__floatsisf+0x5c>
    58bc:	61 15       	cp	r22, r1
    58be:	71 05       	cpc	r23, r1
    58c0:	81 05       	cpc	r24, r1
    58c2:	20 e8       	ldi	r18, 0x80	; 128
    58c4:	92 07       	cpc	r25, r18
    58c6:	71 f1       	breq	.+92     	; 0x5924 <__floatsisf+0xa8>
    58c8:	00 27       	eor	r16, r16
    58ca:	11 27       	eor	r17, r17
    58cc:	98 01       	movw	r18, r16
    58ce:	06 1b       	sub	r16, r22
    58d0:	17 0b       	sbc	r17, r23
    58d2:	28 0b       	sbc	r18, r24
    58d4:	39 0b       	sbc	r19, r25
    58d6:	02 c0       	rjmp	.+4      	; 0x58dc <__floatsisf+0x60>
    58d8:	8b 01       	movw	r16, r22
    58da:	9c 01       	movw	r18, r24
    58dc:	c9 01       	movw	r24, r18
    58de:	b8 01       	movw	r22, r16
    58e0:	0e 94 3e 31 	call	0x627c	; 0x627c <__clzsi2>
    58e4:	01 97       	sbiw	r24, 0x01	; 1
    58e6:	18 16       	cp	r1, r24
    58e8:	19 06       	cpc	r1, r25
    58ea:	2c f0       	brlt	.+10     	; 0x58f6 <__floatsisf+0x7a>
    58ec:	0d 83       	std	Y+5, r16	; 0x05
    58ee:	1e 83       	std	Y+6, r17	; 0x06
    58f0:	2f 83       	std	Y+7, r18	; 0x07
    58f2:	38 87       	std	Y+8, r19	; 0x08
    58f4:	12 c0       	rjmp	.+36     	; 0x591a <__floatsisf+0x9e>
    58f6:	08 2e       	mov	r0, r24
    58f8:	04 c0       	rjmp	.+8      	; 0x5902 <__floatsisf+0x86>
    58fa:	00 0f       	add	r16, r16
    58fc:	11 1f       	adc	r17, r17
    58fe:	22 1f       	adc	r18, r18
    5900:	33 1f       	adc	r19, r19
    5902:	0a 94       	dec	r0
    5904:	d2 f7       	brpl	.-12     	; 0x58fa <__floatsisf+0x7e>
    5906:	0d 83       	std	Y+5, r16	; 0x05
    5908:	1e 83       	std	Y+6, r17	; 0x06
    590a:	2f 83       	std	Y+7, r18	; 0x07
    590c:	38 87       	std	Y+8, r19	; 0x08
    590e:	2e e1       	ldi	r18, 0x1E	; 30
    5910:	30 e0       	ldi	r19, 0x00	; 0
    5912:	28 1b       	sub	r18, r24
    5914:	39 0b       	sbc	r19, r25
    5916:	3c 83       	std	Y+4, r19	; 0x04
    5918:	2b 83       	std	Y+3, r18	; 0x03
    591a:	ce 01       	movw	r24, r28
    591c:	01 96       	adiw	r24, 0x01	; 1
    591e:	0e 94 5f 2d 	call	0x5abe	; 0x5abe <__pack_f>
    5922:	04 c0       	rjmp	.+8      	; 0x592c <__floatsisf+0xb0>
    5924:	60 e0       	ldi	r22, 0x00	; 0
    5926:	70 e0       	ldi	r23, 0x00	; 0
    5928:	80 e0       	ldi	r24, 0x00	; 0
    592a:	9f ec       	ldi	r25, 0xCF	; 207
    592c:	28 96       	adiw	r28, 0x08	; 8
    592e:	e4 e0       	ldi	r30, 0x04	; 4
    5930:	0c 94 2b 31 	jmp	0x6256	; 0x6256 <__epilogue_restores__+0x1c>

00005934 <__fixsfsi>:
    5934:	ac e0       	ldi	r26, 0x0C	; 12
    5936:	b0 e0       	ldi	r27, 0x00	; 0
    5938:	e0 ea       	ldi	r30, 0xA0	; 160
    593a:	fc e2       	ldi	r31, 0x2C	; 44
    593c:	0c 94 0f 31 	jmp	0x621e	; 0x621e <__prologue_saves__+0x1c>
    5940:	69 87       	std	Y+9, r22	; 0x09
    5942:	7a 87       	std	Y+10, r23	; 0x0a
    5944:	8b 87       	std	Y+11, r24	; 0x0b
    5946:	9c 87       	std	Y+12, r25	; 0x0c
    5948:	be 01       	movw	r22, r28
    594a:	6f 5f       	subi	r22, 0xFF	; 255
    594c:	7f 4f       	sbci	r23, 0xFF	; 255
    594e:	ce 01       	movw	r24, r28
    5950:	09 96       	adiw	r24, 0x09	; 9
    5952:	0e 94 20 2e 	call	0x5c40	; 0x5c40 <__unpack_f>
    5956:	89 81       	ldd	r24, Y+1	; 0x01
    5958:	82 30       	cpi	r24, 0x02	; 2
    595a:	91 f1       	breq	.+100    	; 0x59c0 <__fixsfsi+0x8c>
    595c:	82 30       	cpi	r24, 0x02	; 2
    595e:	80 f1       	brcs	.+96     	; 0x59c0 <__fixsfsi+0x8c>
    5960:	84 30       	cpi	r24, 0x04	; 4
    5962:	41 f4       	brne	.+16     	; 0x5974 <__fixsfsi+0x40>
    5964:	8a 81       	ldd	r24, Y+2	; 0x02
    5966:	88 23       	and	r24, r24
    5968:	31 f1       	breq	.+76     	; 0x59b6 <__fixsfsi+0x82>
    596a:	00 e0       	ldi	r16, 0x00	; 0
    596c:	10 e0       	ldi	r17, 0x00	; 0
    596e:	20 e0       	ldi	r18, 0x00	; 0
    5970:	30 e8       	ldi	r19, 0x80	; 128
    5972:	29 c0       	rjmp	.+82     	; 0x59c6 <__fixsfsi+0x92>
    5974:	2b 81       	ldd	r18, Y+3	; 0x03
    5976:	3c 81       	ldd	r19, Y+4	; 0x04
    5978:	37 fd       	sbrc	r19, 7
    597a:	22 c0       	rjmp	.+68     	; 0x59c0 <__fixsfsi+0x8c>
    597c:	2f 31       	cpi	r18, 0x1F	; 31
    597e:	31 05       	cpc	r19, r1
    5980:	8c f7       	brge	.-30     	; 0x5964 <__fixsfsi+0x30>
    5982:	8e e1       	ldi	r24, 0x1E	; 30
    5984:	90 e0       	ldi	r25, 0x00	; 0
    5986:	82 1b       	sub	r24, r18
    5988:	93 0b       	sbc	r25, r19
    598a:	0d 81       	ldd	r16, Y+5	; 0x05
    598c:	1e 81       	ldd	r17, Y+6	; 0x06
    598e:	2f 81       	ldd	r18, Y+7	; 0x07
    5990:	38 85       	ldd	r19, Y+8	; 0x08
    5992:	04 c0       	rjmp	.+8      	; 0x599c <__fixsfsi+0x68>
    5994:	36 95       	lsr	r19
    5996:	27 95       	ror	r18
    5998:	17 95       	ror	r17
    599a:	07 95       	ror	r16
    599c:	8a 95       	dec	r24
    599e:	d2 f7       	brpl	.-12     	; 0x5994 <__fixsfsi+0x60>
    59a0:	8a 81       	ldd	r24, Y+2	; 0x02
    59a2:	88 23       	and	r24, r24
    59a4:	81 f0       	breq	.+32     	; 0x59c6 <__fixsfsi+0x92>
    59a6:	30 95       	com	r19
    59a8:	20 95       	com	r18
    59aa:	10 95       	com	r17
    59ac:	01 95       	neg	r16
    59ae:	1f 4f       	sbci	r17, 0xFF	; 255
    59b0:	2f 4f       	sbci	r18, 0xFF	; 255
    59b2:	3f 4f       	sbci	r19, 0xFF	; 255
    59b4:	08 c0       	rjmp	.+16     	; 0x59c6 <__fixsfsi+0x92>
    59b6:	0f ef       	ldi	r16, 0xFF	; 255
    59b8:	1f ef       	ldi	r17, 0xFF	; 255
    59ba:	2f ef       	ldi	r18, 0xFF	; 255
    59bc:	3f e7       	ldi	r19, 0x7F	; 127
    59be:	03 c0       	rjmp	.+6      	; 0x59c6 <__fixsfsi+0x92>
    59c0:	00 e0       	ldi	r16, 0x00	; 0
    59c2:	10 e0       	ldi	r17, 0x00	; 0
    59c4:	98 01       	movw	r18, r16
    59c6:	b8 01       	movw	r22, r16
    59c8:	c9 01       	movw	r24, r18
    59ca:	2c 96       	adiw	r28, 0x0c	; 12
    59cc:	e4 e0       	ldi	r30, 0x04	; 4
    59ce:	0c 94 2b 31 	jmp	0x6256	; 0x6256 <__epilogue_restores__+0x1c>

000059d2 <__floatunsisf>:
    59d2:	a8 e0       	ldi	r26, 0x08	; 8
    59d4:	b0 e0       	ldi	r27, 0x00	; 0
    59d6:	ef ee       	ldi	r30, 0xEF	; 239
    59d8:	fc e2       	ldi	r31, 0x2C	; 44
    59da:	0c 94 0b 31 	jmp	0x6216	; 0x6216 <__prologue_saves__+0x14>
    59de:	8b 01       	movw	r16, r22
    59e0:	9c 01       	movw	r18, r24
    59e2:	1a 82       	std	Y+2, r1	; 0x02
    59e4:	61 15       	cp	r22, r1
    59e6:	71 05       	cpc	r23, r1
    59e8:	81 05       	cpc	r24, r1
    59ea:	91 05       	cpc	r25, r1
    59ec:	19 f4       	brne	.+6      	; 0x59f4 <__floatunsisf+0x22>
    59ee:	82 e0       	ldi	r24, 0x02	; 2
    59f0:	89 83       	std	Y+1, r24	; 0x01
    59f2:	5d c0       	rjmp	.+186    	; 0x5aae <__floatunsisf+0xdc>
    59f4:	83 e0       	ldi	r24, 0x03	; 3
    59f6:	89 83       	std	Y+1, r24	; 0x01
    59f8:	4e e1       	ldi	r20, 0x1E	; 30
    59fa:	50 e0       	ldi	r21, 0x00	; 0
    59fc:	5c 83       	std	Y+4, r21	; 0x04
    59fe:	4b 83       	std	Y+3, r20	; 0x03
    5a00:	c9 01       	movw	r24, r18
    5a02:	b8 01       	movw	r22, r16
    5a04:	0e 94 3e 31 	call	0x627c	; 0x627c <__clzsi2>
    5a08:	01 97       	sbiw	r24, 0x01	; 1
    5a0a:	97 ff       	sbrs	r25, 7
    5a0c:	39 c0       	rjmp	.+114    	; 0x5a80 <__floatunsisf+0xae>
    5a0e:	ee 27       	eor	r30, r30
    5a10:	ff 27       	eor	r31, r31
    5a12:	e8 1b       	sub	r30, r24
    5a14:	f9 0b       	sbc	r31, r25
    5a16:	41 e0       	ldi	r20, 0x01	; 1
    5a18:	50 e0       	ldi	r21, 0x00	; 0
    5a1a:	60 e0       	ldi	r22, 0x00	; 0
    5a1c:	70 e0       	ldi	r23, 0x00	; 0
    5a1e:	0e 2e       	mov	r0, r30
    5a20:	04 c0       	rjmp	.+8      	; 0x5a2a <__floatunsisf+0x58>
    5a22:	44 0f       	add	r20, r20
    5a24:	55 1f       	adc	r21, r21
    5a26:	66 1f       	adc	r22, r22
    5a28:	77 1f       	adc	r23, r23
    5a2a:	0a 94       	dec	r0
    5a2c:	d2 f7       	brpl	.-12     	; 0x5a22 <__floatunsisf+0x50>
    5a2e:	41 50       	subi	r20, 0x01	; 1
    5a30:	51 09       	sbc	r21, r1
    5a32:	61 09       	sbc	r22, r1
    5a34:	71 09       	sbc	r23, r1
    5a36:	40 23       	and	r20, r16
    5a38:	51 23       	and	r21, r17
    5a3a:	62 23       	and	r22, r18
    5a3c:	73 23       	and	r23, r19
    5a3e:	c1 2c       	mov	r12, r1
    5a40:	d1 2c       	mov	r13, r1
    5a42:	76 01       	movw	r14, r12
    5a44:	c3 94       	inc	r12
    5a46:	45 2b       	or	r20, r21
    5a48:	46 2b       	or	r20, r22
    5a4a:	47 2b       	or	r20, r23
    5a4c:	19 f4       	brne	.+6      	; 0x5a54 <__floatunsisf+0x82>
    5a4e:	c1 2c       	mov	r12, r1
    5a50:	d1 2c       	mov	r13, r1
    5a52:	76 01       	movw	r14, r12
    5a54:	04 c0       	rjmp	.+8      	; 0x5a5e <__floatunsisf+0x8c>
    5a56:	36 95       	lsr	r19
    5a58:	27 95       	ror	r18
    5a5a:	17 95       	ror	r17
    5a5c:	07 95       	ror	r16
    5a5e:	ea 95       	dec	r30
    5a60:	d2 f7       	brpl	.-12     	; 0x5a56 <__floatunsisf+0x84>
    5a62:	0c 29       	or	r16, r12
    5a64:	1d 29       	or	r17, r13
    5a66:	2e 29       	or	r18, r14
    5a68:	3f 29       	or	r19, r15
    5a6a:	0d 83       	std	Y+5, r16	; 0x05
    5a6c:	1e 83       	std	Y+6, r17	; 0x06
    5a6e:	2f 83       	std	Y+7, r18	; 0x07
    5a70:	38 87       	std	Y+8, r19	; 0x08
    5a72:	2e e1       	ldi	r18, 0x1E	; 30
    5a74:	30 e0       	ldi	r19, 0x00	; 0
    5a76:	28 1b       	sub	r18, r24
    5a78:	39 0b       	sbc	r19, r25
    5a7a:	3c 83       	std	Y+4, r19	; 0x04
    5a7c:	2b 83       	std	Y+3, r18	; 0x03
    5a7e:	17 c0       	rjmp	.+46     	; 0x5aae <__floatunsisf+0xdc>
    5a80:	00 97       	sbiw	r24, 0x00	; 0
    5a82:	29 f4       	brne	.+10     	; 0x5a8e <__floatunsisf+0xbc>
    5a84:	0d 83       	std	Y+5, r16	; 0x05
    5a86:	1e 83       	std	Y+6, r17	; 0x06
    5a88:	2f 83       	std	Y+7, r18	; 0x07
    5a8a:	38 87       	std	Y+8, r19	; 0x08
    5a8c:	10 c0       	rjmp	.+32     	; 0x5aae <__floatunsisf+0xdc>
    5a8e:	08 2e       	mov	r0, r24
    5a90:	04 c0       	rjmp	.+8      	; 0x5a9a <__floatunsisf+0xc8>
    5a92:	00 0f       	add	r16, r16
    5a94:	11 1f       	adc	r17, r17
    5a96:	22 1f       	adc	r18, r18
    5a98:	33 1f       	adc	r19, r19
    5a9a:	0a 94       	dec	r0
    5a9c:	d2 f7       	brpl	.-12     	; 0x5a92 <__floatunsisf+0xc0>
    5a9e:	0d 83       	std	Y+5, r16	; 0x05
    5aa0:	1e 83       	std	Y+6, r17	; 0x06
    5aa2:	2f 83       	std	Y+7, r18	; 0x07
    5aa4:	38 87       	std	Y+8, r19	; 0x08
    5aa6:	48 1b       	sub	r20, r24
    5aa8:	59 0b       	sbc	r21, r25
    5aaa:	5c 83       	std	Y+4, r21	; 0x04
    5aac:	4b 83       	std	Y+3, r20	; 0x03
    5aae:	ce 01       	movw	r24, r28
    5ab0:	01 96       	adiw	r24, 0x01	; 1
    5ab2:	0e 94 5f 2d 	call	0x5abe	; 0x5abe <__pack_f>
    5ab6:	28 96       	adiw	r28, 0x08	; 8
    5ab8:	e8 e0       	ldi	r30, 0x08	; 8
    5aba:	0c 94 27 31 	jmp	0x624e	; 0x624e <__epilogue_restores__+0x14>

00005abe <__pack_f>:
    5abe:	0f 93       	push	r16
    5ac0:	1f 93       	push	r17
    5ac2:	cf 93       	push	r28
    5ac4:	fc 01       	movw	r30, r24
    5ac6:	44 81       	ldd	r20, Z+4	; 0x04
    5ac8:	55 81       	ldd	r21, Z+5	; 0x05
    5aca:	66 81       	ldd	r22, Z+6	; 0x06
    5acc:	77 81       	ldd	r23, Z+7	; 0x07
    5ace:	c1 81       	ldd	r28, Z+1	; 0x01
    5ad0:	80 81       	ld	r24, Z
    5ad2:	82 30       	cpi	r24, 0x02	; 2
    5ad4:	20 f4       	brcc	.+8      	; 0x5ade <__pack_f+0x20>
    5ad6:	60 61       	ori	r22, 0x10	; 16
    5ad8:	8f ef       	ldi	r24, 0xFF	; 255
    5ada:	90 e0       	ldi	r25, 0x00	; 0
    5adc:	a3 c0       	rjmp	.+326    	; 0x5c24 <__pack_f+0x166>
    5ade:	84 30       	cpi	r24, 0x04	; 4
    5ae0:	09 f4       	brne	.+2      	; 0x5ae4 <__pack_f+0x26>
    5ae2:	9b c0       	rjmp	.+310    	; 0x5c1a <__pack_f+0x15c>
    5ae4:	82 30       	cpi	r24, 0x02	; 2
    5ae6:	09 f4       	brne	.+2      	; 0x5aea <__pack_f+0x2c>
    5ae8:	92 c0       	rjmp	.+292    	; 0x5c0e <__pack_f+0x150>
    5aea:	41 15       	cp	r20, r1
    5aec:	51 05       	cpc	r21, r1
    5aee:	61 05       	cpc	r22, r1
    5af0:	71 05       	cpc	r23, r1
    5af2:	09 f4       	brne	.+2      	; 0x5af6 <__pack_f+0x38>
    5af4:	8f c0       	rjmp	.+286    	; 0x5c14 <__pack_f+0x156>
    5af6:	22 81       	ldd	r18, Z+2	; 0x02
    5af8:	33 81       	ldd	r19, Z+3	; 0x03
    5afa:	22 38       	cpi	r18, 0x82	; 130
    5afc:	8f ef       	ldi	r24, 0xFF	; 255
    5afe:	38 07       	cpc	r19, r24
    5b00:	0c f0       	brlt	.+2      	; 0x5b04 <__pack_f+0x46>
    5b02:	57 c0       	rjmp	.+174    	; 0x5bb2 <__pack_f+0xf4>
    5b04:	e2 e8       	ldi	r30, 0x82	; 130
    5b06:	ff ef       	ldi	r31, 0xFF	; 255
    5b08:	e2 1b       	sub	r30, r18
    5b0a:	f3 0b       	sbc	r31, r19
    5b0c:	ea 31       	cpi	r30, 0x1A	; 26
    5b0e:	f1 05       	cpc	r31, r1
    5b10:	64 f5       	brge	.+88     	; 0x5b6a <__pack_f+0xac>
    5b12:	8a 01       	movw	r16, r20
    5b14:	9b 01       	movw	r18, r22
    5b16:	0e 2e       	mov	r0, r30
    5b18:	04 c0       	rjmp	.+8      	; 0x5b22 <__pack_f+0x64>
    5b1a:	36 95       	lsr	r19
    5b1c:	27 95       	ror	r18
    5b1e:	17 95       	ror	r17
    5b20:	07 95       	ror	r16
    5b22:	0a 94       	dec	r0
    5b24:	d2 f7       	brpl	.-12     	; 0x5b1a <__pack_f+0x5c>
    5b26:	81 e0       	ldi	r24, 0x01	; 1
    5b28:	90 e0       	ldi	r25, 0x00	; 0
    5b2a:	a0 e0       	ldi	r26, 0x00	; 0
    5b2c:	b0 e0       	ldi	r27, 0x00	; 0
    5b2e:	04 c0       	rjmp	.+8      	; 0x5b38 <__pack_f+0x7a>
    5b30:	88 0f       	add	r24, r24
    5b32:	99 1f       	adc	r25, r25
    5b34:	aa 1f       	adc	r26, r26
    5b36:	bb 1f       	adc	r27, r27
    5b38:	ea 95       	dec	r30
    5b3a:	d2 f7       	brpl	.-12     	; 0x5b30 <__pack_f+0x72>
    5b3c:	01 97       	sbiw	r24, 0x01	; 1
    5b3e:	a1 09       	sbc	r26, r1
    5b40:	b1 09       	sbc	r27, r1
    5b42:	84 23       	and	r24, r20
    5b44:	95 23       	and	r25, r21
    5b46:	a6 23       	and	r26, r22
    5b48:	b7 23       	and	r27, r23
    5b4a:	41 e0       	ldi	r20, 0x01	; 1
    5b4c:	50 e0       	ldi	r21, 0x00	; 0
    5b4e:	60 e0       	ldi	r22, 0x00	; 0
    5b50:	70 e0       	ldi	r23, 0x00	; 0
    5b52:	89 2b       	or	r24, r25
    5b54:	8a 2b       	or	r24, r26
    5b56:	8b 2b       	or	r24, r27
    5b58:	19 f4       	brne	.+6      	; 0x5b60 <__pack_f+0xa2>
    5b5a:	40 e0       	ldi	r20, 0x00	; 0
    5b5c:	50 e0       	ldi	r21, 0x00	; 0
    5b5e:	ba 01       	movw	r22, r20
    5b60:	40 2b       	or	r20, r16
    5b62:	51 2b       	or	r21, r17
    5b64:	62 2b       	or	r22, r18
    5b66:	73 2b       	or	r23, r19
    5b68:	03 c0       	rjmp	.+6      	; 0x5b70 <__pack_f+0xb2>
    5b6a:	40 e0       	ldi	r20, 0x00	; 0
    5b6c:	50 e0       	ldi	r21, 0x00	; 0
    5b6e:	ba 01       	movw	r22, r20
    5b70:	db 01       	movw	r26, r22
    5b72:	ca 01       	movw	r24, r20
    5b74:	8f 77       	andi	r24, 0x7F	; 127
    5b76:	99 27       	eor	r25, r25
    5b78:	aa 27       	eor	r26, r26
    5b7a:	bb 27       	eor	r27, r27
    5b7c:	80 34       	cpi	r24, 0x40	; 64
    5b7e:	91 05       	cpc	r25, r1
    5b80:	a1 05       	cpc	r26, r1
    5b82:	b1 05       	cpc	r27, r1
    5b84:	39 f4       	brne	.+14     	; 0x5b94 <__pack_f+0xd6>
    5b86:	47 ff       	sbrs	r20, 7
    5b88:	09 c0       	rjmp	.+18     	; 0x5b9c <__pack_f+0xde>
    5b8a:	40 5c       	subi	r20, 0xC0	; 192
    5b8c:	5f 4f       	sbci	r21, 0xFF	; 255
    5b8e:	6f 4f       	sbci	r22, 0xFF	; 255
    5b90:	7f 4f       	sbci	r23, 0xFF	; 255
    5b92:	04 c0       	rjmp	.+8      	; 0x5b9c <__pack_f+0xde>
    5b94:	41 5c       	subi	r20, 0xC1	; 193
    5b96:	5f 4f       	sbci	r21, 0xFF	; 255
    5b98:	6f 4f       	sbci	r22, 0xFF	; 255
    5b9a:	7f 4f       	sbci	r23, 0xFF	; 255
    5b9c:	81 e0       	ldi	r24, 0x01	; 1
    5b9e:	90 e0       	ldi	r25, 0x00	; 0
    5ba0:	41 15       	cp	r20, r1
    5ba2:	51 05       	cpc	r21, r1
    5ba4:	61 05       	cpc	r22, r1
    5ba6:	20 e4       	ldi	r18, 0x40	; 64
    5ba8:	72 07       	cpc	r23, r18
    5baa:	48 f5       	brcc	.+82     	; 0x5bfe <__pack_f+0x140>
    5bac:	80 e0       	ldi	r24, 0x00	; 0
    5bae:	90 e0       	ldi	r25, 0x00	; 0
    5bb0:	26 c0       	rjmp	.+76     	; 0x5bfe <__pack_f+0x140>
    5bb2:	20 38       	cpi	r18, 0x80	; 128
    5bb4:	31 05       	cpc	r19, r1
    5bb6:	8c f5       	brge	.+98     	; 0x5c1a <__pack_f+0x15c>
    5bb8:	db 01       	movw	r26, r22
    5bba:	ca 01       	movw	r24, r20
    5bbc:	8f 77       	andi	r24, 0x7F	; 127
    5bbe:	99 27       	eor	r25, r25
    5bc0:	aa 27       	eor	r26, r26
    5bc2:	bb 27       	eor	r27, r27
    5bc4:	80 34       	cpi	r24, 0x40	; 64
    5bc6:	91 05       	cpc	r25, r1
    5bc8:	a1 05       	cpc	r26, r1
    5bca:	b1 05       	cpc	r27, r1
    5bcc:	39 f4       	brne	.+14     	; 0x5bdc <__pack_f+0x11e>
    5bce:	47 ff       	sbrs	r20, 7
    5bd0:	09 c0       	rjmp	.+18     	; 0x5be4 <__pack_f+0x126>
    5bd2:	40 5c       	subi	r20, 0xC0	; 192
    5bd4:	5f 4f       	sbci	r21, 0xFF	; 255
    5bd6:	6f 4f       	sbci	r22, 0xFF	; 255
    5bd8:	7f 4f       	sbci	r23, 0xFF	; 255
    5bda:	04 c0       	rjmp	.+8      	; 0x5be4 <__pack_f+0x126>
    5bdc:	41 5c       	subi	r20, 0xC1	; 193
    5bde:	5f 4f       	sbci	r21, 0xFF	; 255
    5be0:	6f 4f       	sbci	r22, 0xFF	; 255
    5be2:	7f 4f       	sbci	r23, 0xFF	; 255
    5be4:	77 fd       	sbrc	r23, 7
    5be6:	04 c0       	rjmp	.+8      	; 0x5bf0 <__pack_f+0x132>
    5be8:	c9 01       	movw	r24, r18
    5bea:	81 58       	subi	r24, 0x81	; 129
    5bec:	9f 4f       	sbci	r25, 0xFF	; 255
    5bee:	07 c0       	rjmp	.+14     	; 0x5bfe <__pack_f+0x140>
    5bf0:	76 95       	lsr	r23
    5bf2:	67 95       	ror	r22
    5bf4:	57 95       	ror	r21
    5bf6:	47 95       	ror	r20
    5bf8:	c9 01       	movw	r24, r18
    5bfa:	80 58       	subi	r24, 0x80	; 128
    5bfc:	9f 4f       	sbci	r25, 0xFF	; 255
    5bfe:	97 e0       	ldi	r25, 0x07	; 7
    5c00:	76 95       	lsr	r23
    5c02:	67 95       	ror	r22
    5c04:	57 95       	ror	r21
    5c06:	47 95       	ror	r20
    5c08:	9a 95       	dec	r25
    5c0a:	d1 f7       	brne	.-12     	; 0x5c00 <__pack_f+0x142>
    5c0c:	0b c0       	rjmp	.+22     	; 0x5c24 <__pack_f+0x166>
    5c0e:	80 e0       	ldi	r24, 0x00	; 0
    5c10:	90 e0       	ldi	r25, 0x00	; 0
    5c12:	05 c0       	rjmp	.+10     	; 0x5c1e <__pack_f+0x160>
    5c14:	80 e0       	ldi	r24, 0x00	; 0
    5c16:	90 e0       	ldi	r25, 0x00	; 0
    5c18:	05 c0       	rjmp	.+10     	; 0x5c24 <__pack_f+0x166>
    5c1a:	8f ef       	ldi	r24, 0xFF	; 255
    5c1c:	90 e0       	ldi	r25, 0x00	; 0
    5c1e:	40 e0       	ldi	r20, 0x00	; 0
    5c20:	50 e0       	ldi	r21, 0x00	; 0
    5c22:	ba 01       	movw	r22, r20
    5c24:	98 2f       	mov	r25, r24
    5c26:	96 95       	lsr	r25
    5c28:	c0 fb       	bst	r28, 0
    5c2a:	97 f9       	bld	r25, 7
    5c2c:	36 2f       	mov	r19, r22
    5c2e:	80 fb       	bst	r24, 0
    5c30:	37 f9       	bld	r19, 7
    5c32:	64 2f       	mov	r22, r20
    5c34:	75 2f       	mov	r23, r21
    5c36:	83 2f       	mov	r24, r19
    5c38:	cf 91       	pop	r28
    5c3a:	1f 91       	pop	r17
    5c3c:	0f 91       	pop	r16
    5c3e:	08 95       	ret

00005c40 <__unpack_f>:
    5c40:	cf 92       	push	r12
    5c42:	df 92       	push	r13
    5c44:	ef 92       	push	r14
    5c46:	dc 01       	movw	r26, r24
    5c48:	fb 01       	movw	r30, r22
    5c4a:	cc 90       	ld	r12, X
    5c4c:	11 96       	adiw	r26, 0x01	; 1
    5c4e:	dc 90       	ld	r13, X
    5c50:	11 97       	sbiw	r26, 0x01	; 1
    5c52:	12 96       	adiw	r26, 0x02	; 2
    5c54:	8c 91       	ld	r24, X
    5c56:	12 97       	sbiw	r26, 0x02	; 2
    5c58:	3f e7       	ldi	r19, 0x7F	; 127
    5c5a:	e3 2e       	mov	r14, r19
    5c5c:	e8 22       	and	r14, r24
    5c5e:	6e 2d       	mov	r22, r14
    5c60:	a6 01       	movw	r20, r12
    5c62:	70 e0       	ldi	r23, 0x00	; 0
    5c64:	98 2f       	mov	r25, r24
    5c66:	99 1f       	adc	r25, r25
    5c68:	99 27       	eor	r25, r25
    5c6a:	99 1f       	adc	r25, r25
    5c6c:	13 96       	adiw	r26, 0x03	; 3
    5c6e:	2c 91       	ld	r18, X
    5c70:	82 2f       	mov	r24, r18
    5c72:	88 0f       	add	r24, r24
    5c74:	89 2b       	or	r24, r25
    5c76:	90 e0       	ldi	r25, 0x00	; 0
    5c78:	27 fb       	bst	r18, 7
    5c7a:	22 27       	eor	r18, r18
    5c7c:	20 f9       	bld	r18, 0
    5c7e:	21 83       	std	Z+1, r18	; 0x01
    5c80:	00 97       	sbiw	r24, 0x00	; 0
    5c82:	29 f5       	brne	.+74     	; 0x5cce <__unpack_f+0x8e>
    5c84:	41 15       	cp	r20, r1
    5c86:	51 05       	cpc	r21, r1
    5c88:	61 05       	cpc	r22, r1
    5c8a:	71 05       	cpc	r23, r1
    5c8c:	11 f4       	brne	.+4      	; 0x5c92 <__unpack_f+0x52>
    5c8e:	82 e0       	ldi	r24, 0x02	; 2
    5c90:	27 c0       	rjmp	.+78     	; 0x5ce0 <__unpack_f+0xa0>
    5c92:	82 e8       	ldi	r24, 0x82	; 130
    5c94:	9f ef       	ldi	r25, 0xFF	; 255
    5c96:	93 83       	std	Z+3, r25	; 0x03
    5c98:	82 83       	std	Z+2, r24	; 0x02
    5c9a:	27 e0       	ldi	r18, 0x07	; 7
    5c9c:	44 0f       	add	r20, r20
    5c9e:	55 1f       	adc	r21, r21
    5ca0:	66 1f       	adc	r22, r22
    5ca2:	77 1f       	adc	r23, r23
    5ca4:	2a 95       	dec	r18
    5ca6:	d1 f7       	brne	.-12     	; 0x5c9c <__unpack_f+0x5c>
    5ca8:	83 e0       	ldi	r24, 0x03	; 3
    5caa:	80 83       	st	Z, r24
    5cac:	09 c0       	rjmp	.+18     	; 0x5cc0 <__unpack_f+0x80>
    5cae:	44 0f       	add	r20, r20
    5cb0:	55 1f       	adc	r21, r21
    5cb2:	66 1f       	adc	r22, r22
    5cb4:	77 1f       	adc	r23, r23
    5cb6:	82 81       	ldd	r24, Z+2	; 0x02
    5cb8:	93 81       	ldd	r25, Z+3	; 0x03
    5cba:	01 97       	sbiw	r24, 0x01	; 1
    5cbc:	93 83       	std	Z+3, r25	; 0x03
    5cbe:	82 83       	std	Z+2, r24	; 0x02
    5cc0:	41 15       	cp	r20, r1
    5cc2:	51 05       	cpc	r21, r1
    5cc4:	61 05       	cpc	r22, r1
    5cc6:	80 e4       	ldi	r24, 0x40	; 64
    5cc8:	78 07       	cpc	r23, r24
    5cca:	88 f3       	brcs	.-30     	; 0x5cae <__unpack_f+0x6e>
    5ccc:	20 c0       	rjmp	.+64     	; 0x5d0e <__unpack_f+0xce>
    5cce:	8f 3f       	cpi	r24, 0xFF	; 255
    5cd0:	91 05       	cpc	r25, r1
    5cd2:	79 f4       	brne	.+30     	; 0x5cf2 <__unpack_f+0xb2>
    5cd4:	41 15       	cp	r20, r1
    5cd6:	51 05       	cpc	r21, r1
    5cd8:	61 05       	cpc	r22, r1
    5cda:	71 05       	cpc	r23, r1
    5cdc:	19 f4       	brne	.+6      	; 0x5ce4 <__unpack_f+0xa4>
    5cde:	84 e0       	ldi	r24, 0x04	; 4
    5ce0:	80 83       	st	Z, r24
    5ce2:	19 c0       	rjmp	.+50     	; 0x5d16 <__unpack_f+0xd6>
    5ce4:	e4 fe       	sbrs	r14, 4
    5ce6:	03 c0       	rjmp	.+6      	; 0x5cee <__unpack_f+0xae>
    5ce8:	81 e0       	ldi	r24, 0x01	; 1
    5cea:	80 83       	st	Z, r24
    5cec:	10 c0       	rjmp	.+32     	; 0x5d0e <__unpack_f+0xce>
    5cee:	10 82       	st	Z, r1
    5cf0:	0e c0       	rjmp	.+28     	; 0x5d0e <__unpack_f+0xce>
    5cf2:	8f 57       	subi	r24, 0x7F	; 127
    5cf4:	91 09       	sbc	r25, r1
    5cf6:	93 83       	std	Z+3, r25	; 0x03
    5cf8:	82 83       	std	Z+2, r24	; 0x02
    5cfa:	83 e0       	ldi	r24, 0x03	; 3
    5cfc:	80 83       	st	Z, r24
    5cfe:	87 e0       	ldi	r24, 0x07	; 7
    5d00:	44 0f       	add	r20, r20
    5d02:	55 1f       	adc	r21, r21
    5d04:	66 1f       	adc	r22, r22
    5d06:	77 1f       	adc	r23, r23
    5d08:	8a 95       	dec	r24
    5d0a:	d1 f7       	brne	.-12     	; 0x5d00 <__unpack_f+0xc0>
    5d0c:	70 64       	ori	r23, 0x40	; 64
    5d0e:	44 83       	std	Z+4, r20	; 0x04
    5d10:	55 83       	std	Z+5, r21	; 0x05
    5d12:	66 83       	std	Z+6, r22	; 0x06
    5d14:	77 83       	std	Z+7, r23	; 0x07
    5d16:	ef 90       	pop	r14
    5d18:	df 90       	pop	r13
    5d1a:	cf 90       	pop	r12
    5d1c:	08 95       	ret

00005d1e <__fpcmp_parts_f>:
    5d1e:	cf 93       	push	r28
    5d20:	fc 01       	movw	r30, r24
    5d22:	db 01       	movw	r26, r22
    5d24:	90 81       	ld	r25, Z
    5d26:	92 30       	cpi	r25, 0x02	; 2
    5d28:	08 f4       	brcc	.+2      	; 0x5d2c <__fpcmp_parts_f+0xe>
    5d2a:	52 c0       	rjmp	.+164    	; 0x5dd0 <__fpcmp_parts_f+0xb2>
    5d2c:	8c 91       	ld	r24, X
    5d2e:	82 30       	cpi	r24, 0x02	; 2
    5d30:	08 f4       	brcc	.+2      	; 0x5d34 <__fpcmp_parts_f+0x16>
    5d32:	4e c0       	rjmp	.+156    	; 0x5dd0 <__fpcmp_parts_f+0xb2>
    5d34:	94 30       	cpi	r25, 0x04	; 4
    5d36:	71 f4       	brne	.+28     	; 0x5d54 <__fpcmp_parts_f+0x36>
    5d38:	84 30       	cpi	r24, 0x04	; 4
    5d3a:	39 f4       	brne	.+14     	; 0x5d4a <__fpcmp_parts_f+0x2c>
    5d3c:	11 96       	adiw	r26, 0x01	; 1
    5d3e:	2c 91       	ld	r18, X
    5d40:	30 e0       	ldi	r19, 0x00	; 0
    5d42:	81 81       	ldd	r24, Z+1	; 0x01
    5d44:	28 1b       	sub	r18, r24
    5d46:	31 09       	sbc	r19, r1
    5d48:	48 c0       	rjmp	.+144    	; 0x5dda <__fpcmp_parts_f+0xbc>
    5d4a:	81 81       	ldd	r24, Z+1	; 0x01
    5d4c:	88 23       	and	r24, r24
    5d4e:	09 f4       	brne	.+2      	; 0x5d52 <__fpcmp_parts_f+0x34>
    5d50:	3f c0       	rjmp	.+126    	; 0x5dd0 <__fpcmp_parts_f+0xb2>
    5d52:	3b c0       	rjmp	.+118    	; 0x5dca <__fpcmp_parts_f+0xac>
    5d54:	84 30       	cpi	r24, 0x04	; 4
    5d56:	29 f4       	brne	.+10     	; 0x5d62 <__fpcmp_parts_f+0x44>
    5d58:	11 96       	adiw	r26, 0x01	; 1
    5d5a:	8c 91       	ld	r24, X
    5d5c:	81 11       	cpse	r24, r1
    5d5e:	38 c0       	rjmp	.+112    	; 0x5dd0 <__fpcmp_parts_f+0xb2>
    5d60:	34 c0       	rjmp	.+104    	; 0x5dca <__fpcmp_parts_f+0xac>
    5d62:	92 30       	cpi	r25, 0x02	; 2
    5d64:	19 f4       	brne	.+6      	; 0x5d6c <__fpcmp_parts_f+0x4e>
    5d66:	82 30       	cpi	r24, 0x02	; 2
    5d68:	b9 f7       	brne	.-18     	; 0x5d58 <__fpcmp_parts_f+0x3a>
    5d6a:	35 c0       	rjmp	.+106    	; 0x5dd6 <__fpcmp_parts_f+0xb8>
    5d6c:	82 30       	cpi	r24, 0x02	; 2
    5d6e:	69 f3       	breq	.-38     	; 0x5d4a <__fpcmp_parts_f+0x2c>
    5d70:	c1 81       	ldd	r28, Z+1	; 0x01
    5d72:	11 96       	adiw	r26, 0x01	; 1
    5d74:	8c 91       	ld	r24, X
    5d76:	11 97       	sbiw	r26, 0x01	; 1
    5d78:	c8 13       	cpse	r28, r24
    5d7a:	1d c0       	rjmp	.+58     	; 0x5db6 <__fpcmp_parts_f+0x98>
    5d7c:	22 81       	ldd	r18, Z+2	; 0x02
    5d7e:	33 81       	ldd	r19, Z+3	; 0x03
    5d80:	12 96       	adiw	r26, 0x02	; 2
    5d82:	8d 91       	ld	r24, X+
    5d84:	9c 91       	ld	r25, X
    5d86:	13 97       	sbiw	r26, 0x03	; 3
    5d88:	82 17       	cp	r24, r18
    5d8a:	93 07       	cpc	r25, r19
    5d8c:	0c f4       	brge	.+2      	; 0x5d90 <__fpcmp_parts_f+0x72>
    5d8e:	13 c0       	rjmp	.+38     	; 0x5db6 <__fpcmp_parts_f+0x98>
    5d90:	28 17       	cp	r18, r24
    5d92:	39 07       	cpc	r19, r25
    5d94:	0c f4       	brge	.+2      	; 0x5d98 <__fpcmp_parts_f+0x7a>
    5d96:	17 c0       	rjmp	.+46     	; 0x5dc6 <__fpcmp_parts_f+0xa8>
    5d98:	44 81       	ldd	r20, Z+4	; 0x04
    5d9a:	55 81       	ldd	r21, Z+5	; 0x05
    5d9c:	66 81       	ldd	r22, Z+6	; 0x06
    5d9e:	77 81       	ldd	r23, Z+7	; 0x07
    5da0:	14 96       	adiw	r26, 0x04	; 4
    5da2:	8d 91       	ld	r24, X+
    5da4:	9d 91       	ld	r25, X+
    5da6:	0d 90       	ld	r0, X+
    5da8:	bc 91       	ld	r27, X
    5daa:	a0 2d       	mov	r26, r0
    5dac:	84 17       	cp	r24, r20
    5dae:	95 07       	cpc	r25, r21
    5db0:	a6 07       	cpc	r26, r22
    5db2:	b7 07       	cpc	r27, r23
    5db4:	18 f4       	brcc	.+6      	; 0x5dbc <__fpcmp_parts_f+0x9e>
    5db6:	c1 11       	cpse	r28, r1
    5db8:	08 c0       	rjmp	.+16     	; 0x5dca <__fpcmp_parts_f+0xac>
    5dba:	0a c0       	rjmp	.+20     	; 0x5dd0 <__fpcmp_parts_f+0xb2>
    5dbc:	48 17       	cp	r20, r24
    5dbe:	59 07       	cpc	r21, r25
    5dc0:	6a 07       	cpc	r22, r26
    5dc2:	7b 07       	cpc	r23, r27
    5dc4:	40 f4       	brcc	.+16     	; 0x5dd6 <__fpcmp_parts_f+0xb8>
    5dc6:	c1 11       	cpse	r28, r1
    5dc8:	03 c0       	rjmp	.+6      	; 0x5dd0 <__fpcmp_parts_f+0xb2>
    5dca:	2f ef       	ldi	r18, 0xFF	; 255
    5dcc:	3f ef       	ldi	r19, 0xFF	; 255
    5dce:	05 c0       	rjmp	.+10     	; 0x5dda <__fpcmp_parts_f+0xbc>
    5dd0:	21 e0       	ldi	r18, 0x01	; 1
    5dd2:	30 e0       	ldi	r19, 0x00	; 0
    5dd4:	02 c0       	rjmp	.+4      	; 0x5dda <__fpcmp_parts_f+0xbc>
    5dd6:	20 e0       	ldi	r18, 0x00	; 0
    5dd8:	30 e0       	ldi	r19, 0x00	; 0
    5dda:	c9 01       	movw	r24, r18
    5ddc:	cf 91       	pop	r28
    5dde:	08 95       	ret

00005de0 <_GLOBAL__sub_I__Z11initSensorsPii>:
    5de0:	0f 93       	push	r16
    5de2:	00 e0       	ldi	r16, 0x00	; 0
    5de4:	20 e0       	ldi	r18, 0x00	; 0
    5de6:	40 e0       	ldi	r20, 0x00	; 0
    5de8:	60 e0       	ldi	r22, 0x00	; 0
    5dea:	88 eb       	ldi	r24, 0xB8	; 184
    5dec:	91 e0       	ldi	r25, 0x01	; 1
    5dee:	0e 94 86 0c 	call	0x190c	; 0x190c <_ZN9IPAddressC1Ehhhh>
    5df2:	0f 91       	pop	r16
    5df4:	08 95       	ret

00005df6 <_GLOBAL__sub_I_server>:
    5df6:	0f 93       	push	r16
    5df8:	00 e0       	ldi	r16, 0x00	; 0
    5dfa:	20 e0       	ldi	r18, 0x00	; 0
    5dfc:	40 e0       	ldi	r20, 0x00	; 0
    5dfe:	60 e0       	ldi	r22, 0x00	; 0
    5e00:	80 ec       	ldi	r24, 0xC0	; 192
    5e02:	91 e0       	ldi	r25, 0x01	; 1
    5e04:	0e 94 86 0c 	call	0x190c	; 0x190c <_ZN9IPAddressC1Ehhhh>
    5e08:	0f 91       	pop	r16
    5e0a:	08 95       	ret

00005e0c <_GLOBAL__sub_I_udpClient>:
    5e0c:	0f 93       	push	r16
    5e0e:	00 e0       	ldi	r16, 0x00	; 0
    5e10:	20 e0       	ldi	r18, 0x00	; 0
    5e12:	40 e0       	ldi	r20, 0x00	; 0
    5e14:	60 e0       	ldi	r22, 0x00	; 0
    5e16:	81 ee       	ldi	r24, 0xE1	; 225
    5e18:	91 e0       	ldi	r25, 0x01	; 1
    5e1a:	0e 94 86 0c 	call	0x190c	; 0x190c <_ZN9IPAddressC1Ehhhh>
    5e1e:	86 ec       	ldi	r24, 0xC6	; 198
    5e20:	91 e0       	ldi	r25, 0x01	; 1
    5e22:	0f 91       	pop	r16
    5e24:	0c 94 99 09 	jmp	0x1332	; 0x1332 <_ZN11EthernetUDPC1Ev>

00005e28 <main>:
    5e28:	0e 94 8c 18 	call	0x3118	; 0x3118 <init>
    5e2c:	0e 94 87 01 	call	0x30e	; 0x30e <setup>
    5e30:	63 e0       	ldi	r22, 0x03	; 3
    5e32:	70 e0       	ldi	r23, 0x00	; 0
    5e34:	87 ee       	ldi	r24, 0xE7	; 231
    5e36:	91 e0       	ldi	r25, 0x01	; 1
    5e38:	0e 94 97 00 	call	0x12e	; 0x12e <_Z11initSensorsPii>
    5e3c:	0e 94 db 01 	call	0x3b6	; 0x3b6 <loop>
    5e40:	fd cf       	rjmp	.-6      	; 0x5e3c <main+0x14>

00005e42 <_GLOBAL__sub_I_sensors>:
    5e42:	0f 93       	push	r16
    5e44:	00 e0       	ldi	r16, 0x00	; 0
    5e46:	20 e0       	ldi	r18, 0x00	; 0
    5e48:	40 e0       	ldi	r20, 0x00	; 0
    5e4a:	60 e0       	ldi	r22, 0x00	; 0
    5e4c:	8e ee       	ldi	r24, 0xEE	; 238
    5e4e:	93 e0       	ldi	r25, 0x03	; 3
    5e50:	0e 94 86 0c 	call	0x190c	; 0x190c <_ZN9IPAddressC1Ehhhh>
    5e54:	04 e1       	ldi	r16, 0x14	; 20
    5e56:	21 e0       	ldi	r18, 0x01	; 1
    5e58:	48 ea       	ldi	r20, 0xA8	; 168
    5e5a:	60 ec       	ldi	r22, 0xC0	; 192
    5e5c:	88 ee       	ldi	r24, 0xE8	; 232
    5e5e:	93 e0       	ldi	r25, 0x03	; 3
    5e60:	0e 94 86 0c 	call	0x190c	; 0x190c <_ZN9IPAddressC1Ehhhh>
    5e64:	0f 91       	pop	r16
    5e66:	08 95       	ret

00005e68 <_ZN10W5100Class8writeGAREPh>:
    5e68:	44 e0       	ldi	r20, 0x04	; 4
    5e6a:	50 e0       	ldi	r21, 0x00	; 0
    5e6c:	bc 01       	movw	r22, r24
    5e6e:	81 e0       	ldi	r24, 0x01	; 1
    5e70:	90 e0       	ldi	r25, 0x00	; 0
    5e72:	0c 94 f1 1c 	jmp	0x39e2	; 0x39e2 <_ZN10W5100Class5writeEjPKhj>

00005e76 <_ZN10W5100Class9writeSUBREPh>:
    5e76:	44 e0       	ldi	r20, 0x04	; 4
    5e78:	50 e0       	ldi	r21, 0x00	; 0
    5e7a:	bc 01       	movw	r22, r24
    5e7c:	85 e0       	ldi	r24, 0x05	; 5
    5e7e:	90 e0       	ldi	r25, 0x00	; 0
    5e80:	0c 94 f1 1c 	jmp	0x39e2	; 0x39e2 <_ZN10W5100Class5writeEjPKhj>

00005e84 <_ZN10W5100Class9writeSIPREPh>:
    5e84:	44 e0       	ldi	r20, 0x04	; 4
    5e86:	50 e0       	ldi	r21, 0x00	; 0
    5e88:	bc 01       	movw	r22, r24
    5e8a:	8f e0       	ldi	r24, 0x0F	; 15
    5e8c:	90 e0       	ldi	r25, 0x00	; 0
    5e8e:	0c 94 f1 1c 	jmp	0x39e2	; 0x39e2 <_ZN10W5100Class5writeEjPKhj>

00005e92 <_GLOBAL__sub_I__ZN13EthernetClass6_stateE>:
    5e92:	0f 93       	push	r16
    5e94:	00 e0       	ldi	r16, 0x00	; 0
    5e96:	20 e0       	ldi	r18, 0x00	; 0
    5e98:	40 e0       	ldi	r20, 0x00	; 0
    5e9a:	60 e0       	ldi	r22, 0x00	; 0
    5e9c:	88 e0       	ldi	r24, 0x08	; 8
    5e9e:	94 e0       	ldi	r25, 0x04	; 4
    5ea0:	0e 94 86 0c 	call	0x190c	; 0x190c <_ZN9IPAddressC1Ehhhh>
    5ea4:	84 ef       	ldi	r24, 0xF4	; 244
    5ea6:	93 e0       	ldi	r25, 0x03	; 3
    5ea8:	0f 91       	pop	r16
    5eaa:	0c 94 7c 0c 	jmp	0x18f8	; 0x18f8 <_ZN9IPAddressC1Ev>

00005eae <_GLOBAL__sub_I__ZN14EthernetClient8_srcportE>:
    5eae:	0f 93       	push	r16
    5eb0:	00 e0       	ldi	r16, 0x00	; 0
    5eb2:	20 e0       	ldi	r18, 0x00	; 0
    5eb4:	40 e0       	ldi	r20, 0x00	; 0
    5eb6:	60 e0       	ldi	r22, 0x00	; 0
    5eb8:	8e e0       	ldi	r24, 0x0E	; 14
    5eba:	94 e0       	ldi	r25, 0x04	; 4
    5ebc:	0e 94 86 0c 	call	0x190c	; 0x190c <_ZN9IPAddressC1Ehhhh>
    5ec0:	0f 91       	pop	r16
    5ec2:	08 95       	ret

00005ec4 <_GLOBAL__sub_I__ZN14EthernetServerC2Ej>:
    5ec4:	0f 93       	push	r16
    5ec6:	00 e0       	ldi	r16, 0x00	; 0
    5ec8:	20 e0       	ldi	r18, 0x00	; 0
    5eca:	40 e0       	ldi	r20, 0x00	; 0
    5ecc:	60 e0       	ldi	r22, 0x00	; 0
    5ece:	84 e1       	ldi	r24, 0x14	; 20
    5ed0:	94 e0       	ldi	r25, 0x04	; 4
    5ed2:	0e 94 86 0c 	call	0x190c	; 0x190c <_ZN9IPAddressC1Ehhhh>
    5ed6:	0f 91       	pop	r16
    5ed8:	08 95       	ret

00005eda <_ZN11EthernetUDP4readEPcj>:
    5eda:	dc 01       	movw	r26, r24
    5edc:	ed 91       	ld	r30, X+
    5ede:	fc 91       	ld	r31, X
    5ee0:	00 8c       	ldd	r0, Z+24	; 0x18
    5ee2:	f1 8d       	ldd	r31, Z+25	; 0x19
    5ee4:	e0 2d       	mov	r30, r0
    5ee6:	09 94       	ijmp

00005ee8 <_ZN11EthernetUDP8remoteIPEv>:
    5ee8:	2c ea       	ldi	r18, 0xAC	; 172
    5eea:	31 e0       	ldi	r19, 0x01	; 1
    5eec:	fc 01       	movw	r30, r24
    5eee:	31 83       	std	Z+1, r19	; 0x01
    5ef0:	20 83       	st	Z, r18
    5ef2:	fb 01       	movw	r30, r22
    5ef4:	41 89       	ldd	r20, Z+17	; 0x11
    5ef6:	52 89       	ldd	r21, Z+18	; 0x12
    5ef8:	63 89       	ldd	r22, Z+19	; 0x13
    5efa:	74 89       	ldd	r23, Z+20	; 0x14
    5efc:	fc 01       	movw	r30, r24
    5efe:	42 83       	std	Z+2, r20	; 0x02
    5f00:	53 83       	std	Z+3, r21	; 0x03
    5f02:	64 83       	std	Z+4, r22	; 0x04
    5f04:	75 83       	std	Z+5, r23	; 0x05
    5f06:	08 95       	ret

00005f08 <_ZN11EthernetUDP10remotePortEv>:
    5f08:	fc 01       	movw	r30, r24
    5f0a:	85 89       	ldd	r24, Z+21	; 0x15
    5f0c:	96 89       	ldd	r25, Z+22	; 0x16
    5f0e:	08 95       	ret

00005f10 <_GLOBAL__sub_I__ZN11EthernetUDPC2Ev>:
    5f10:	0f 93       	push	r16
    5f12:	00 e0       	ldi	r16, 0x00	; 0
    5f14:	20 e0       	ldi	r18, 0x00	; 0
    5f16:	40 e0       	ldi	r20, 0x00	; 0
    5f18:	60 e0       	ldi	r22, 0x00	; 0
    5f1a:	8a e1       	ldi	r24, 0x1A	; 26
    5f1c:	94 e0       	ldi	r25, 0x04	; 4
    5f1e:	0e 94 86 0c 	call	0x190c	; 0x190c <_ZN9IPAddressC1Ehhhh>
    5f22:	0f 91       	pop	r16
    5f24:	08 95       	ret

00005f26 <_GLOBAL__sub_I_rx_buffer>:
    5f26:	10 92 23 04 	sts	0x0423, r1
    5f2a:	10 92 22 04 	sts	0x0422, r1
    5f2e:	88 ee       	ldi	r24, 0xE8	; 232
    5f30:	93 e0       	ldi	r25, 0x03	; 3
    5f32:	a0 e0       	ldi	r26, 0x00	; 0
    5f34:	b0 e0       	ldi	r27, 0x00	; 0
    5f36:	80 93 24 04 	sts	0x0424, r24
    5f3a:	90 93 25 04 	sts	0x0425, r25
    5f3e:	a0 93 26 04 	sts	0x0426, r26
    5f42:	b0 93 27 04 	sts	0x0427, r27
    5f46:	8c e9       	ldi	r24, 0x9C	; 156
    5f48:	91 e0       	ldi	r25, 0x01	; 1
    5f4a:	90 93 21 04 	sts	0x0421, r25
    5f4e:	80 93 20 04 	sts	0x0420, r24
    5f52:	83 e8       	ldi	r24, 0x83	; 131
    5f54:	94 e0       	ldi	r25, 0x04	; 4
    5f56:	90 93 2d 04 	sts	0x042D, r25
    5f5a:	80 93 2c 04 	sts	0x042C, r24
    5f5e:	8f e3       	ldi	r24, 0x3F	; 63
    5f60:	94 e0       	ldi	r25, 0x04	; 4
    5f62:	90 93 2f 04 	sts	0x042F, r25
    5f66:	80 93 2e 04 	sts	0x042E, r24
    5f6a:	85 ec       	ldi	r24, 0xC5	; 197
    5f6c:	90 e0       	ldi	r25, 0x00	; 0
    5f6e:	90 93 31 04 	sts	0x0431, r25
    5f72:	80 93 30 04 	sts	0x0430, r24
    5f76:	84 ec       	ldi	r24, 0xC4	; 196
    5f78:	90 e0       	ldi	r25, 0x00	; 0
    5f7a:	90 93 33 04 	sts	0x0433, r25
    5f7e:	80 93 32 04 	sts	0x0432, r24
    5f82:	80 ec       	ldi	r24, 0xC0	; 192
    5f84:	90 e0       	ldi	r25, 0x00	; 0
    5f86:	90 93 35 04 	sts	0x0435, r25
    5f8a:	80 93 34 04 	sts	0x0434, r24
    5f8e:	81 ec       	ldi	r24, 0xC1	; 193
    5f90:	90 e0       	ldi	r25, 0x00	; 0
    5f92:	90 93 37 04 	sts	0x0437, r25
    5f96:	80 93 36 04 	sts	0x0436, r24
    5f9a:	86 ec       	ldi	r24, 0xC6	; 198
    5f9c:	90 e0       	ldi	r25, 0x00	; 0
    5f9e:	90 93 39 04 	sts	0x0439, r25
    5fa2:	80 93 38 04 	sts	0x0438, r24
    5fa6:	84 e0       	ldi	r24, 0x04	; 4
    5fa8:	80 93 3a 04 	sts	0x043A, r24
    5fac:	83 e0       	ldi	r24, 0x03	; 3
    5fae:	80 93 3b 04 	sts	0x043B, r24
    5fb2:	87 e0       	ldi	r24, 0x07	; 7
    5fb4:	80 93 3c 04 	sts	0x043C, r24
    5fb8:	85 e0       	ldi	r24, 0x05	; 5
    5fba:	80 93 3d 04 	sts	0x043D, r24
    5fbe:	81 e0       	ldi	r24, 0x01	; 1
    5fc0:	80 93 3e 04 	sts	0x043E, r24
    5fc4:	08 95       	ret

00005fc6 <_GLOBAL__sub_I__ZN9IPAddressC2Ev>:
    5fc6:	8c ea       	ldi	r24, 0xAC	; 172
    5fc8:	91 e0       	ldi	r25, 0x01	; 1
    5fca:	90 93 c8 04 	sts	0x04C8, r25
    5fce:	80 93 c7 04 	sts	0x04C7, r24
    5fd2:	10 92 c9 04 	sts	0x04C9, r1
    5fd6:	10 92 ca 04 	sts	0x04CA, r1
    5fda:	10 92 cb 04 	sts	0x04CB, r1
    5fde:	10 92 cc 04 	sts	0x04CC, r1
    5fe2:	08 95       	ret

00005fe4 <_ZN5Print5writeEPKc>:
    5fe4:	db 01       	movw	r26, r22
    5fe6:	0d 90       	ld	r0, X+
    5fe8:	00 20       	and	r0, r0
    5fea:	e9 f7       	brne	.-6      	; 0x5fe6 <_ZN5Print5writeEPKc+0x2>
    5fec:	ad 01       	movw	r20, r26
    5fee:	41 50       	subi	r20, 0x01	; 1
    5ff0:	51 09       	sbc	r21, r1
    5ff2:	46 1b       	sub	r20, r22
    5ff4:	57 0b       	sbc	r21, r23
    5ff6:	dc 01       	movw	r26, r24
    5ff8:	ed 91       	ld	r30, X+
    5ffa:	fc 91       	ld	r31, X
    5ffc:	02 80       	ldd	r0, Z+2	; 0x02
    5ffe:	f3 81       	ldd	r31, Z+3	; 0x03
    6000:	e0 2d       	mov	r30, r0
    6002:	09 94       	ijmp

00006004 <_ZN10W5100Class11writeSnDIPREhPh>:
    6004:	38 2f       	mov	r19, r24
    6006:	20 e0       	ldi	r18, 0x00	; 0
    6008:	44 e0       	ldi	r20, 0x04	; 4
    600a:	50 e0       	ldi	r21, 0x00	; 0
    600c:	c9 01       	movw	r24, r18
    600e:	84 5f       	subi	r24, 0xF4	; 244
    6010:	9b 4f       	sbci	r25, 0xFB	; 251
    6012:	0c 94 f1 1c 	jmp	0x39e2	; 0x39e2 <_ZN10W5100Class5writeEjPKhj>

00006016 <_ZN10W5100Class6readSnEhj>:
    6016:	90 e0       	ldi	r25, 0x00	; 0
    6018:	04 96       	adiw	r24, 0x04	; 4
    601a:	98 2f       	mov	r25, r24
    601c:	88 27       	eor	r24, r24
    601e:	86 0f       	add	r24, r22
    6020:	97 1f       	adc	r25, r23
    6022:	0c 94 20 1d 	jmp	0x3a40	; 0x3a40 <_ZN10W5100Class4readEj>

00006026 <_ZN10W5100Class8readSnIREh>:
    6026:	62 e0       	ldi	r22, 0x02	; 2
    6028:	70 e0       	ldi	r23, 0x00	; 0
    602a:	0c 94 0b 30 	jmp	0x6016	; 0x6016 <_ZN10W5100Class6readSnEhj>

0000602e <_ZN10W5100Class7writeSnEhjh>:
    602e:	9b 01       	movw	r18, r22
    6030:	90 e0       	ldi	r25, 0x00	; 0
    6032:	04 96       	adiw	r24, 0x04	; 4
    6034:	98 2f       	mov	r25, r24
    6036:	88 27       	eor	r24, r24
    6038:	64 2f       	mov	r22, r20
    603a:	82 0f       	add	r24, r18
    603c:	93 1f       	adc	r25, r19
    603e:	0c 94 91 1c 	jmp	0x3922	; 0x3922 <_ZN10W5100Class5writeEjh>

00006042 <_ZN10W5100Class9writeSnIREhh>:
    6042:	46 2f       	mov	r20, r22
    6044:	62 e0       	ldi	r22, 0x02	; 2
    6046:	70 e0       	ldi	r23, 0x00	; 0
    6048:	0c 94 17 30 	jmp	0x602e	; 0x602e <_ZN10W5100Class7writeSnEhjh>

0000604c <_ZN10W5100Class12writeSnDPORTEhj>:
    604c:	cf 93       	push	r28
    604e:	df 93       	push	r29
    6050:	c8 2f       	mov	r28, r24
    6052:	d6 2f       	mov	r29, r22
    6054:	47 2f       	mov	r20, r23
    6056:	60 e1       	ldi	r22, 0x10	; 16
    6058:	70 e0       	ldi	r23, 0x00	; 0
    605a:	0e 94 17 30 	call	0x602e	; 0x602e <_ZN10W5100Class7writeSnEhjh>
    605e:	4d 2f       	mov	r20, r29
    6060:	61 e1       	ldi	r22, 0x11	; 17
    6062:	70 e0       	ldi	r23, 0x00	; 0
    6064:	8c 2f       	mov	r24, r28
    6066:	df 91       	pop	r29
    6068:	cf 91       	pop	r28
    606a:	0c 94 17 30 	jmp	0x602e	; 0x602e <_ZN10W5100Class7writeSnEhjh>

0000606e <_ZN10W5100Class12writeSnRX_RDEhj>:
    606e:	cf 93       	push	r28
    6070:	df 93       	push	r29
    6072:	c8 2f       	mov	r28, r24
    6074:	d6 2f       	mov	r29, r22
    6076:	47 2f       	mov	r20, r23
    6078:	68 e2       	ldi	r22, 0x28	; 40
    607a:	70 e0       	ldi	r23, 0x00	; 0
    607c:	0e 94 17 30 	call	0x602e	; 0x602e <_ZN10W5100Class7writeSnEhjh>
    6080:	4d 2f       	mov	r20, r29
    6082:	69 e2       	ldi	r22, 0x29	; 41
    6084:	70 e0       	ldi	r23, 0x00	; 0
    6086:	8c 2f       	mov	r24, r28
    6088:	df 91       	pop	r29
    608a:	cf 91       	pop	r28
    608c:	0c 94 17 30 	jmp	0x602e	; 0x602e <_ZN10W5100Class7writeSnEhjh>

00006090 <_ZN10W5100Class11writeSnPORTEhj>:
    6090:	cf 93       	push	r28
    6092:	df 93       	push	r29
    6094:	c8 2f       	mov	r28, r24
    6096:	d6 2f       	mov	r29, r22
    6098:	47 2f       	mov	r20, r23
    609a:	64 e0       	ldi	r22, 0x04	; 4
    609c:	70 e0       	ldi	r23, 0x00	; 0
    609e:	0e 94 17 30 	call	0x602e	; 0x602e <_ZN10W5100Class7writeSnEhjh>
    60a2:	4d 2f       	mov	r20, r29
    60a4:	65 e0       	ldi	r22, 0x05	; 5
    60a6:	70 e0       	ldi	r23, 0x00	; 0
    60a8:	8c 2f       	mov	r24, r28
    60aa:	df 91       	pop	r29
    60ac:	cf 91       	pop	r28
    60ae:	0c 94 17 30 	jmp	0x602e	; 0x602e <_ZN10W5100Class7writeSnEhjh>

000060b2 <_ZN8SPIClass8transferEh>:
    60b2:	8e bd       	out	0x2e, r24	; 46
    60b4:	0d b4       	in	r0, 0x2d	; 45
    60b6:	07 fe       	sbrs	r0, 7
    60b8:	fd cf       	rjmp	.-6      	; 0x60b4 <_ZN8SPIClass8transferEh+0x2>
    60ba:	8e b5       	in	r24, 0x2e	; 46
    60bc:	08 95       	ret

000060be <_ZN10W5100Class5setSSEv>:
    60be:	2a 98       	cbi	0x05, 2	; 5
    60c0:	08 95       	ret

000060c2 <_ZN10W5100Class7resetSSEv>:
    60c2:	2a 9a       	sbi	0x05, 2	; 5
    60c4:	08 95       	ret

000060c6 <_ZN10W5100Class12readSnRX_RSREh>:
    60c6:	cf 93       	push	r28
    60c8:	df 93       	push	r29
    60ca:	c8 2f       	mov	r28, r24
    60cc:	66 e2       	ldi	r22, 0x26	; 38
    60ce:	70 e0       	ldi	r23, 0x00	; 0
    60d0:	0e 94 0b 30 	call	0x6016	; 0x6016 <_ZN10W5100Class6readSnEhj>
    60d4:	d8 2f       	mov	r29, r24
    60d6:	67 e2       	ldi	r22, 0x27	; 39
    60d8:	70 e0       	ldi	r23, 0x00	; 0
    60da:	8c 2f       	mov	r24, r28
    60dc:	0e 94 0b 30 	call	0x6016	; 0x6016 <_ZN10W5100Class6readSnEhj>
    60e0:	3d 2f       	mov	r19, r29
    60e2:	20 e0       	ldi	r18, 0x00	; 0
    60e4:	28 2b       	or	r18, r24
    60e6:	c9 01       	movw	r24, r18
    60e8:	df 91       	pop	r29
    60ea:	cf 91       	pop	r28
    60ec:	08 95       	ret

000060ee <_ZN10W5100Class12readSnTX_FSREh>:
    60ee:	cf 93       	push	r28
    60f0:	df 93       	push	r29
    60f2:	c8 2f       	mov	r28, r24
    60f4:	60 e2       	ldi	r22, 0x20	; 32
    60f6:	70 e0       	ldi	r23, 0x00	; 0
    60f8:	0e 94 0b 30 	call	0x6016	; 0x6016 <_ZN10W5100Class6readSnEhj>
    60fc:	d8 2f       	mov	r29, r24
    60fe:	61 e2       	ldi	r22, 0x21	; 33
    6100:	70 e0       	ldi	r23, 0x00	; 0
    6102:	8c 2f       	mov	r24, r28
    6104:	0e 94 0b 30 	call	0x6016	; 0x6016 <_ZN10W5100Class6readSnEhj>
    6108:	3d 2f       	mov	r19, r29
    610a:	20 e0       	ldi	r18, 0x00	; 0
    610c:	28 2b       	or	r18, r24
    610e:	c9 01       	movw	r24, r18
    6110:	df 91       	pop	r29
    6112:	cf 91       	pop	r28
    6114:	08 95       	ret

00006116 <_GLOBAL__sub_I__ZN9DhcpClass13beginWithDHCPEPhmm>:
    6116:	0f 93       	push	r16
    6118:	00 e0       	ldi	r16, 0x00	; 0
    611a:	20 e0       	ldi	r18, 0x00	; 0
    611c:	40 e0       	ldi	r20, 0x00	; 0
    611e:	60 e0       	ldi	r22, 0x00	; 0
    6120:	89 ee       	ldi	r24, 0xE9	; 233
    6122:	94 e0       	ldi	r25, 0x04	; 4
    6124:	0e 94 86 0c 	call	0x190c	; 0x190c <_ZN9IPAddressC1Ehhhh>
    6128:	0f 91       	pop	r16
    612a:	08 95       	ret

0000612c <_GLOBAL__sub_I__ZN9DNSClient5beginERK9IPAddress>:
    612c:	0f 93       	push	r16
    612e:	00 e0       	ldi	r16, 0x00	; 0
    6130:	20 e0       	ldi	r18, 0x00	; 0
    6132:	40 e0       	ldi	r20, 0x00	; 0
    6134:	60 e0       	ldi	r22, 0x00	; 0
    6136:	8f ee       	ldi	r24, 0xEF	; 239
    6138:	94 e0       	ldi	r25, 0x04	; 4
    613a:	0e 94 86 0c 	call	0x190c	; 0x190c <_ZN9IPAddressC1Ehhhh>
    613e:	0f 91       	pop	r16
    6140:	08 95       	ret

00006142 <__mulsi3>:
    6142:	db 01       	movw	r26, r22
    6144:	8f 93       	push	r24
    6146:	9f 93       	push	r25
    6148:	0e 94 f6 30 	call	0x61ec	; 0x61ec <__muluhisi3>
    614c:	bf 91       	pop	r27
    614e:	af 91       	pop	r26
    6150:	a2 9f       	mul	r26, r18
    6152:	80 0d       	add	r24, r0
    6154:	91 1d       	adc	r25, r1
    6156:	a3 9f       	mul	r26, r19
    6158:	90 0d       	add	r25, r0
    615a:	b2 9f       	mul	r27, r18
    615c:	90 0d       	add	r25, r0
    615e:	11 24       	eor	r1, r1
    6160:	08 95       	ret

00006162 <__udivmodsi4>:
    6162:	a1 e2       	ldi	r26, 0x21	; 33
    6164:	1a 2e       	mov	r1, r26
    6166:	aa 1b       	sub	r26, r26
    6168:	bb 1b       	sub	r27, r27
    616a:	fd 01       	movw	r30, r26
    616c:	0d c0       	rjmp	.+26     	; 0x6188 <__udivmodsi4_ep>

0000616e <__udivmodsi4_loop>:
    616e:	aa 1f       	adc	r26, r26
    6170:	bb 1f       	adc	r27, r27
    6172:	ee 1f       	adc	r30, r30
    6174:	ff 1f       	adc	r31, r31
    6176:	a2 17       	cp	r26, r18
    6178:	b3 07       	cpc	r27, r19
    617a:	e4 07       	cpc	r30, r20
    617c:	f5 07       	cpc	r31, r21
    617e:	20 f0       	brcs	.+8      	; 0x6188 <__udivmodsi4_ep>
    6180:	a2 1b       	sub	r26, r18
    6182:	b3 0b       	sbc	r27, r19
    6184:	e4 0b       	sbc	r30, r20
    6186:	f5 0b       	sbc	r31, r21

00006188 <__udivmodsi4_ep>:
    6188:	66 1f       	adc	r22, r22
    618a:	77 1f       	adc	r23, r23
    618c:	88 1f       	adc	r24, r24
    618e:	99 1f       	adc	r25, r25
    6190:	1a 94       	dec	r1
    6192:	69 f7       	brne	.-38     	; 0x616e <__udivmodsi4_loop>
    6194:	60 95       	com	r22
    6196:	70 95       	com	r23
    6198:	80 95       	com	r24
    619a:	90 95       	com	r25
    619c:	9b 01       	movw	r18, r22
    619e:	ac 01       	movw	r20, r24
    61a0:	bd 01       	movw	r22, r26
    61a2:	cf 01       	movw	r24, r30
    61a4:	08 95       	ret

000061a6 <__divmodsi4>:
    61a6:	05 2e       	mov	r0, r21
    61a8:	97 fb       	bst	r25, 7
    61aa:	16 f4       	brtc	.+4      	; 0x61b0 <__divmodsi4+0xa>
    61ac:	00 94       	com	r0
    61ae:	07 d0       	rcall	.+14     	; 0x61be <__divmodsi4_neg1>
    61b0:	57 fd       	sbrc	r21, 7
    61b2:	0d d0       	rcall	.+26     	; 0x61ce <__divmodsi4_neg2>
    61b4:	0e 94 b1 30 	call	0x6162	; 0x6162 <__udivmodsi4>
    61b8:	07 fc       	sbrc	r0, 7
    61ba:	09 d0       	rcall	.+18     	; 0x61ce <__divmodsi4_neg2>
    61bc:	7e f4       	brtc	.+30     	; 0x61dc <__divmodsi4_exit>

000061be <__divmodsi4_neg1>:
    61be:	90 95       	com	r25
    61c0:	80 95       	com	r24
    61c2:	70 95       	com	r23
    61c4:	61 95       	neg	r22
    61c6:	7f 4f       	sbci	r23, 0xFF	; 255
    61c8:	8f 4f       	sbci	r24, 0xFF	; 255
    61ca:	9f 4f       	sbci	r25, 0xFF	; 255
    61cc:	08 95       	ret

000061ce <__divmodsi4_neg2>:
    61ce:	50 95       	com	r21
    61d0:	40 95       	com	r20
    61d2:	30 95       	com	r19
    61d4:	21 95       	neg	r18
    61d6:	3f 4f       	sbci	r19, 0xFF	; 255
    61d8:	4f 4f       	sbci	r20, 0xFF	; 255
    61da:	5f 4f       	sbci	r21, 0xFF	; 255

000061dc <__divmodsi4_exit>:
    61dc:	08 95       	ret

000061de <__bswapsi2>:
    61de:	69 27       	eor	r22, r25
    61e0:	96 27       	eor	r25, r22
    61e2:	69 27       	eor	r22, r25
    61e4:	78 27       	eor	r23, r24
    61e6:	87 27       	eor	r24, r23
    61e8:	78 27       	eor	r23, r24
    61ea:	08 95       	ret

000061ec <__muluhisi3>:
    61ec:	0e 94 59 31 	call	0x62b2	; 0x62b2 <__umulhisi3>
    61f0:	a5 9f       	mul	r26, r21
    61f2:	90 0d       	add	r25, r0
    61f4:	b4 9f       	mul	r27, r20
    61f6:	90 0d       	add	r25, r0
    61f8:	a4 9f       	mul	r26, r20
    61fa:	80 0d       	add	r24, r0
    61fc:	91 1d       	adc	r25, r1
    61fe:	11 24       	eor	r1, r1
    6200:	08 95       	ret

00006202 <__prologue_saves__>:
    6202:	2f 92       	push	r2
    6204:	3f 92       	push	r3
    6206:	4f 92       	push	r4
    6208:	5f 92       	push	r5
    620a:	6f 92       	push	r6
    620c:	7f 92       	push	r7
    620e:	8f 92       	push	r8
    6210:	9f 92       	push	r9
    6212:	af 92       	push	r10
    6214:	bf 92       	push	r11
    6216:	cf 92       	push	r12
    6218:	df 92       	push	r13
    621a:	ef 92       	push	r14
    621c:	ff 92       	push	r15
    621e:	0f 93       	push	r16
    6220:	1f 93       	push	r17
    6222:	cf 93       	push	r28
    6224:	df 93       	push	r29
    6226:	cd b7       	in	r28, 0x3d	; 61
    6228:	de b7       	in	r29, 0x3e	; 62
    622a:	ca 1b       	sub	r28, r26
    622c:	db 0b       	sbc	r29, r27
    622e:	0f b6       	in	r0, 0x3f	; 63
    6230:	f8 94       	cli
    6232:	de bf       	out	0x3e, r29	; 62
    6234:	0f be       	out	0x3f, r0	; 63
    6236:	cd bf       	out	0x3d, r28	; 61
    6238:	09 94       	ijmp

0000623a <__epilogue_restores__>:
    623a:	2a 88       	ldd	r2, Y+18	; 0x12
    623c:	39 88       	ldd	r3, Y+17	; 0x11
    623e:	48 88       	ldd	r4, Y+16	; 0x10
    6240:	5f 84       	ldd	r5, Y+15	; 0x0f
    6242:	6e 84       	ldd	r6, Y+14	; 0x0e
    6244:	7d 84       	ldd	r7, Y+13	; 0x0d
    6246:	8c 84       	ldd	r8, Y+12	; 0x0c
    6248:	9b 84       	ldd	r9, Y+11	; 0x0b
    624a:	aa 84       	ldd	r10, Y+10	; 0x0a
    624c:	b9 84       	ldd	r11, Y+9	; 0x09
    624e:	c8 84       	ldd	r12, Y+8	; 0x08
    6250:	df 80       	ldd	r13, Y+7	; 0x07
    6252:	ee 80       	ldd	r14, Y+6	; 0x06
    6254:	fd 80       	ldd	r15, Y+5	; 0x05
    6256:	0c 81       	ldd	r16, Y+4	; 0x04
    6258:	1b 81       	ldd	r17, Y+3	; 0x03
    625a:	aa 81       	ldd	r26, Y+2	; 0x02
    625c:	b9 81       	ldd	r27, Y+1	; 0x01
    625e:	ce 0f       	add	r28, r30
    6260:	d1 1d       	adc	r29, r1
    6262:	0f b6       	in	r0, 0x3f	; 63
    6264:	f8 94       	cli
    6266:	de bf       	out	0x3e, r29	; 62
    6268:	0f be       	out	0x3f, r0	; 63
    626a:	cd bf       	out	0x3d, r28	; 61
    626c:	ed 01       	movw	r28, r26
    626e:	08 95       	ret

00006270 <__tablejump2__>:
    6270:	ee 0f       	add	r30, r30
    6272:	ff 1f       	adc	r31, r31

00006274 <__tablejump__>:
    6274:	05 90       	lpm	r0, Z+
    6276:	f4 91       	lpm	r31, Z+
    6278:	e0 2d       	mov	r30, r0
    627a:	09 94       	ijmp

0000627c <__clzsi2>:
    627c:	0e 94 47 31 	call	0x628e	; 0x628e <__clzhi2>
    6280:	84 ff       	sbrs	r24, 4
    6282:	08 95       	ret
    6284:	cb 01       	movw	r24, r22
    6286:	0e 94 47 31 	call	0x628e	; 0x628e <__clzhi2>
    628a:	80 5f       	subi	r24, 0xF0	; 240
    628c:	08 95       	ret

0000628e <__clzhi2>:
    628e:	aa 27       	eor	r26, r26
    6290:	99 23       	and	r25, r25
    6292:	29 f4       	brne	.+10     	; 0x629e <__clzhi2+0x10>
    6294:	a8 5f       	subi	r26, 0xF8	; 248
    6296:	98 2b       	or	r25, r24
    6298:	11 f4       	brne	.+4      	; 0x629e <__clzhi2+0x10>
    629a:	80 e1       	ldi	r24, 0x10	; 16
    629c:	08 95       	ret
    629e:	90 31       	cpi	r25, 0x10	; 16
    62a0:	18 f4       	brcc	.+6      	; 0x62a8 <__clzhi2+0x1a>
    62a2:	ad 5f       	subi	r26, 0xFD	; 253
    62a4:	92 95       	swap	r25
    62a6:	a3 95       	inc	r26
    62a8:	99 0f       	add	r25, r25
    62aa:	e8 f7       	brcc	.-6      	; 0x62a6 <__clzhi2+0x18>
    62ac:	8a 2f       	mov	r24, r26
    62ae:	99 27       	eor	r25, r25
    62b0:	08 95       	ret

000062b2 <__umulhisi3>:
    62b2:	a2 9f       	mul	r26, r18
    62b4:	b0 01       	movw	r22, r0
    62b6:	b3 9f       	mul	r27, r19
    62b8:	c0 01       	movw	r24, r0
    62ba:	a3 9f       	mul	r26, r19
    62bc:	01 d0       	rcall	.+2      	; 0x62c0 <__umulhisi3+0xe>
    62be:	b2 9f       	mul	r27, r18
    62c0:	70 0d       	add	r23, r0
    62c2:	81 1d       	adc	r24, r1
    62c4:	11 24       	eor	r1, r1
    62c6:	91 1d       	adc	r25, r1
    62c8:	08 95       	ret

000062ca <malloc>:
    62ca:	0f 93       	push	r16
    62cc:	1f 93       	push	r17
    62ce:	cf 93       	push	r28
    62d0:	df 93       	push	r29
    62d2:	82 30       	cpi	r24, 0x02	; 2
    62d4:	91 05       	cpc	r25, r1
    62d6:	10 f4       	brcc	.+4      	; 0x62dc <malloc+0x12>
    62d8:	82 e0       	ldi	r24, 0x02	; 2
    62da:	90 e0       	ldi	r25, 0x00	; 0
    62dc:	e0 91 f7 04 	lds	r30, 0x04F7
    62e0:	f0 91 f8 04 	lds	r31, 0x04F8
    62e4:	20 e0       	ldi	r18, 0x00	; 0
    62e6:	30 e0       	ldi	r19, 0x00	; 0
    62e8:	c0 e0       	ldi	r28, 0x00	; 0
    62ea:	d0 e0       	ldi	r29, 0x00	; 0
    62ec:	23 c0       	rjmp	.+70     	; 0x6334 <malloc+0x6a>
    62ee:	40 81       	ld	r20, Z
    62f0:	51 81       	ldd	r21, Z+1	; 0x01
    62f2:	48 17       	cp	r20, r24
    62f4:	59 07       	cpc	r21, r25
    62f6:	a8 f0       	brcs	.+42     	; 0x6322 <malloc+0x58>
    62f8:	48 17       	cp	r20, r24
    62fa:	59 07       	cpc	r21, r25
    62fc:	61 f4       	brne	.+24     	; 0x6316 <malloc+0x4c>
    62fe:	82 81       	ldd	r24, Z+2	; 0x02
    6300:	93 81       	ldd	r25, Z+3	; 0x03
    6302:	20 97       	sbiw	r28, 0x00	; 0
    6304:	19 f0       	breq	.+6      	; 0x630c <malloc+0x42>
    6306:	9b 83       	std	Y+3, r25	; 0x03
    6308:	8a 83       	std	Y+2, r24	; 0x02
    630a:	2e c0       	rjmp	.+92     	; 0x6368 <malloc+0x9e>
    630c:	90 93 f8 04 	sts	0x04F8, r25
    6310:	80 93 f7 04 	sts	0x04F7, r24
    6314:	29 c0       	rjmp	.+82     	; 0x6368 <malloc+0x9e>
    6316:	21 15       	cp	r18, r1
    6318:	31 05       	cpc	r19, r1
    631a:	29 f0       	breq	.+10     	; 0x6326 <malloc+0x5c>
    631c:	42 17       	cp	r20, r18
    631e:	53 07       	cpc	r21, r19
    6320:	10 f0       	brcs	.+4      	; 0x6326 <malloc+0x5c>
    6322:	a9 01       	movw	r20, r18
    6324:	02 c0       	rjmp	.+4      	; 0x632a <malloc+0x60>
    6326:	be 01       	movw	r22, r28
    6328:	df 01       	movw	r26, r30
    632a:	02 81       	ldd	r16, Z+2	; 0x02
    632c:	13 81       	ldd	r17, Z+3	; 0x03
    632e:	ef 01       	movw	r28, r30
    6330:	9a 01       	movw	r18, r20
    6332:	f8 01       	movw	r30, r16
    6334:	30 97       	sbiw	r30, 0x00	; 0
    6336:	d9 f6       	brne	.-74     	; 0x62ee <malloc+0x24>
    6338:	21 15       	cp	r18, r1
    633a:	31 05       	cpc	r19, r1
    633c:	09 f1       	breq	.+66     	; 0x6380 <malloc+0xb6>
    633e:	28 1b       	sub	r18, r24
    6340:	39 0b       	sbc	r19, r25
    6342:	24 30       	cpi	r18, 0x04	; 4
    6344:	31 05       	cpc	r19, r1
    6346:	90 f4       	brcc	.+36     	; 0x636c <malloc+0xa2>
    6348:	12 96       	adiw	r26, 0x02	; 2
    634a:	8d 91       	ld	r24, X+
    634c:	9c 91       	ld	r25, X
    634e:	13 97       	sbiw	r26, 0x03	; 3
    6350:	61 15       	cp	r22, r1
    6352:	71 05       	cpc	r23, r1
    6354:	21 f0       	breq	.+8      	; 0x635e <malloc+0x94>
    6356:	fb 01       	movw	r30, r22
    6358:	93 83       	std	Z+3, r25	; 0x03
    635a:	82 83       	std	Z+2, r24	; 0x02
    635c:	04 c0       	rjmp	.+8      	; 0x6366 <malloc+0x9c>
    635e:	90 93 f8 04 	sts	0x04F8, r25
    6362:	80 93 f7 04 	sts	0x04F7, r24
    6366:	fd 01       	movw	r30, r26
    6368:	32 96       	adiw	r30, 0x02	; 2
    636a:	44 c0       	rjmp	.+136    	; 0x63f4 <malloc+0x12a>
    636c:	fd 01       	movw	r30, r26
    636e:	e2 0f       	add	r30, r18
    6370:	f3 1f       	adc	r31, r19
    6372:	81 93       	st	Z+, r24
    6374:	91 93       	st	Z+, r25
    6376:	22 50       	subi	r18, 0x02	; 2
    6378:	31 09       	sbc	r19, r1
    637a:	2d 93       	st	X+, r18
    637c:	3c 93       	st	X, r19
    637e:	3a c0       	rjmp	.+116    	; 0x63f4 <malloc+0x12a>
    6380:	20 91 f5 04 	lds	r18, 0x04F5
    6384:	30 91 f6 04 	lds	r19, 0x04F6
    6388:	23 2b       	or	r18, r19
    638a:	41 f4       	brne	.+16     	; 0x639c <malloc+0xd2>
    638c:	20 91 10 01 	lds	r18, 0x0110
    6390:	30 91 11 01 	lds	r19, 0x0111
    6394:	30 93 f6 04 	sts	0x04F6, r19
    6398:	20 93 f5 04 	sts	0x04F5, r18
    639c:	20 91 0e 01 	lds	r18, 0x010E
    63a0:	30 91 0f 01 	lds	r19, 0x010F
    63a4:	21 15       	cp	r18, r1
    63a6:	31 05       	cpc	r19, r1
    63a8:	41 f4       	brne	.+16     	; 0x63ba <malloc+0xf0>
    63aa:	2d b7       	in	r18, 0x3d	; 61
    63ac:	3e b7       	in	r19, 0x3e	; 62
    63ae:	40 91 12 01 	lds	r20, 0x0112
    63b2:	50 91 13 01 	lds	r21, 0x0113
    63b6:	24 1b       	sub	r18, r20
    63b8:	35 0b       	sbc	r19, r21
    63ba:	e0 91 f5 04 	lds	r30, 0x04F5
    63be:	f0 91 f6 04 	lds	r31, 0x04F6
    63c2:	e2 17       	cp	r30, r18
    63c4:	f3 07       	cpc	r31, r19
    63c6:	a0 f4       	brcc	.+40     	; 0x63f0 <malloc+0x126>
    63c8:	2e 1b       	sub	r18, r30
    63ca:	3f 0b       	sbc	r19, r31
    63cc:	28 17       	cp	r18, r24
    63ce:	39 07       	cpc	r19, r25
    63d0:	78 f0       	brcs	.+30     	; 0x63f0 <malloc+0x126>
    63d2:	ac 01       	movw	r20, r24
    63d4:	4e 5f       	subi	r20, 0xFE	; 254
    63d6:	5f 4f       	sbci	r21, 0xFF	; 255
    63d8:	24 17       	cp	r18, r20
    63da:	35 07       	cpc	r19, r21
    63dc:	48 f0       	brcs	.+18     	; 0x63f0 <malloc+0x126>
    63de:	4e 0f       	add	r20, r30
    63e0:	5f 1f       	adc	r21, r31
    63e2:	50 93 f6 04 	sts	0x04F6, r21
    63e6:	40 93 f5 04 	sts	0x04F5, r20
    63ea:	81 93       	st	Z+, r24
    63ec:	91 93       	st	Z+, r25
    63ee:	02 c0       	rjmp	.+4      	; 0x63f4 <malloc+0x12a>
    63f0:	e0 e0       	ldi	r30, 0x00	; 0
    63f2:	f0 e0       	ldi	r31, 0x00	; 0
    63f4:	cf 01       	movw	r24, r30
    63f6:	df 91       	pop	r29
    63f8:	cf 91       	pop	r28
    63fa:	1f 91       	pop	r17
    63fc:	0f 91       	pop	r16
    63fe:	08 95       	ret

00006400 <free>:
    6400:	ef 92       	push	r14
    6402:	ff 92       	push	r15
    6404:	0f 93       	push	r16
    6406:	1f 93       	push	r17
    6408:	cf 93       	push	r28
    640a:	df 93       	push	r29
    640c:	00 97       	sbiw	r24, 0x00	; 0
    640e:	09 f4       	brne	.+2      	; 0x6412 <free+0x12>
    6410:	8e c0       	rjmp	.+284    	; 0x652e <free+0x12e>
    6412:	dc 01       	movw	r26, r24
    6414:	12 97       	sbiw	r26, 0x02	; 2
    6416:	13 96       	adiw	r26, 0x03	; 3
    6418:	1c 92       	st	X, r1
    641a:	1e 92       	st	-X, r1
    641c:	12 97       	sbiw	r26, 0x02	; 2
    641e:	e0 90 f7 04 	lds	r14, 0x04F7
    6422:	f0 90 f8 04 	lds	r15, 0x04F8
    6426:	e1 14       	cp	r14, r1
    6428:	f1 04       	cpc	r15, r1
    642a:	89 f4       	brne	.+34     	; 0x644e <free+0x4e>
    642c:	2d 91       	ld	r18, X+
    642e:	3c 91       	ld	r19, X
    6430:	11 97       	sbiw	r26, 0x01	; 1
    6432:	28 0f       	add	r18, r24
    6434:	39 1f       	adc	r19, r25
    6436:	80 91 f5 04 	lds	r24, 0x04F5
    643a:	90 91 f6 04 	lds	r25, 0x04F6
    643e:	82 17       	cp	r24, r18
    6440:	93 07       	cpc	r25, r19
    6442:	89 f5       	brne	.+98     	; 0x64a6 <free+0xa6>
    6444:	b0 93 f6 04 	sts	0x04F6, r27
    6448:	a0 93 f5 04 	sts	0x04F5, r26
    644c:	70 c0       	rjmp	.+224    	; 0x652e <free+0x12e>
    644e:	e7 01       	movw	r28, r14
    6450:	20 e0       	ldi	r18, 0x00	; 0
    6452:	30 e0       	ldi	r19, 0x00	; 0
    6454:	01 c0       	rjmp	.+2      	; 0x6458 <free+0x58>
    6456:	ea 01       	movw	r28, r20
    6458:	ca 17       	cp	r28, r26
    645a:	db 07       	cpc	r29, r27
    645c:	38 f4       	brcc	.+14     	; 0x646c <free+0x6c>
    645e:	4a 81       	ldd	r20, Y+2	; 0x02
    6460:	5b 81       	ldd	r21, Y+3	; 0x03
    6462:	9e 01       	movw	r18, r28
    6464:	41 15       	cp	r20, r1
    6466:	51 05       	cpc	r21, r1
    6468:	b1 f7       	brne	.-20     	; 0x6456 <free+0x56>
    646a:	22 c0       	rjmp	.+68     	; 0x64b0 <free+0xb0>
    646c:	ac 01       	movw	r20, r24
    646e:	42 50       	subi	r20, 0x02	; 2
    6470:	51 09       	sbc	r21, r1
    6472:	fa 01       	movw	r30, r20
    6474:	d3 83       	std	Z+3, r29	; 0x03
    6476:	c2 83       	std	Z+2, r28	; 0x02
    6478:	00 81       	ld	r16, Z
    647a:	11 81       	ldd	r17, Z+1	; 0x01
    647c:	bc 01       	movw	r22, r24
    647e:	60 0f       	add	r22, r16
    6480:	71 1f       	adc	r23, r17
    6482:	6c 17       	cp	r22, r28
    6484:	7d 07       	cpc	r23, r29
    6486:	61 f4       	brne	.+24     	; 0x64a0 <free+0xa0>
    6488:	68 81       	ld	r22, Y
    648a:	79 81       	ldd	r23, Y+1	; 0x01
    648c:	60 0f       	add	r22, r16
    648e:	71 1f       	adc	r23, r17
    6490:	6e 5f       	subi	r22, 0xFE	; 254
    6492:	7f 4f       	sbci	r23, 0xFF	; 255
    6494:	71 83       	std	Z+1, r23	; 0x01
    6496:	60 83       	st	Z, r22
    6498:	6a 81       	ldd	r22, Y+2	; 0x02
    649a:	7b 81       	ldd	r23, Y+3	; 0x03
    649c:	73 83       	std	Z+3, r23	; 0x03
    649e:	62 83       	std	Z+2, r22	; 0x02
    64a0:	21 15       	cp	r18, r1
    64a2:	31 05       	cpc	r19, r1
    64a4:	29 f4       	brne	.+10     	; 0x64b0 <free+0xb0>
    64a6:	b0 93 f8 04 	sts	0x04F8, r27
    64aa:	a0 93 f7 04 	sts	0x04F7, r26
    64ae:	3f c0       	rjmp	.+126    	; 0x652e <free+0x12e>
    64b0:	f9 01       	movw	r30, r18
    64b2:	b3 83       	std	Z+3, r27	; 0x03
    64b4:	a2 83       	std	Z+2, r26	; 0x02
    64b6:	e9 01       	movw	r28, r18
    64b8:	49 91       	ld	r20, Y+
    64ba:	59 91       	ld	r21, Y+
    64bc:	c4 0f       	add	r28, r20
    64be:	d5 1f       	adc	r29, r21
    64c0:	ac 17       	cp	r26, r28
    64c2:	bd 07       	cpc	r27, r29
    64c4:	71 f4       	brne	.+28     	; 0x64e2 <free+0xe2>
    64c6:	dc 01       	movw	r26, r24
    64c8:	9e 91       	ld	r25, -X
    64ca:	8e 91       	ld	r24, -X
    64cc:	84 0f       	add	r24, r20
    64ce:	95 1f       	adc	r25, r21
    64d0:	02 96       	adiw	r24, 0x02	; 2
    64d2:	91 83       	std	Z+1, r25	; 0x01
    64d4:	80 83       	st	Z, r24
    64d6:	12 96       	adiw	r26, 0x02	; 2
    64d8:	8d 91       	ld	r24, X+
    64da:	9c 91       	ld	r25, X
    64dc:	13 97       	sbiw	r26, 0x03	; 3
    64de:	93 83       	std	Z+3, r25	; 0x03
    64e0:	82 83       	std	Z+2, r24	; 0x02
    64e2:	a0 e0       	ldi	r26, 0x00	; 0
    64e4:	b0 e0       	ldi	r27, 0x00	; 0
    64e6:	02 c0       	rjmp	.+4      	; 0x64ec <free+0xec>
    64e8:	d7 01       	movw	r26, r14
    64ea:	7c 01       	movw	r14, r24
    64ec:	f7 01       	movw	r30, r14
    64ee:	82 81       	ldd	r24, Z+2	; 0x02
    64f0:	93 81       	ldd	r25, Z+3	; 0x03
    64f2:	00 97       	sbiw	r24, 0x00	; 0
    64f4:	c9 f7       	brne	.-14     	; 0x64e8 <free+0xe8>
    64f6:	c7 01       	movw	r24, r14
    64f8:	02 96       	adiw	r24, 0x02	; 2
    64fa:	20 81       	ld	r18, Z
    64fc:	31 81       	ldd	r19, Z+1	; 0x01
    64fe:	82 0f       	add	r24, r18
    6500:	93 1f       	adc	r25, r19
    6502:	20 91 f5 04 	lds	r18, 0x04F5
    6506:	30 91 f6 04 	lds	r19, 0x04F6
    650a:	28 17       	cp	r18, r24
    650c:	39 07       	cpc	r19, r25
    650e:	79 f4       	brne	.+30     	; 0x652e <free+0x12e>
    6510:	10 97       	sbiw	r26, 0x00	; 0
    6512:	29 f4       	brne	.+10     	; 0x651e <free+0x11e>
    6514:	10 92 f8 04 	sts	0x04F8, r1
    6518:	10 92 f7 04 	sts	0x04F7, r1
    651c:	04 c0       	rjmp	.+8      	; 0x6526 <free+0x126>
    651e:	13 96       	adiw	r26, 0x03	; 3
    6520:	1c 92       	st	X, r1
    6522:	1e 92       	st	-X, r1
    6524:	12 97       	sbiw	r26, 0x02	; 2
    6526:	f0 92 f6 04 	sts	0x04F6, r15
    652a:	e0 92 f5 04 	sts	0x04F5, r14
    652e:	cd b7       	in	r28, 0x3d	; 61
    6530:	de b7       	in	r29, 0x3e	; 62
    6532:	e6 e0       	ldi	r30, 0x06	; 6
    6534:	0c 94 29 31 	jmp	0x6252	; 0x6252 <__epilogue_restores__+0x18>

00006538 <do_random>:
    6538:	8f 92       	push	r8
    653a:	9f 92       	push	r9
    653c:	af 92       	push	r10
    653e:	bf 92       	push	r11
    6540:	cf 92       	push	r12
    6542:	df 92       	push	r13
    6544:	ef 92       	push	r14
    6546:	ff 92       	push	r15
    6548:	cf 93       	push	r28
    654a:	df 93       	push	r29
    654c:	ec 01       	movw	r28, r24
    654e:	68 81       	ld	r22, Y
    6550:	79 81       	ldd	r23, Y+1	; 0x01
    6552:	8a 81       	ldd	r24, Y+2	; 0x02
    6554:	9b 81       	ldd	r25, Y+3	; 0x03
    6556:	61 15       	cp	r22, r1
    6558:	71 05       	cpc	r23, r1
    655a:	81 05       	cpc	r24, r1
    655c:	91 05       	cpc	r25, r1
    655e:	21 f4       	brne	.+8      	; 0x6568 <do_random+0x30>
    6560:	64 e2       	ldi	r22, 0x24	; 36
    6562:	79 ed       	ldi	r23, 0xD9	; 217
    6564:	8b e5       	ldi	r24, 0x5B	; 91
    6566:	97 e0       	ldi	r25, 0x07	; 7
    6568:	2d e1       	ldi	r18, 0x1D	; 29
    656a:	33 ef       	ldi	r19, 0xF3	; 243
    656c:	41 e0       	ldi	r20, 0x01	; 1
    656e:	50 e0       	ldi	r21, 0x00	; 0
    6570:	0e 94 d3 30 	call	0x61a6	; 0x61a6 <__divmodsi4>
    6574:	49 01       	movw	r8, r18
    6576:	5a 01       	movw	r10, r20
    6578:	9b 01       	movw	r18, r22
    657a:	ac 01       	movw	r20, r24
    657c:	a7 ea       	ldi	r26, 0xA7	; 167
    657e:	b1 e4       	ldi	r27, 0x41	; 65
    6580:	0e 94 f6 30 	call	0x61ec	; 0x61ec <__muluhisi3>
    6584:	6b 01       	movw	r12, r22
    6586:	7c 01       	movw	r14, r24
    6588:	ac ee       	ldi	r26, 0xEC	; 236
    658a:	b4 ef       	ldi	r27, 0xF4	; 244
    658c:	a5 01       	movw	r20, r10
    658e:	94 01       	movw	r18, r8
    6590:	0e 94 41 35 	call	0x6a82	; 0x6a82 <__mulohisi3>
    6594:	c6 0e       	add	r12, r22
    6596:	d7 1e       	adc	r13, r23
    6598:	e8 1e       	adc	r14, r24
    659a:	f9 1e       	adc	r15, r25
    659c:	f7 fe       	sbrs	r15, 7
    659e:	06 c0       	rjmp	.+12     	; 0x65ac <do_random+0x74>
    65a0:	81 e0       	ldi	r24, 0x01	; 1
    65a2:	c8 1a       	sub	r12, r24
    65a4:	d1 08       	sbc	r13, r1
    65a6:	e1 08       	sbc	r14, r1
    65a8:	80 e8       	ldi	r24, 0x80	; 128
    65aa:	f8 0a       	sbc	r15, r24
    65ac:	c8 82       	st	Y, r12
    65ae:	d9 82       	std	Y+1, r13	; 0x01
    65b0:	ea 82       	std	Y+2, r14	; 0x02
    65b2:	fb 82       	std	Y+3, r15	; 0x03
    65b4:	e8 94       	clt
    65b6:	f7 f8       	bld	r15, 7
    65b8:	b6 01       	movw	r22, r12
    65ba:	c7 01       	movw	r24, r14
    65bc:	df 91       	pop	r29
    65be:	cf 91       	pop	r28
    65c0:	ff 90       	pop	r15
    65c2:	ef 90       	pop	r14
    65c4:	df 90       	pop	r13
    65c6:	cf 90       	pop	r12
    65c8:	bf 90       	pop	r11
    65ca:	af 90       	pop	r10
    65cc:	9f 90       	pop	r9
    65ce:	8f 90       	pop	r8
    65d0:	08 95       	ret

000065d2 <random_r>:
    65d2:	0e 94 9c 32 	call	0x6538	; 0x6538 <do_random>
    65d6:	08 95       	ret

000065d8 <random>:
    65d8:	84 e1       	ldi	r24, 0x14	; 20
    65da:	91 e0       	ldi	r25, 0x01	; 1
    65dc:	0e 94 9c 32 	call	0x6538	; 0x6538 <do_random>
    65e0:	08 95       	ret

000065e2 <srandom>:
    65e2:	60 93 14 01 	sts	0x0114, r22
    65e6:	70 93 15 01 	sts	0x0115, r23
    65ea:	80 93 16 01 	sts	0x0116, r24
    65ee:	90 93 17 01 	sts	0x0117, r25
    65f2:	08 95       	ret

000065f4 <realloc>:
    65f4:	a0 e0       	ldi	r26, 0x00	; 0
    65f6:	b0 e0       	ldi	r27, 0x00	; 0
    65f8:	e0 e0       	ldi	r30, 0x00	; 0
    65fa:	f3 e3       	ldi	r31, 0x33	; 51
    65fc:	0c 94 07 31 	jmp	0x620e	; 0x620e <__prologue_saves__+0xc>
    6600:	ec 01       	movw	r28, r24
    6602:	00 97       	sbiw	r24, 0x00	; 0
    6604:	29 f4       	brne	.+10     	; 0x6610 <realloc+0x1c>
    6606:	cb 01       	movw	r24, r22
    6608:	0e 94 65 31 	call	0x62ca	; 0x62ca <malloc>
    660c:	ec 01       	movw	r28, r24
    660e:	b4 c0       	rjmp	.+360    	; 0x6778 <realloc+0x184>
    6610:	dc 01       	movw	r26, r24
    6612:	a6 0f       	add	r26, r22
    6614:	b7 1f       	adc	r27, r23
    6616:	fc 01       	movw	r30, r24
    6618:	32 97       	sbiw	r30, 0x02	; 2
    661a:	ae 17       	cp	r26, r30
    661c:	bf 07       	cpc	r27, r31
    661e:	18 f4       	brcc	.+6      	; 0x6626 <realloc+0x32>
    6620:	c0 e0       	ldi	r28, 0x00	; 0
    6622:	d0 e0       	ldi	r29, 0x00	; 0
    6624:	a9 c0       	rjmp	.+338    	; 0x6778 <realloc+0x184>
    6626:	00 81       	ld	r16, Z
    6628:	11 81       	ldd	r17, Z+1	; 0x01
    662a:	06 17       	cp	r16, r22
    662c:	17 07       	cpc	r17, r23
    662e:	b0 f0       	brcs	.+44     	; 0x665c <realloc+0x68>
    6630:	05 30       	cpi	r16, 0x05	; 5
    6632:	11 05       	cpc	r17, r1
    6634:	08 f4       	brcc	.+2      	; 0x6638 <realloc+0x44>
    6636:	a0 c0       	rjmp	.+320    	; 0x6778 <realloc+0x184>
    6638:	c8 01       	movw	r24, r16
    663a:	04 97       	sbiw	r24, 0x04	; 4
    663c:	86 17       	cp	r24, r22
    663e:	97 07       	cpc	r25, r23
    6640:	08 f4       	brcc	.+2      	; 0x6644 <realloc+0x50>
    6642:	9a c0       	rjmp	.+308    	; 0x6778 <realloc+0x184>
    6644:	02 50       	subi	r16, 0x02	; 2
    6646:	11 09       	sbc	r17, r1
    6648:	06 1b       	sub	r16, r22
    664a:	17 0b       	sbc	r17, r23
    664c:	0d 93       	st	X+, r16
    664e:	1d 93       	st	X+, r17
    6650:	71 83       	std	Z+1, r23	; 0x01
    6652:	60 83       	st	Z, r22
    6654:	cd 01       	movw	r24, r26
    6656:	0e 94 00 32 	call	0x6400	; 0x6400 <free>
    665a:	8e c0       	rjmp	.+284    	; 0x6778 <realloc+0x184>
    665c:	6b 01       	movw	r12, r22
    665e:	c0 1a       	sub	r12, r16
    6660:	d1 0a       	sbc	r13, r17
    6662:	7c 01       	movw	r14, r24
    6664:	e0 0e       	add	r14, r16
    6666:	f1 1e       	adc	r15, r17
    6668:	e0 91 f7 04 	lds	r30, 0x04F7
    666c:	f0 91 f8 04 	lds	r31, 0x04F8
    6670:	20 e0       	ldi	r18, 0x00	; 0
    6672:	30 e0       	ldi	r19, 0x00	; 0
    6674:	80 e0       	ldi	r24, 0x00	; 0
    6676:	90 e0       	ldi	r25, 0x00	; 0
    6678:	48 c0       	rjmp	.+144    	; 0x670a <realloc+0x116>
    667a:	ee 15       	cp	r30, r14
    667c:	ff 05       	cpc	r31, r15
    667e:	d1 f5       	brne	.+116    	; 0x66f4 <realloc+0x100>
    6680:	80 80       	ld	r8, Z
    6682:	91 80       	ldd	r9, Z+1	; 0x01
    6684:	54 01       	movw	r10, r8
    6686:	42 e0       	ldi	r20, 0x02	; 2
    6688:	a4 0e       	add	r10, r20
    668a:	b1 1c       	adc	r11, r1
    668c:	ac 14       	cp	r10, r12
    668e:	bd 04       	cpc	r11, r13
    6690:	88 f1       	brcs	.+98     	; 0x66f4 <realloc+0x100>
    6692:	74 01       	movw	r14, r8
    6694:	ec 18       	sub	r14, r12
    6696:	fd 08       	sbc	r15, r13
    6698:	67 01       	movw	r12, r14
    669a:	22 e0       	ldi	r18, 0x02	; 2
    669c:	c2 0e       	add	r12, r18
    669e:	d1 1c       	adc	r13, r1
    66a0:	9e 01       	movw	r18, r28
    66a2:	22 50       	subi	r18, 0x02	; 2
    66a4:	31 09       	sbc	r19, r1
    66a6:	45 e0       	ldi	r20, 0x05	; 5
    66a8:	c4 16       	cp	r12, r20
    66aa:	d1 04       	cpc	r13, r1
    66ac:	78 f0       	brcs	.+30     	; 0x66cc <realloc+0xd8>
    66ae:	42 81       	ldd	r20, Z+2	; 0x02
    66b0:	53 81       	ldd	r21, Z+3	; 0x03
    66b2:	13 96       	adiw	r26, 0x03	; 3
    66b4:	5c 93       	st	X, r21
    66b6:	4e 93       	st	-X, r20
    66b8:	12 97       	sbiw	r26, 0x02	; 2
    66ba:	11 96       	adiw	r26, 0x01	; 1
    66bc:	fc 92       	st	X, r15
    66be:	ee 92       	st	-X, r14
    66c0:	f9 01       	movw	r30, r18
    66c2:	71 83       	std	Z+1, r23	; 0x01
    66c4:	60 83       	st	Z, r22
    66c6:	3a 2f       	mov	r19, r26
    66c8:	2b 2f       	mov	r18, r27
    66ca:	09 c0       	rjmp	.+18     	; 0x66de <realloc+0xea>
    66cc:	0e 5f       	subi	r16, 0xFE	; 254
    66ce:	1f 4f       	sbci	r17, 0xFF	; 255
    66d0:	08 0d       	add	r16, r8
    66d2:	19 1d       	adc	r17, r9
    66d4:	d9 01       	movw	r26, r18
    66d6:	0d 93       	st	X+, r16
    66d8:	1c 93       	st	X, r17
    66da:	32 81       	ldd	r19, Z+2	; 0x02
    66dc:	23 81       	ldd	r18, Z+3	; 0x03
    66de:	00 97       	sbiw	r24, 0x00	; 0
    66e0:	21 f0       	breq	.+8      	; 0x66ea <realloc+0xf6>
    66e2:	fc 01       	movw	r30, r24
    66e4:	32 83       	std	Z+2, r19	; 0x02
    66e6:	23 83       	std	Z+3, r18	; 0x03
    66e8:	47 c0       	rjmp	.+142    	; 0x6778 <realloc+0x184>
    66ea:	30 93 f7 04 	sts	0x04F7, r19
    66ee:	20 93 f8 04 	sts	0x04F8, r18
    66f2:	42 c0       	rjmp	.+132    	; 0x6778 <realloc+0x184>
    66f4:	80 81       	ld	r24, Z
    66f6:	91 81       	ldd	r25, Z+1	; 0x01
    66f8:	28 17       	cp	r18, r24
    66fa:	39 07       	cpc	r19, r25
    66fc:	08 f4       	brcc	.+2      	; 0x6700 <realloc+0x10c>
    66fe:	9c 01       	movw	r18, r24
    6700:	52 81       	ldd	r21, Z+2	; 0x02
    6702:	43 81       	ldd	r20, Z+3	; 0x03
    6704:	cf 01       	movw	r24, r30
    6706:	e5 2f       	mov	r30, r21
    6708:	f4 2f       	mov	r31, r20
    670a:	30 97       	sbiw	r30, 0x00	; 0
    670c:	09 f0       	breq	.+2      	; 0x6710 <realloc+0x11c>
    670e:	b5 cf       	rjmp	.-150    	; 0x667a <realloc+0x86>
    6710:	80 91 f5 04 	lds	r24, 0x04F5
    6714:	90 91 f6 04 	lds	r25, 0x04F6
    6718:	8e 15       	cp	r24, r14
    671a:	9f 05       	cpc	r25, r15
    671c:	f1 f4       	brne	.+60     	; 0x675a <realloc+0x166>
    671e:	26 17       	cp	r18, r22
    6720:	37 07       	cpc	r19, r23
    6722:	d8 f4       	brcc	.+54     	; 0x675a <realloc+0x166>
    6724:	80 91 0e 01 	lds	r24, 0x010E
    6728:	90 91 0f 01 	lds	r25, 0x010F
    672c:	00 97       	sbiw	r24, 0x00	; 0
    672e:	41 f4       	brne	.+16     	; 0x6740 <realloc+0x14c>
    6730:	8d b7       	in	r24, 0x3d	; 61
    6732:	9e b7       	in	r25, 0x3e	; 62
    6734:	20 91 12 01 	lds	r18, 0x0112
    6738:	30 91 13 01 	lds	r19, 0x0113
    673c:	82 1b       	sub	r24, r18
    673e:	93 0b       	sbc	r25, r19
    6740:	a8 17       	cp	r26, r24
    6742:	b9 07       	cpc	r27, r25
    6744:	08 f0       	brcs	.+2      	; 0x6748 <realloc+0x154>
    6746:	6c cf       	rjmp	.-296    	; 0x6620 <realloc+0x2c>
    6748:	b0 93 f6 04 	sts	0x04F6, r27
    674c:	a0 93 f5 04 	sts	0x04F5, r26
    6750:	fe 01       	movw	r30, r28
    6752:	32 97       	sbiw	r30, 0x02	; 2
    6754:	71 83       	std	Z+1, r23	; 0x01
    6756:	60 83       	st	Z, r22
    6758:	0f c0       	rjmp	.+30     	; 0x6778 <realloc+0x184>
    675a:	cb 01       	movw	r24, r22
    675c:	0e 94 65 31 	call	0x62ca	; 0x62ca <malloc>
    6760:	7c 01       	movw	r14, r24
    6762:	00 97       	sbiw	r24, 0x00	; 0
    6764:	09 f4       	brne	.+2      	; 0x6768 <realloc+0x174>
    6766:	5c cf       	rjmp	.-328    	; 0x6620 <realloc+0x2c>
    6768:	a8 01       	movw	r20, r16
    676a:	be 01       	movw	r22, r28
    676c:	0e 94 0e 34 	call	0x681c	; 0x681c <memcpy>
    6770:	ce 01       	movw	r24, r28
    6772:	0e 94 00 32 	call	0x6400	; 0x6400 <free>
    6776:	e7 01       	movw	r28, r14
    6778:	ce 01       	movw	r24, r28
    677a:	cd b7       	in	r28, 0x3d	; 61
    677c:	de b7       	in	r29, 0x3e	; 62
    677e:	ec e0       	ldi	r30, 0x0C	; 12
    6780:	0c 94 23 31 	jmp	0x6246	; 0x6246 <__epilogue_restores__+0xc>

00006784 <atol>:
    6784:	1f 93       	push	r17
    6786:	fc 01       	movw	r30, r24
    6788:	99 27       	eor	r25, r25
    678a:	88 27       	eor	r24, r24
    678c:	bc 01       	movw	r22, r24
    678e:	e8 94       	clt
    6790:	11 91       	ld	r17, Z+
    6792:	10 32       	cpi	r17, 0x20	; 32
    6794:	e9 f3       	breq	.-6      	; 0x6790 <atol+0xc>
    6796:	19 30       	cpi	r17, 0x09	; 9
    6798:	10 f0       	brcs	.+4      	; 0x679e <atol+0x1a>
    679a:	1e 30       	cpi	r17, 0x0E	; 14
    679c:	c8 f3       	brcs	.-14     	; 0x6790 <atol+0xc>
    679e:	1b 32       	cpi	r17, 0x2B	; 43
    67a0:	51 f0       	breq	.+20     	; 0x67b6 <atol+0x32>
    67a2:	1d 32       	cpi	r17, 0x2D	; 45
    67a4:	49 f4       	brne	.+18     	; 0x67b8 <atol+0x34>
    67a6:	68 94       	set
    67a8:	06 c0       	rjmp	.+12     	; 0x67b6 <atol+0x32>
    67aa:	0e 94 db 34 	call	0x69b6	; 0x69b6 <__mulsi_const_10>
    67ae:	61 0f       	add	r22, r17
    67b0:	71 1d       	adc	r23, r1
    67b2:	81 1d       	adc	r24, r1
    67b4:	91 1d       	adc	r25, r1
    67b6:	11 91       	ld	r17, Z+
    67b8:	10 53       	subi	r17, 0x30	; 48
    67ba:	1a 30       	cpi	r17, 0x0A	; 10
    67bc:	b0 f3       	brcs	.-20     	; 0x67aa <atol+0x26>
    67be:	3e f4       	brtc	.+14     	; 0x67ce <atol+0x4a>
    67c0:	90 95       	com	r25
    67c2:	80 95       	com	r24
    67c4:	70 95       	com	r23
    67c6:	61 95       	neg	r22
    67c8:	7f 4f       	sbci	r23, 0xFF	; 255
    67ca:	8f 4f       	sbci	r24, 0xFF	; 255
    67cc:	9f 4f       	sbci	r25, 0xFF	; 255
    67ce:	1f 91       	pop	r17
    67d0:	08 95       	ret

000067d2 <isspace>:
    67d2:	91 11       	cpse	r25, r1
    67d4:	40 c1       	rjmp	.+640    	; 0x6a56 <__ctype_isfalse>
    67d6:	80 32       	cpi	r24, 0x20	; 32
    67d8:	19 f0       	breq	.+6      	; 0x67e0 <isspace+0xe>
    67da:	89 50       	subi	r24, 0x09	; 9
    67dc:	85 50       	subi	r24, 0x05	; 5
    67de:	d0 f7       	brcc	.-12     	; 0x67d4 <isspace+0x2>
    67e0:	08 95       	ret

000067e2 <tolower>:
    67e2:	91 11       	cpse	r25, r1
    67e4:	08 95       	ret
    67e6:	81 54       	subi	r24, 0x41	; 65
    67e8:	8a 51       	subi	r24, 0x1A	; 26
    67ea:	08 f4       	brcc	.+2      	; 0x67ee <tolower+0xc>
    67ec:	80 5e       	subi	r24, 0xE0	; 224
    67ee:	85 5a       	subi	r24, 0xA5	; 165
    67f0:	08 95       	ret

000067f2 <toupper>:
    67f2:	91 11       	cpse	r25, r1
    67f4:	08 95       	ret
    67f6:	81 56       	subi	r24, 0x61	; 97
    67f8:	8a 51       	subi	r24, 0x1A	; 26
    67fa:	08 f4       	brcc	.+2      	; 0x67fe <toupper+0xc>
    67fc:	80 52       	subi	r24, 0x20	; 32
    67fe:	85 58       	subi	r24, 0x85	; 133
    6800:	08 95       	ret

00006802 <memcmp>:
    6802:	fb 01       	movw	r30, r22
    6804:	dc 01       	movw	r26, r24
    6806:	04 c0       	rjmp	.+8      	; 0x6810 <memcmp+0xe>
    6808:	8d 91       	ld	r24, X+
    680a:	01 90       	ld	r0, Z+
    680c:	80 19       	sub	r24, r0
    680e:	21 f4       	brne	.+8      	; 0x6818 <memcmp+0x16>
    6810:	41 50       	subi	r20, 0x01	; 1
    6812:	50 40       	sbci	r21, 0x00	; 0
    6814:	c8 f7       	brcc	.-14     	; 0x6808 <memcmp+0x6>
    6816:	88 1b       	sub	r24, r24
    6818:	99 0b       	sbc	r25, r25
    681a:	08 95       	ret

0000681c <memcpy>:
    681c:	fb 01       	movw	r30, r22
    681e:	dc 01       	movw	r26, r24
    6820:	02 c0       	rjmp	.+4      	; 0x6826 <memcpy+0xa>
    6822:	01 90       	ld	r0, Z+
    6824:	0d 92       	st	X+, r0
    6826:	41 50       	subi	r20, 0x01	; 1
    6828:	50 40       	sbci	r21, 0x00	; 0
    682a:	d8 f7       	brcc	.-10     	; 0x6822 <memcpy+0x6>
    682c:	08 95       	ret

0000682e <memmove>:
    682e:	68 17       	cp	r22, r24
    6830:	79 07       	cpc	r23, r25
    6832:	68 f4       	brcc	.+26     	; 0x684e <memmove+0x20>
    6834:	fb 01       	movw	r30, r22
    6836:	dc 01       	movw	r26, r24
    6838:	e4 0f       	add	r30, r20
    683a:	f5 1f       	adc	r31, r21
    683c:	a4 0f       	add	r26, r20
    683e:	b5 1f       	adc	r27, r21
    6840:	02 c0       	rjmp	.+4      	; 0x6846 <memmove+0x18>
    6842:	02 90       	ld	r0, -Z
    6844:	0e 92       	st	-X, r0
    6846:	41 50       	subi	r20, 0x01	; 1
    6848:	50 40       	sbci	r21, 0x00	; 0
    684a:	d8 f7       	brcc	.-10     	; 0x6842 <memmove+0x14>
    684c:	08 95       	ret
    684e:	0c 94 0e 34 	jmp	0x681c	; 0x681c <memcpy>

00006852 <strchr>:
    6852:	fc 01       	movw	r30, r24
    6854:	81 91       	ld	r24, Z+
    6856:	86 17       	cp	r24, r22
    6858:	21 f0       	breq	.+8      	; 0x6862 <strchr+0x10>
    685a:	88 23       	and	r24, r24
    685c:	d9 f7       	brne	.-10     	; 0x6854 <strchr+0x2>
    685e:	99 27       	eor	r25, r25
    6860:	08 95       	ret
    6862:	31 97       	sbiw	r30, 0x01	; 1
    6864:	cf 01       	movw	r24, r30
    6866:	08 95       	ret

00006868 <strcmp>:
    6868:	fb 01       	movw	r30, r22
    686a:	dc 01       	movw	r26, r24
    686c:	8d 91       	ld	r24, X+
    686e:	01 90       	ld	r0, Z+
    6870:	80 19       	sub	r24, r0
    6872:	01 10       	cpse	r0, r1
    6874:	d9 f3       	breq	.-10     	; 0x686c <strcmp+0x4>
    6876:	99 0b       	sbc	r25, r25
    6878:	08 95       	ret

0000687a <strcpy>:
    687a:	fb 01       	movw	r30, r22
    687c:	dc 01       	movw	r26, r24
    687e:	01 90       	ld	r0, Z+
    6880:	0d 92       	st	X+, r0
    6882:	00 20       	and	r0, r0
    6884:	e1 f7       	brne	.-8      	; 0x687e <strcpy+0x4>
    6886:	08 95       	ret

00006888 <strncmp>:
    6888:	fb 01       	movw	r30, r22
    688a:	dc 01       	movw	r26, r24
    688c:	41 50       	subi	r20, 0x01	; 1
    688e:	50 40       	sbci	r21, 0x00	; 0
    6890:	30 f0       	brcs	.+12     	; 0x689e <strncmp+0x16>
    6892:	8d 91       	ld	r24, X+
    6894:	01 90       	ld	r0, Z+
    6896:	80 19       	sub	r24, r0
    6898:	19 f4       	brne	.+6      	; 0x68a0 <strncmp+0x18>
    689a:	00 20       	and	r0, r0
    689c:	b9 f7       	brne	.-18     	; 0x688c <strncmp+0x4>
    689e:	88 1b       	sub	r24, r24
    68a0:	99 0b       	sbc	r25, r25
    68a2:	08 95       	ret

000068a4 <strncpy>:
    68a4:	fb 01       	movw	r30, r22
    68a6:	dc 01       	movw	r26, r24
    68a8:	41 50       	subi	r20, 0x01	; 1
    68aa:	50 40       	sbci	r21, 0x00	; 0
    68ac:	48 f0       	brcs	.+18     	; 0x68c0 <strncpy+0x1c>
    68ae:	01 90       	ld	r0, Z+
    68b0:	0d 92       	st	X+, r0
    68b2:	00 20       	and	r0, r0
    68b4:	c9 f7       	brne	.-14     	; 0x68a8 <strncpy+0x4>
    68b6:	01 c0       	rjmp	.+2      	; 0x68ba <strncpy+0x16>
    68b8:	1d 92       	st	X+, r1
    68ba:	41 50       	subi	r20, 0x01	; 1
    68bc:	50 40       	sbci	r21, 0x00	; 0
    68be:	e0 f7       	brcc	.-8      	; 0x68b8 <strncpy+0x14>
    68c0:	08 95       	ret

000068c2 <strrchr>:
    68c2:	fc 01       	movw	r30, r24
    68c4:	81 e0       	ldi	r24, 0x01	; 1
    68c6:	90 e0       	ldi	r25, 0x00	; 0
    68c8:	01 90       	ld	r0, Z+
    68ca:	06 16       	cp	r0, r22
    68cc:	09 f4       	brne	.+2      	; 0x68d0 <strrchr+0xe>
    68ce:	cf 01       	movw	r24, r30
    68d0:	00 20       	and	r0, r0
    68d2:	d1 f7       	brne	.-12     	; 0x68c8 <strrchr+0x6>
    68d4:	01 97       	sbiw	r24, 0x01	; 1
    68d6:	08 95       	ret

000068d8 <strstr>:
    68d8:	fb 01       	movw	r30, r22
    68da:	51 91       	ld	r21, Z+
    68dc:	55 23       	and	r21, r21
    68de:	a9 f0       	breq	.+42     	; 0x690a <strstr+0x32>
    68e0:	bf 01       	movw	r22, r30
    68e2:	dc 01       	movw	r26, r24
    68e4:	4d 91       	ld	r20, X+
    68e6:	45 17       	cp	r20, r21
    68e8:	41 11       	cpse	r20, r1
    68ea:	e1 f7       	brne	.-8      	; 0x68e4 <strstr+0xc>
    68ec:	59 f4       	brne	.+22     	; 0x6904 <strstr+0x2c>
    68ee:	cd 01       	movw	r24, r26
    68f0:	01 90       	ld	r0, Z+
    68f2:	00 20       	and	r0, r0
    68f4:	49 f0       	breq	.+18     	; 0x6908 <strstr+0x30>
    68f6:	4d 91       	ld	r20, X+
    68f8:	40 15       	cp	r20, r0
    68fa:	41 11       	cpse	r20, r1
    68fc:	c9 f3       	breq	.-14     	; 0x68f0 <strstr+0x18>
    68fe:	fb 01       	movw	r30, r22
    6900:	41 11       	cpse	r20, r1
    6902:	ef cf       	rjmp	.-34     	; 0x68e2 <strstr+0xa>
    6904:	81 e0       	ldi	r24, 0x01	; 1
    6906:	90 e0       	ldi	r25, 0x00	; 0
    6908:	01 97       	sbiw	r24, 0x01	; 1
    690a:	08 95       	ret

0000690c <itoa>:
    690c:	fb 01       	movw	r30, r22
    690e:	9f 01       	movw	r18, r30
    6910:	e8 94       	clt
    6912:	42 30       	cpi	r20, 0x02	; 2
    6914:	c4 f0       	brlt	.+48     	; 0x6946 <itoa+0x3a>
    6916:	45 32       	cpi	r20, 0x25	; 37
    6918:	b4 f4       	brge	.+44     	; 0x6946 <itoa+0x3a>
    691a:	4a 30       	cpi	r20, 0x0A	; 10
    691c:	29 f4       	brne	.+10     	; 0x6928 <itoa+0x1c>
    691e:	97 fb       	bst	r25, 7
    6920:	1e f4       	brtc	.+6      	; 0x6928 <itoa+0x1c>
    6922:	90 95       	com	r25
    6924:	81 95       	neg	r24
    6926:	9f 4f       	sbci	r25, 0xFF	; 255
    6928:	64 2f       	mov	r22, r20
    692a:	77 27       	eor	r23, r23
    692c:	0e 94 46 35 	call	0x6a8c	; 0x6a8c <__udivmodhi4>
    6930:	80 5d       	subi	r24, 0xD0	; 208
    6932:	8a 33       	cpi	r24, 0x3A	; 58
    6934:	0c f0       	brlt	.+2      	; 0x6938 <itoa+0x2c>
    6936:	89 5d       	subi	r24, 0xD9	; 217
    6938:	81 93       	st	Z+, r24
    693a:	cb 01       	movw	r24, r22
    693c:	00 97       	sbiw	r24, 0x00	; 0
    693e:	a1 f7       	brne	.-24     	; 0x6928 <itoa+0x1c>
    6940:	16 f4       	brtc	.+4      	; 0x6946 <itoa+0x3a>
    6942:	5d e2       	ldi	r21, 0x2D	; 45
    6944:	51 93       	st	Z+, r21
    6946:	10 82       	st	Z, r1
    6948:	c9 01       	movw	r24, r18
    694a:	0c 94 2e 35 	jmp	0x6a5c	; 0x6a5c <strrev>

0000694e <ltoa>:
    694e:	fa 01       	movw	r30, r20
    6950:	cf 93       	push	r28
    6952:	ff 93       	push	r31
    6954:	ef 93       	push	r30
    6956:	22 30       	cpi	r18, 0x02	; 2
    6958:	44 f1       	brlt	.+80     	; 0x69aa <ltoa+0x5c>
    695a:	25 32       	cpi	r18, 0x25	; 37
    695c:	34 f5       	brge	.+76     	; 0x69aa <ltoa+0x5c>
    695e:	c2 2f       	mov	r28, r18
    6960:	e8 94       	clt
    6962:	ca 30       	cpi	r28, 0x0A	; 10
    6964:	49 f4       	brne	.+18     	; 0x6978 <ltoa+0x2a>
    6966:	97 fb       	bst	r25, 7
    6968:	3e f4       	brtc	.+14     	; 0x6978 <ltoa+0x2a>
    696a:	90 95       	com	r25
    696c:	80 95       	com	r24
    696e:	70 95       	com	r23
    6970:	61 95       	neg	r22
    6972:	7f 4f       	sbci	r23, 0xFF	; 255
    6974:	8f 4f       	sbci	r24, 0xFF	; 255
    6976:	9f 4f       	sbci	r25, 0xFF	; 255
    6978:	2c 2f       	mov	r18, r28
    697a:	33 27       	eor	r19, r19
    697c:	44 27       	eor	r20, r20
    697e:	55 27       	eor	r21, r21
    6980:	ff 93       	push	r31
    6982:	ef 93       	push	r30
    6984:	0e 94 b1 30 	call	0x6162	; 0x6162 <__udivmodsi4>
    6988:	ef 91       	pop	r30
    698a:	ff 91       	pop	r31
    698c:	60 5d       	subi	r22, 0xD0	; 208
    698e:	6a 33       	cpi	r22, 0x3A	; 58
    6990:	0c f0       	brlt	.+2      	; 0x6994 <ltoa+0x46>
    6992:	69 5d       	subi	r22, 0xD9	; 217
    6994:	61 93       	st	Z+, r22
    6996:	b9 01       	movw	r22, r18
    6998:	ca 01       	movw	r24, r20
    699a:	60 50       	subi	r22, 0x00	; 0
    699c:	70 40       	sbci	r23, 0x00	; 0
    699e:	80 40       	sbci	r24, 0x00	; 0
    69a0:	90 40       	sbci	r25, 0x00	; 0
    69a2:	51 f7       	brne	.-44     	; 0x6978 <ltoa+0x2a>
    69a4:	16 f4       	brtc	.+4      	; 0x69aa <ltoa+0x5c>
    69a6:	cd e2       	ldi	r28, 0x2D	; 45
    69a8:	c1 93       	st	Z+, r28
    69aa:	10 82       	st	Z, r1
    69ac:	8f 91       	pop	r24
    69ae:	9f 91       	pop	r25
    69b0:	cf 91       	pop	r28
    69b2:	0c 94 2e 35 	jmp	0x6a5c	; 0x6a5c <strrev>

000069b6 <__mulsi_const_10>:
    69b6:	59 2f       	mov	r21, r25
    69b8:	48 2f       	mov	r20, r24
    69ba:	37 2f       	mov	r19, r23
    69bc:	26 2f       	mov	r18, r22
    69be:	66 0f       	add	r22, r22
    69c0:	77 1f       	adc	r23, r23
    69c2:	88 1f       	adc	r24, r24
    69c4:	99 1f       	adc	r25, r25
    69c6:	66 0f       	add	r22, r22
    69c8:	77 1f       	adc	r23, r23
    69ca:	88 1f       	adc	r24, r24
    69cc:	99 1f       	adc	r25, r25
    69ce:	62 0f       	add	r22, r18
    69d0:	73 1f       	adc	r23, r19
    69d2:	84 1f       	adc	r24, r20
    69d4:	95 1f       	adc	r25, r21
    69d6:	66 0f       	add	r22, r22
    69d8:	77 1f       	adc	r23, r23
    69da:	88 1f       	adc	r24, r24
    69dc:	99 1f       	adc	r25, r25
    69de:	08 95       	ret

000069e0 <ultoa>:
    69e0:	fa 01       	movw	r30, r20
    69e2:	cf 93       	push	r28
    69e4:	ff 93       	push	r31
    69e6:	ef 93       	push	r30
    69e8:	22 30       	cpi	r18, 0x02	; 2
    69ea:	cc f0       	brlt	.+50     	; 0x6a1e <ultoa+0x3e>
    69ec:	25 32       	cpi	r18, 0x25	; 37
    69ee:	bc f4       	brge	.+46     	; 0x6a1e <ultoa+0x3e>
    69f0:	c2 2f       	mov	r28, r18
    69f2:	2c 2f       	mov	r18, r28
    69f4:	33 27       	eor	r19, r19
    69f6:	44 27       	eor	r20, r20
    69f8:	55 27       	eor	r21, r21
    69fa:	ff 93       	push	r31
    69fc:	ef 93       	push	r30
    69fe:	0e 94 b1 30 	call	0x6162	; 0x6162 <__udivmodsi4>
    6a02:	ef 91       	pop	r30
    6a04:	ff 91       	pop	r31
    6a06:	60 5d       	subi	r22, 0xD0	; 208
    6a08:	6a 33       	cpi	r22, 0x3A	; 58
    6a0a:	0c f0       	brlt	.+2      	; 0x6a0e <ultoa+0x2e>
    6a0c:	69 5d       	subi	r22, 0xD9	; 217
    6a0e:	61 93       	st	Z+, r22
    6a10:	b9 01       	movw	r22, r18
    6a12:	ca 01       	movw	r24, r20
    6a14:	60 50       	subi	r22, 0x00	; 0
    6a16:	70 40       	sbci	r23, 0x00	; 0
    6a18:	80 40       	sbci	r24, 0x00	; 0
    6a1a:	90 40       	sbci	r25, 0x00	; 0
    6a1c:	51 f7       	brne	.-44     	; 0x69f2 <ultoa+0x12>
    6a1e:	10 82       	st	Z, r1
    6a20:	8f 91       	pop	r24
    6a22:	9f 91       	pop	r25
    6a24:	cf 91       	pop	r28
    6a26:	0c 94 2e 35 	jmp	0x6a5c	; 0x6a5c <strrev>

00006a2a <utoa>:
    6a2a:	fb 01       	movw	r30, r22
    6a2c:	9f 01       	movw	r18, r30
    6a2e:	42 30       	cpi	r20, 0x02	; 2
    6a30:	74 f0       	brlt	.+28     	; 0x6a4e <utoa+0x24>
    6a32:	45 32       	cpi	r20, 0x25	; 37
    6a34:	64 f4       	brge	.+24     	; 0x6a4e <utoa+0x24>
    6a36:	64 2f       	mov	r22, r20
    6a38:	77 27       	eor	r23, r23
    6a3a:	0e 94 46 35 	call	0x6a8c	; 0x6a8c <__udivmodhi4>
    6a3e:	80 5d       	subi	r24, 0xD0	; 208
    6a40:	8a 33       	cpi	r24, 0x3A	; 58
    6a42:	0c f0       	brlt	.+2      	; 0x6a46 <utoa+0x1c>
    6a44:	89 5d       	subi	r24, 0xD9	; 217
    6a46:	81 93       	st	Z+, r24
    6a48:	cb 01       	movw	r24, r22
    6a4a:	00 97       	sbiw	r24, 0x00	; 0
    6a4c:	a1 f7       	brne	.-24     	; 0x6a36 <utoa+0xc>
    6a4e:	10 82       	st	Z, r1
    6a50:	c9 01       	movw	r24, r18
    6a52:	0c 94 2e 35 	jmp	0x6a5c	; 0x6a5c <strrev>

00006a56 <__ctype_isfalse>:
    6a56:	99 27       	eor	r25, r25
    6a58:	88 27       	eor	r24, r24

00006a5a <__ctype_istrue>:
    6a5a:	08 95       	ret

00006a5c <strrev>:
    6a5c:	dc 01       	movw	r26, r24
    6a5e:	fc 01       	movw	r30, r24
    6a60:	67 2f       	mov	r22, r23
    6a62:	71 91       	ld	r23, Z+
    6a64:	77 23       	and	r23, r23
    6a66:	e1 f7       	brne	.-8      	; 0x6a60 <strrev+0x4>
    6a68:	32 97       	sbiw	r30, 0x02	; 2
    6a6a:	04 c0       	rjmp	.+8      	; 0x6a74 <strrev+0x18>
    6a6c:	7c 91       	ld	r23, X
    6a6e:	6d 93       	st	X+, r22
    6a70:	70 83       	st	Z, r23
    6a72:	62 91       	ld	r22, -Z
    6a74:	ae 17       	cp	r26, r30
    6a76:	bf 07       	cpc	r27, r31
    6a78:	c8 f3       	brcs	.-14     	; 0x6a6c <strrev+0x10>
    6a7a:	08 95       	ret

00006a7c <__mulshisi3>:
    6a7c:	b7 ff       	sbrs	r27, 7
    6a7e:	0c 94 f6 30 	jmp	0x61ec	; 0x61ec <__muluhisi3>

00006a82 <__mulohisi3>:
    6a82:	0e 94 f6 30 	call	0x61ec	; 0x61ec <__muluhisi3>
    6a86:	82 1b       	sub	r24, r18
    6a88:	93 0b       	sbc	r25, r19
    6a8a:	08 95       	ret

00006a8c <__udivmodhi4>:
    6a8c:	aa 1b       	sub	r26, r26
    6a8e:	bb 1b       	sub	r27, r27
    6a90:	51 e1       	ldi	r21, 0x11	; 17
    6a92:	07 c0       	rjmp	.+14     	; 0x6aa2 <__udivmodhi4_ep>

00006a94 <__udivmodhi4_loop>:
    6a94:	aa 1f       	adc	r26, r26
    6a96:	bb 1f       	adc	r27, r27
    6a98:	a6 17       	cp	r26, r22
    6a9a:	b7 07       	cpc	r27, r23
    6a9c:	10 f0       	brcs	.+4      	; 0x6aa2 <__udivmodhi4_ep>
    6a9e:	a6 1b       	sub	r26, r22
    6aa0:	b7 0b       	sbc	r27, r23

00006aa2 <__udivmodhi4_ep>:
    6aa2:	88 1f       	adc	r24, r24
    6aa4:	99 1f       	adc	r25, r25
    6aa6:	5a 95       	dec	r21
    6aa8:	a9 f7       	brne	.-22     	; 0x6a94 <__udivmodhi4_loop>
    6aaa:	80 95       	com	r24
    6aac:	90 95       	com	r25
    6aae:	bc 01       	movw	r22, r24
    6ab0:	cd 01       	movw	r24, r26
    6ab2:	08 95       	ret

00006ab4 <_exit>:
    6ab4:	f8 94       	cli

00006ab6 <__stop_program>:
    6ab6:	ff cf       	rjmp	.-2      	; 0x6ab6 <__stop_program>
